

Microchip MPLAB XC8 Assembler V2.32 build 20210201212658 
                                                                                               Wed Sep 15 13:53:14 2021

Microchip MPLAB XC8 C Compiler v2.32 (Free license) build 20210201212658 Og1 
     1                           	processor	18F46K20
     2                           	fnconf	rparam,??,?,0
     3                           	pagewidth 120
     4                           	opt	flic
     5                           	psect	smallconst,global,reloc=2,class=SMALLCONST,delta=1,noexec
     6                           	psect	nvBANK0,global,class=BANK0,space=1,delta=1,lowdata,noexec
     7                           	psect	nvBANK1,global,class=BANK1,space=1,delta=1,lowdata,noexec
     8                           	psect	cinit,global,reloc=2,class=CODE,delta=1
     9                           	psect	bssCOMRAM,global,class=COMRAM,space=1,delta=1,lowdata,noexec
    10                           	psect	bssBANK0,global,class=BANK0,space=1,delta=1,lowdata,noexec
    11                           	psect	bssBANK1,global,class=BANK1,space=1,delta=1,lowdata,noexec
    12                           	psect	cstackBANK1,global,class=BANK1,space=1,delta=1,lowdata,noexec
    13                           	psect	cstackBANK0,global,class=BANK0,space=1,delta=1,lowdata,noexec
    14                           	psect	cstackCOMRAM,global,class=COMRAM,space=1,delta=1,lowdata,noexec
    15                           	psect	text0,global,reloc=2,class=CODE,delta=1
    16                           	psect	text1,global,reloc=2,class=CODE,delta=1,group=3
    17                           	psect	text2,global,reloc=2,class=CODE,delta=1,group=1
    18                           	psect	text3,global,reloc=2,class=CODE,delta=1,group=1
    19                           	psect	text4,global,reloc=2,class=CODE,delta=1,group=3
    20                           	psect	text5,global,reloc=2,class=CODE,delta=1,group=1
    21                           	psect	text6,global,reloc=2,class=CODE,delta=1,group=3
    22                           	psect	text7,global,reloc=2,class=CODE,delta=1,group=3
    23                           	psect	text8,global,reloc=2,class=CODE,delta=1,group=3
    24                           	psect	text9,global,reloc=2,class=CODE,delta=1,group=1
    25                           	psect	text10,global,reloc=2,class=CODE,delta=1,group=3
    26                           	psect	text11,global,reloc=2,class=CODE,delta=1,group=3
    27                           	psect	text12,global,reloc=2,class=CODE,delta=1,group=3
    28                           	psect	text13,global,reloc=2,class=CODE,delta=1
    29                           	psect	text14,global,reloc=2,class=CODE,delta=1
    30                           	psect	text15,global,reloc=2,class=CODE,delta=1,group=3
    31                           	psect	text16,global,reloc=2,class=CODE,delta=1,group=3
    32                           	psect	text17,global,reloc=2,class=CODE,delta=1,group=2
    33                           	psect	text18,global,reloc=2,class=CODE,delta=1,group=2
    34                           	psect	text19,global,reloc=2,class=CODE,delta=1,group=2
    35                           	psect	text20,global,reloc=2,class=CODE,delta=1,group=2
    36                           	psect	text21,global,reloc=2,class=CODE,delta=1,group=2
    37                           	psect	text22,global,reloc=2,class=CODE,delta=1,group=2
    38                           	psect	text23,global,reloc=2,class=CODE,delta=1,group=2
    39                           	psect	text24,global,reloc=2,class=CODE,delta=1,group=2
    40                           	psect	text25,global,reloc=2,class=CODE,delta=1,group=2
    41                           	psect	text26,global,reloc=2,class=CODE,delta=1,group=2
    42                           	psect	text27,global,reloc=2,class=CODE,delta=1
    43                           	psect	text28,global,reloc=2,class=CODE,delta=1
    44                           	psect	text29,global,reloc=2,class=CODE,delta=1
    45                           	psect	text30,global,reloc=2,class=CODE,delta=1
    46                           	psect	text31,global,reloc=2,class=CODE,delta=1,group=2
    47                           	psect	text32,global,reloc=2,class=CODE,delta=1
    48                           	psect	text33,global,reloc=2,class=CODE,delta=1
    49                           	psect	text34,global,reloc=2,class=CODE,delta=1
    50                           	psect	text35,global,reloc=2,class=CODE,delta=1,inline
    51                           	psect	text36,global,reloc=2,class=CODE,delta=1
    52                           	psect	text37,global,reloc=2,class=CODE,delta=1
    53                           	psect	text38,global,reloc=2,class=CODE,delta=1
    54                           	psect	text39,global,reloc=2,class=CODE,delta=1,inline
    55                           	psect	text40,global,reloc=2,class=CODE,delta=1,inline
    56                           	psect	text41,global,reloc=2,class=CODE,delta=1
    57                           	psect	text42,global,reloc=2,class=CODE,delta=1
    58                           	psect	text43,global,reloc=2,class=CODE,delta=1
    59                           	psect	text44,global,reloc=2,class=CODE,delta=1
    60                           	psect	text45,global,reloc=2,class=CODE,delta=1
    61                           	psect	text46,global,reloc=2,class=CODE,delta=1
    62                           	psect	text47,global,reloc=2,class=CODE,delta=1
    63                           	psect	text48,global,reloc=2,class=CODE,delta=1
    64                           	psect	text49,global,reloc=2,class=CODE,delta=1
    65                           	psect	text50,global,reloc=2,class=CODE,delta=1
    66                           	psect	text51,global,reloc=2,class=CODE,delta=1
    67                           	psect	text52,global,reloc=2,class=CODE,delta=1
    68                           	psect	text53,global,reloc=2,class=CODE,delta=1
    69                           	psect	text54,global,reloc=2,class=CODE,delta=1
    70                           	psect	text55,global,reloc=2,class=CODE,delta=1
    71                           	psect	text56,global,reloc=2,class=CODE,delta=1
    72                           	psect	text57,global,reloc=2,class=CODE,delta=1,inline
    73                           	psect	text58,global,reloc=2,class=CODE,delta=1,inline
    74                           	psect	text59,global,reloc=2,class=CODE,delta=1,inline
    75                           	psect	text60,global,reloc=2,class=CODE,delta=1,inline
    76                           	psect	text61,global,reloc=2,class=CODE,delta=1,inline
    77                           	psect	text62,global,reloc=2,class=CODE,delta=1,inline
    78                           	psect	text63,global,reloc=2,class=CODE,delta=1,inline
    79                           	psect	text64,global,reloc=2,class=CODE,delta=1
    80                           	psect	text65,global,reloc=2,class=CODE,delta=1
    81                           	psect	text66,global,reloc=2,class=CODE,delta=1
    82                           	psect	text67,global,reloc=2,class=CODE,delta=1
    83                           	psect	text68,global,reloc=2,class=CODE,delta=1
    84                           	psect	text69,global,reloc=2,class=CODE,delta=1
    85                           	psect	text70,global,reloc=2,class=CODE,delta=1
    86                           	psect	text71,global,reloc=2,class=CODE,delta=1
    87                           	psect	text72,global,reloc=2,class=CODE,delta=1
    88                           	psect	text73,global,reloc=2,class=CODE,delta=1
    89                           	psect	text74,global,reloc=2,class=CODE,delta=1,inline
    90                           	psect	text75,global,reloc=2,class=CODE,delta=1,inline
    91                           	psect	text76,global,reloc=2,class=CODE,delta=1,inline
    92                           	psect	text77,global,reloc=2,class=CODE,delta=1
    93                           	psect	text78,global,reloc=2,class=CODE,delta=1,inline
    94                           	psect	text79,global,reloc=2,class=CODE,delta=1,inline
    95                           	psect	text80,global,reloc=2,class=CODE,delta=1,inline
    96                           	psect	text81,global,reloc=2,class=CODE,delta=1
    97                           	psect	text82,global,reloc=2,class=CODE,delta=1
    98                           	psect	text83,global,reloc=2,class=CODE,delta=1
    99                           	psect	text84,global,reloc=2,class=CODE,delta=1
   100                           	psect	text85,global,reloc=2,class=CODE,delta=1
   101                           	psect	text86,global,reloc=2,class=CODE,delta=1
   102                           	psect	text87,global,reloc=2,class=CODE,delta=1
   103                           	psect	text88,global,reloc=2,class=CODE,delta=1
   104                           	psect	text89,global,reloc=2,class=CODE,delta=1
   105                           	psect	text90,global,reloc=2,class=CODE,delta=1
   106                           	psect	text91,global,reloc=2,class=CODE,delta=1
   107                           	psect	intcode,global,reloc=2,class=CODE,delta=1
   108                           	psect	text93,global,reloc=2,class=CODE,delta=1
   109                           	psect	text94,global,reloc=2,class=CODE,delta=1
   110                           	psect	text95,global,reloc=2,class=CODE,delta=1
   111                           	psect	text96,global,reloc=2,class=CODE,delta=1
   112                           	psect	text97,global,reloc=2,class=CODE,delta=1
   113                           	psect	text98,global,reloc=2,class=CODE,delta=1
   114                           	psect	intsave_regs,global,class=BIGRAM,space=1,delta=1,noexec
   115                           	psect	text99,global,reloc=2,class=CODE,delta=1
   116                           	psect	rparam,global,class=COMRAM,space=1,delta=1,noexec
   117                           	psect	temp,global,ovrld,common,class=COMRAM,space=1,delta=1
   118                           	psect	idloc,global,abs,ovrld,class=IDLOC,space=5,delta=1,noexec
   119                           	psect	config,global,abs,ovrld,class=CONFIG,space=4,delta=1,noexec
   120  0000                     
   121                           ; Version 2.20
   122                           ; Generated 05/05/2020 GMT
   123                           ; 
   124                           ; Copyright © 2020, Microchip Technology Inc. and its subsidiaries ("Microchip")
   125                           ; All rights reserved.
   126                           ; 
   127                           ; This software is developed by Microchip Technology Inc. and its subsidiaries ("Microch
      +                          ip").
   128                           ; 
   129                           ; Redistribution and use in source and binary forms, with or without modification, are
   130                           ; permitted provided that the following conditions are met:
   131                           ; 
   132                           ;     1. Redistributions of source code must retain the above copyright notice, this lis
      +                          t of
   133                           ;        conditions and the following disclaimer.
   134                           ; 
   135                           ;     2. Redistributions in binary form must reproduce the above copyright notice, this 
      +                          list
   136                           ;        of conditions and the following disclaimer in the documentation and/or other
   137                           ;        materials provided with the distribution.
   138                           ; 
   139                           ;     3. Microchip's name may not be used to endorse or promote products derived from th
      +                          is
   140                           ;        software without specific prior written permission.
   141                           ; 
   142                           ; THIS SOFTWARE IS PROVIDED BY MICROCHIP "AS IS" AND ANY EXPRESS OR IMPLIED WARRANTIES,
   143                           ; INCLUDING, BUT NOT LIMITED TO, THE IMPLIED WARRANTIES OF MERCHANTABILITY AND FITNESS F
      +                          OR
   144                           ; PURPOSE ARE DISCLAIMED.  IN NO EVENT SHALL MICROCHIP BE LIABLE FOR ANY DIRECT, INDIREC
      +                          T,
   145                           ; INCIDENTAL, SPECIAL, EXEMPLARY, OR CONSEQUENTIAL DAMAGES (INCLUDING BUT NOT LIMITED TO
   146                           ; PROCUREMENT OF SUBSTITUTE GOODS OR SERVICES; LOSS OF USE, DATA OR PROFITS; OR BUSINESS
   147                           ; INTERRUPTION) HOWSOEVER CAUSED AND ON ANY THEORY OF LIABILITY, WHETHER IN CONTRACT, ST
      +                          RICT
   148                           ; LIABILITY, OR TORT (INCLUDING NEGLIGENCE OR OTHERWISE) ARISING IN ANY WAY OUT OF THE U
      +                          SE OF
   149                           ; THIS SOFTWARE, EVEN IF ADVISED OF THE POSSIBILITY OF SUCH DAMAGE.
   150                           ; 
   151                           ; 
   152                           ; Code-generator required, PIC18F46K20 Definitions
   153                           ; 
   154                           ; SFR Addresses
   155  0000                     
   156                           	psect	smallconst
   157  001000                     __psmallconst:
   158                           	callstack 0
   159  001000  00                 	db	0
   160  001001                     _fsmStateTable:
   161                           	callstack 0
   162  001001  60                 	db	low _I2C_DO_IDLE
   163  001002  45                 	db	high _I2C_DO_IDLE
   164  001003  38                 	db	low _I2C_DO_SEND_ADR_READ
   165  001004  45                 	db	high _I2C_DO_SEND_ADR_READ
   166  001005  28                 	db	low _I2C_DO_SEND_ADR_WRITE
   167  001006  45                 	db	high _I2C_DO_SEND_ADR_WRITE
   168  001007  24                 	db	low _I2C_DO_TX
   169  001008  36                 	db	high _I2C_DO_TX
   170  001009  00                 	db	low _I2C_DO_RX
   171  00100A  39                 	db	high _I2C_DO_RX
   172  00100B  54                 	db	low _I2C_DO_RCEN
   173  00100C  45                 	db	high _I2C_DO_RCEN
   174  00100D  50                 	db	low _I2C_DO_TX_EMPTY
   175  00100E  3B                 	db	high _I2C_DO_TX_EMPTY
   176  00100F  EA                 	db	low _I2C_DO_SEND_RESTART_READ
   177  001010  45                 	db	high _I2C_DO_SEND_RESTART_READ
   178  001011  E2                 	db	low _I2C_DO_SEND_RESTART_WRITE
   179  001012  45                 	db	high _I2C_DO_SEND_RESTART_WRITE
   180  001013  DA                 	db	low _I2C_DO_SEND_RESTART
   181  001014  45                 	db	high _I2C_DO_SEND_RESTART
   182  001015  D2                 	db	low _I2C_DO_SEND_STOP
   183  001016  45                 	db	high _I2C_DO_SEND_STOP
   184  001017  CA                 	db	low _I2C_DO_RX_ACK
   185  001018  45                 	db	high _I2C_DO_RX_ACK
   186  001019  C2                 	db	low _I2C_DO_RX_NACK_STOP
   187  00101A  45                 	db	high _I2C_DO_RX_NACK_STOP
   188  00101B  BA                 	db	low _I2C_DO_RX_NACK_RESTART
   189  00101C  45                 	db	high _I2C_DO_RX_NACK_RESTART
   190  00101D  48                 	db	low _I2C_DO_RESET
   191  00101E  45                 	db	high _I2C_DO_RESET
   192  00101F  08                 	db	low _I2C_DO_ADDRESS_NACK
   193  001020  3E                 	db	high _I2C_DO_ADDRESS_NACK
   194  001021                     __end_of_fsmStateTable:
   195                           	callstack 0
   196  001021                     STR_1:
   197  001021  48                 	db	72	;'H'
   198  001022  65                 	db	101	;'e'
   199  001023  6C                 	db	108	;'l'
   200  001024  6C                 	db	108	;'l'
   201  001025  69                 	db	105	;'i'
   202  001026  67                 	db	103	;'g'
   203  001027  6B                 	db	107	;'k'
   204  001028  65                 	db	101	;'e'
   205  001029  69                 	db	105	;'i'
   206  00102A  74                 	db	116	;'t'
   207  00102B  20                 	db	32
   208  00102C  3D                 	db	61	;'='
   209  00102D  20                 	db	32
   210  00102E  25                 	db	37
   211  00102F  66                 	db	102	;'f'
   212  001030  6C                 	db	108	;'l'
   213  001031  75                 	db	117	;'u'
   214  001032  78                 	db	120	;'x'
   215  001033  0D                 	db	13
   216  001034  0A                 	db	10
   217  001035  00                 	db	0
   218  001036                     STR_2:
   219  001036  49                 	db	73	;'I'
   220  001037  4E                 	db	78	;'N'
   221  001038  46                 	db	70	;'F'
   222  001039  00                 	db	0
   223  00103A                     STR_6:
   224  00103A  4E                 	db	78	;'N'
   225  00103B  41                 	db	65	;'A'
   226  00103C  4E                 	db	78	;'N'
   227  00103D  00                 	db	0
   228  00103E                     STR_3:
   229  00103E  69                 	db	105	;'i'
   230  00103F  6E                 	db	110	;'n'
   231  001040  66                 	db	102	;'f'
   232  001041  00                 	db	0
   233  001042                     STR_7:
   234  001042  6E                 	db	110	;'n'
   235  001043  61                 	db	97	;'a'
   236  001044  6E                 	db	110	;'n'
   237  001045  00                 	db	0
   238  001046                     STR_10:
   239  001046  6C                 	db	108	;'l'
   240  001047  66                 	db	102	;'f'
   241  001048  00                 	db	0
   242  001049  00                 	db	0	; dummy byte at the end
   243  0000                     
   244                           	psect	nvBANK0
   245  0000F6                     __pnvBANK0:
   246                           	callstack 0
   247  0000F6                     _EUSART_FramingErrorHandler:
   248                           	callstack 0
   249  0000F6                     	ds	2
   250  0000F8                     _EUSART_RxDefaultInterruptHandler:
   251                           	callstack 0
   252  0000F8                     	ds	2
   253  0000FA                     _EUSART_TxDefaultInterruptHandler:
   254                           	callstack 0
   255  0000FA                     	ds	2
   256  0000FC                     _eusartTxBufferRemaining:
   257                           	callstack 0
   258  0000FC                     	ds	1
   259                           
   260                           	psect	nvBANK1
   261  000156                     __pnvBANK1:
   262                           	callstack 0
   263  000156                     _EUSART_ErrorHandler:
   264                           	callstack 0
   265  000156                     	ds	2
   266  000158                     _EUSART_OverrunErrorHandler:
   267                           	callstack 0
   268  000158                     	ds	2
   269  0000                     _RCONbits	set	4048
   270  0000                     _RCREG	set	4014
   271  0000                     _RCSTAbits	set	4011
   272  0000                     _TXREG	set	4013
   273  0000                     _TXSTAbits	set	4012
   274  0000                     _SPBRGH	set	4016
   275  0000                     _SPBRG	set	4015
   276  0000                     _TXSTA	set	4012
   277  0000                     _RCSTA	set	4011
   278  0000                     _BAUDCON	set	4024
   279  0000                     _INTCONbits	set	4082
   280  0000                     _INTCON2bits	set	4081
   281  0000                     _WPUB	set	3964
   282  0000                     _ANSELH	set	3967
   283  0000                     _ANSEL	set	3966
   284  0000                     _TRISD	set	3989
   285  0000                     _TRISC	set	3988
   286  0000                     _TRISB	set	3987
   287  0000                     _TRISA	set	3986
   288  0000                     _TRISE	set	3990
   289  0000                     _LATC	set	3979
   290  0000                     _LATB	set	3978
   291  0000                     _LATA	set	3977
   292  0000                     _LATD	set	3980
   293  0000                     _LATE	set	3981
   294  0000                     _OSCTUNE	set	3995
   295  0000                     _OSCCON	set	4051
   296  0000                     _PIR1bits	set	3998
   297  0000                     _PIE1bits	set	3997
   298  0000                     _SSPSTATbits	set	4039
   299  0000                     _PIR2bits	set	4001
   300  0000                     _SSPCON2bits	set	4037
   301  0000                     _SSPBUF	set	4041
   302  0000                     _SSPCON1bits	set	4038
   303  0000                     _SSPADD	set	4040
   304  0000                     _SSPCON2	set	4037
   305  0000                     _SSPCON1	set	4038
   306  0000                     _SSPSTAT	set	4039
   307                           
   308                           ; #config settings
   309                           
   310                           	psect	cinit
   311  0042EC                     __pcinit:
   312                           	callstack 0
   313  0042EC                     start_initialization:
   314                           	callstack 0
   315  0042EC                     __initialization:
   316                           	callstack 0
   317                           
   318                           ; Clear objects allocated to BANK1 (80 bytes)
   319  0042EC  EE01  F000         	lfsr	0,__pbssBANK1
   320  0042F0  0E50               	movlw	80
   321  0042F2                     clear_0:
   322  0042F2  6AEE               	clrf	postinc0,c
   323  0042F4  06E8               	decf	wreg,f,c
   324  0042F6  E1FD               	bnz	clear_0
   325                           
   326                           ; Clear objects allocated to BANK0 (86 bytes)
   327  0042F8  EE00  F060         	lfsr	0,__pbssBANK0
   328  0042FC  0E56               	movlw	86
   329  0042FE                     clear_1:
   330  0042FE  6AEE               	clrf	postinc0,c
   331  004300  06E8               	decf	wreg,f,c
   332  004302  E1FD               	bnz	clear_1
   333                           
   334                           ; Clear objects allocated to COMRAM (5 bytes)
   335  004304  6A5A               	clrf	(__pbssCOMRAM+4)& (0+255),c
   336  004306  6A59               	clrf	(__pbssCOMRAM+3)& (0+255),c
   337  004308  6A58               	clrf	(__pbssCOMRAM+2)& (0+255),c
   338  00430A  6A57               	clrf	(__pbssCOMRAM+1)& (0+255),c
   339  00430C  6A56               	clrf	__pbssCOMRAM& (0+255),c
   340  00430E                     end_of_initialization:
   341                           	callstack 0
   342  00430E                     __end_of__initialization:
   343                           	callstack 0
   344  00430E  905B               	bcf	int$flags,0,c	;clear compiler interrupt flag (level 1)
   345  004310  925B               	bcf	int$flags,1,c	;clear compiler interrupt flag (level 2)
   346  004312  0100               	movlb	0
   347  004314  EF69  F01F         	goto	_main	;jump to C main() function
   348                           
   349                           	psect	bssCOMRAM
   350  000056                     __pbssCOMRAM:
   351                           	callstack 0
   352  000056                     _eusartRxCount:
   353                           	callstack 0
   354  000056                     	ds	1
   355  000057                     _eusartRxTail:
   356                           	callstack 0
   357  000057                     	ds	1
   358  000058                     _eusartRxHead:
   359                           	callstack 0
   360  000058                     	ds	1
   361  000059                     _eusartTxTail:
   362                           	callstack 0
   363  000059                     	ds	1
   364  00005A                     _eusartTxHead:
   365                           	callstack 0
   366  00005A                     	ds	1
   367                           
   368                           	psect	bssBANK0
   369  000060                     __pbssBANK0:
   370                           	callstack 0
   371  000060                     _I2C_Status:
   372                           	callstack 0
   373  000060                     	ds	36
   374  000084                     _eusartRxStatusBuffer:
   375                           	callstack 0
   376  000084                     	ds	8
   377  00008C                     _eusartRxBuffer:
   378                           	callstack 0
   379  00008C                     	ds	8
   380  000094                     _eusartTxBuffer:
   381                           	callstack 0
   382  000094                     	ds	8
   383  00009C                     floorf@F527:
   384                           	callstack 0
   385  00009C                     	ds	4
   386  0000A0                     ___fpclassifyf@F465:
   387                           	callstack 0
   388  0000A0                     	ds	4
   389  0000A4                     _light:
   390                           	callstack 0
   391  0000A4                     	ds	4
   392  0000A8                     _writeBuffer:
   393                           	callstack 0
   394  0000A8                     	ds	3
   395  0000AB                     _nout:
   396                           	callstack 0
   397  0000AB                     	ds	2
   398  0000AD                     _width:
   399                           	callstack 0
   400  0000AD                     	ds	2
   401  0000AF                     _prec:
   402                           	callstack 0
   403  0000AF                     	ds	2
   404  0000B1                     _flags:
   405                           	callstack 0
   406  0000B1                     	ds	2
   407  0000B3                     _readBuffer:
   408                           	callstack 0
   409  0000B3                     	ds	2
   410  0000B5                     _eusartRxLastError:
   411                           	callstack 0
   412  0000B5                     	ds	1
   413                           
   414                           	psect	bssBANK1
   415  000100                     __pbssBANK1:
   416                           	callstack 0
   417  000100                     _dbuf:
   418                           	callstack 0
   419  000100                     	ds	80
   420                           
   421                           	psect	cstackBANK1
   422  000150                     __pcstackBANK1:
   423                           	callstack 0
   424  000150                     ?_printf:
   425                           	callstack 0
   426  000150                     printf@fmt:
   427                           	callstack 0
   428                           
   429                           ; 2 bytes @ 0x0
   430  000150                     	ds	6
   431                           
   432                           	psect	cstackBANK0
   433  0000B6                     __pcstackBANK0:
   434                           	callstack 0
   435  0000B6                     _efgtoa$2087:
   436                           	callstack 0
   437                           
   438                           ; 2 bytes @ 0x0
   439  0000B6                     	ds	2
   440  0000B8                     _efgtoa$2088:
   441                           	callstack 0
   442                           
   443                           ; 2 bytes @ 0x2
   444  0000B8                     	ds	2
   445  0000BA                     _efgtoa$2093:
   446                           	callstack 0
   447                           
   448                           ; 2 bytes @ 0x4
   449  0000BA                     	ds	2
   450  0000BC                     _efgtoa$2097:
   451                           	callstack 0
   452                           
   453                           ; 2 bytes @ 0x6
   454  0000BC                     	ds	2
   455  0000BE                     _efgtoa$2098:
   456                           	callstack 0
   457                           
   458                           ; 2 bytes @ 0x8
   459  0000BE                     	ds	2
   460  0000C0                     _efgtoa$2099:
   461                           	callstack 0
   462                           
   463                           ; 2 bytes @ 0xA
   464  0000C0                     	ds	2
   465  0000C2                     efgtoa@t:
   466                           	callstack 0
   467                           
   468                           ; 2 bytes @ 0xC
   469  0000C2                     	ds	2
   470  0000C4                     efgtoa@pp:
   471                           	callstack 0
   472                           
   473                           ; 2 bytes @ 0xE
   474  0000C4                     	ds	2
   475  0000C6                     efgtoa@ne:
   476                           	callstack 0
   477                           
   478                           ; 2 bytes @ 0x10
   479  0000C6                     	ds	2
   480  0000C8                     efgtoa@m:
   481                           	callstack 0
   482                           
   483                           ; 2 bytes @ 0x12
   484  0000C8                     	ds	2
   485  0000CA                     efgtoa@ou:
   486                           	callstack 0
   487                           
   488                           ; 4 bytes @ 0x14
   489  0000CA                     	ds	4
   490  0000CE                     efgtoa@d:
   491                           	callstack 0
   492                           
   493                           ; 2 bytes @ 0x18
   494  0000CE                     	ds	2
   495  0000D0                     efgtoa@sign:
   496                           	callstack 0
   497                           
   498                           ; 2 bytes @ 0x1A
   499  0000D0                     	ds	2
   500  0000D2                     efgtoa@p:
   501                           	callstack 0
   502                           
   503                           ; 2 bytes @ 0x1C
   504  0000D2                     	ds	2
   505  0000D4                     efgtoa@w:
   506                           	callstack 0
   507                           
   508                           ; 2 bytes @ 0x1E
   509  0000D4                     	ds	2
   510  0000D6                     efgtoa@nmode:
   511                           	callstack 0
   512                           
   513                           ; 1 bytes @ 0x20
   514  0000D6                     	ds	1
   515  0000D7                     efgtoa@mode:
   516                           	callstack 0
   517                           
   518                           ; 1 bytes @ 0x21
   519  0000D7                     	ds	1
   520  0000D8                     efgtoa@h:
   521                           	callstack 0
   522                           
   523                           ; 4 bytes @ 0x22
   524  0000D8                     	ds	4
   525  0000DC                     efgtoa@l:
   526                           	callstack 0
   527                           
   528                           ; 4 bytes @ 0x26
   529  0000DC                     	ds	4
   530  0000E0                     efgtoa@i:
   531                           	callstack 0
   532                           
   533                           ; 2 bytes @ 0x2A
   534  0000E0                     	ds	2
   535  0000E2                     efgtoa@g:
   536                           	callstack 0
   537                           
   538                           ; 4 bytes @ 0x2C
   539  0000E2                     	ds	4
   540  0000E6                     efgtoa@e:
   541                           	callstack 0
   542                           
   543                           ; 2 bytes @ 0x30
   544  0000E6                     	ds	2
   545  0000E8                     efgtoa@n:
   546                           	callstack 0
   547                           
   548                           ; 2 bytes @ 0x32
   549  0000E8                     	ds	2
   550  0000EA                     efgtoa@u:
   551                           	callstack 0
   552                           
   553                           ; 4 bytes @ 0x34
   554  0000EA                     	ds	4
   555  0000EE                     ?_vfprintf:
   556                           	callstack 0
   557  0000EE                     vfprintf@fp:
   558                           	callstack 0
   559                           
   560                           ; 2 bytes @ 0x38
   561  0000EE                     	ds	2
   562  0000F0                     vfprintf@fmt:
   563                           	callstack 0
   564                           
   565                           ; 2 bytes @ 0x3A
   566  0000F0                     	ds	2
   567  0000F2                     vfprintf@ap:
   568                           	callstack 0
   569                           
   570                           ; 2 bytes @ 0x3C
   571  0000F2                     	ds	2
   572  0000F4                     ??_main:
   573                           
   574                           ; 1 bytes @ 0x3E
   575  0000F4                     	ds	2
   576                           
   577                           	psect	cstackCOMRAM
   578  000001                     __pcstackCOMRAM:
   579                           	callstack 0
   580  000001                     ??_INTERRUPT_InterruptManager:
   581  000001                     
   582                           ; 1 bytes @ 0x0
   583  000001                     	ds	4
   584  000005                     ?_strlen:
   585                           	callstack 0
   586  000005                     ?___fpclassifyf:
   587                           	callstack 0
   588  000005                     ?_isupper:
   589                           	callstack 0
   590  000005                     ?_strncmp:
   591                           	callstack 0
   592  000005                     ?___awdiv:
   593                           	callstack 0
   594  000005                     ?___awmod:
   595                           	callstack 0
   596  000005                     ?___fladd:
   597                           	callstack 0
   598  000005                     ?___fldiv:
   599                           	callstack 0
   600  000005                     ?___flmul:
   601                           	callstack 0
   602  000005                     ?___flneg:
   603                           	callstack 0
   604  000005                     ?___fltol:
   605                           	callstack 0
   606  000005                     ?___xxtofl:
   607                           	callstack 0
   608  000005                     I2C_Open@address:
   609                           	callstack 0
   610  000005                     I2C_Close@returnValue:
   611                           	callstack 0
   612  000005                     I2C_MasterSendTxData@data:
   613                           	callstack 0
   614  000005                     EUSART_Write@txData:
   615                           	callstack 0
   616  000005                     I2C_SetBuffer@buffer:
   617                           	callstack 0
   618  000005                     I2C_SetCallback@cb:
   619                           	callstack 0
   620  000005                     EUSART_SetFramingErrorHandler@interruptHandler:
   621                           	callstack 0
   622  000005                     EUSART_SetOverrunErrorHandler@interruptHandler:
   623                           	callstack 0
   624  000005                     EUSART_SetErrorHandler@interruptHandler:
   625                           	callstack 0
   626  000005                     EUSART_SetTxInterruptHandler@interruptHandler:
   627                           	callstack 0
   628  000005                     EUSART_SetRxInterruptHandler@interruptHandler:
   629                           	callstack 0
   630  000005                     ___awdiv@dividend:
   631                           	callstack 0
   632  000005                     ___awmod@dividend:
   633                           	callstack 0
   634  000005                     isupper@c:
   635                           	callstack 0
   636  000005                     strcpy@dest:
   637                           	callstack 0
   638  000005                     strlen@s:
   639                           	callstack 0
   640  000005                     strncmp@_l:
   641                           	callstack 0
   642  000005                     ___fleq@ff1:
   643                           	callstack 0
   644  000005                     ___flneg@f1:
   645                           	callstack 0
   646  000005                     ___fltol@f1:
   647                           	callstack 0
   648  000005                     ___fladd@b:
   649                           	callstack 0
   650  000005                     ___fldiv@b:
   651                           	callstack 0
   652  000005                     ___flmul@b:
   653                           	callstack 0
   654  000005                     ___xxtofl@val:
   655                           	callstack 0
   656  000005                     ___fpclassifyf@x:
   657                           	callstack 0
   658                           
   659                           ; 4 bytes @ 0x4
   660  000005                     	ds	1
   661  000006                     I2C_Open@returnValue:
   662                           	callstack 0
   663  000006                     putch@txData:
   664                           	callstack 0
   665                           
   666                           ; 1 bytes @ 0x5
   667  000006                     	ds	1
   668  000007                     ??_isupper:
   669  000007                     I2C_SetBuffer@bufferSize:
   670                           	callstack 0
   671  000007                     I2C_SetCallback@ptr:
   672                           	callstack 0
   673  000007                     ___awdiv@divisor:
   674                           	callstack 0
   675  000007                     ___awmod@divisor:
   676                           	callstack 0
   677  000007                     fputc@c:
   678                           	callstack 0
   679  000007                     strcpy@src:
   680                           	callstack 0
   681  000007                     strlen@a:
   682                           	callstack 0
   683  000007                     strncmp@_r:
   684                           	callstack 0
   685                           
   686                           ; 2 bytes @ 0x6
   687  000007                     	ds	2
   688  000009                     ??___fpclassifyf:
   689  000009                     ??_strcpy:
   690  000009                     ??___fltol:
   691  000009                     ??___xxtofl:
   692  000009                     I2C_SetCallback@idx:
   693                           	callstack 0
   694  000009                     ___awdiv@counter:
   695                           	callstack 0
   696  000009                     ___awmod@counter:
   697                           	callstack 0
   698  000009                     fputc@fp:
   699                           	callstack 0
   700  000009                     strncmp@n:
   701                           	callstack 0
   702  000009                     ___fleq@ff2:
   703                           	callstack 0
   704  000009                     ___fladd@a:
   705                           	callstack 0
   706  000009                     ___fldiv@a:
   707                           	callstack 0
   708  000009                     ___flmul@a:
   709                           	callstack 0
   710                           
   711                           ; 4 bytes @ 0x8
   712  000009                     	ds	1
   713  00000A                     ___awdiv@sign:
   714                           	callstack 0
   715  00000A                     ___awmod@sign:
   716                           	callstack 0
   717  00000A                     I2C_SetDataCompleteCallback@cb:
   718                           	callstack 0
   719  00000A                     I2C_SetAddressNackCallback@cb:
   720                           	callstack 0
   721                           
   722                           ; 2 bytes @ 0x9
   723  00000A                     	ds	1
   724  00000B                     ??_fputc:
   725  00000B                     ??_strncmp:
   726  00000B                     ?_tolower:
   727                           	callstack 0
   728  00000B                     ___awdiv@quotient:
   729                           	callstack 0
   730  00000B                     strcpy@s:
   731                           	callstack 0
   732  00000B                     tolower@c:
   733                           	callstack 0
   734                           
   735                           ; 2 bytes @ 0xA
   736  00000B                     	ds	1
   737  00000C                     I2C_SetDataCompleteCallback@ptr:
   738                           	callstack 0
   739  00000C                     I2C_SetAddressNackCallback@ptr:
   740                           	callstack 0
   741  00000C                     strncmp@l:
   742                           	callstack 0
   743                           
   744                           ; 2 bytes @ 0xB
   745  00000C                     	ds	1
   746  00000D                     ??___fladd:
   747  00000D                     ??___fldiv:
   748  00000D                     ??___flmul:
   749  00000D                     ??_tolower:
   750  00000D                     ??___fleq:
   751  00000D                     ___fltol@sign1:
   752                           	callstack 0
   753  00000D                     ___xxtofl@sign:
   754                           	callstack 0
   755  00000D                     ___fpclassifyf@e:
   756                           	callstack 0
   757  00000D                     strcpy@d:
   758                           	callstack 0
   759                           
   760                           ; 2 bytes @ 0xC
   761  00000D                     	ds	1
   762  00000E                     ___fltol@exp1:
   763                           	callstack 0
   764  00000E                     ___xxtofl@exp:
   765                           	callstack 0
   766  00000E                     rd1RegCompleteHandler@ptr:
   767                           	callstack 0
   768  00000E                     rd2RegCompleteHandler@ptr:
   769                           	callstack 0
   770  00000E                     wr1RegCompleteHandler@ptr:
   771                           	callstack 0
   772  00000E                     wr2RegCompleteHandler@ptr:
   773                           	callstack 0
   774  00000E                     rdBlkRegCompleteHandler@ptr:
   775                           	callstack 0
   776  00000E                     I2C_CallbackReturnReset@funPtr:
   777                           	callstack 0
   778  00000E                     strncmp@r:
   779                           	callstack 0
   780                           
   781                           ; 2 bytes @ 0xD
   782  00000E                     	ds	1
   783  00000F                     ___xxtofl@arg:
   784                           	callstack 0
   785  00000F                     ___fpclassifyf@u:
   786                           	callstack 0
   787                           
   788                           ; 4 bytes @ 0xE
   789  00000F                     	ds	1
   790  000010                     ??_I2C_DO_TX:
   791  000010                     ??_I2C_DO_RX:
   792  000010                     ??_I2C_DO_TX_EMPTY:
   793  000010                     ??_I2C_DO_ADDRESS_NACK:
   794  000010                     fputs@s:
   795                           	callstack 0
   796                           
   797                           ; 2 bytes @ 0xF
   798  000010                     	ds	1
   799  000011                     ___fladd@signs:
   800                           	callstack 0
   801  000011                     ___flmul@sign:
   802                           	callstack 0
   803  000011                     _tolower$2207:
   804                           	callstack 0
   805  000011                     ___fldiv@rem:
   806                           	callstack 0
   807                           
   808                           ; 4 bytes @ 0x10
   809  000011                     	ds	1
   810  000012                     ??_I2C_MasterFsm:
   811  000012                     ___fladd@aexp:
   812                           	callstack 0
   813  000012                     ___flmul@aexp:
   814                           	callstack 0
   815  000012                     fputs@fp:
   816                           	callstack 0
   817                           
   818                           ; 2 bytes @ 0x11
   819  000012                     	ds	1
   820  000013                     ___fladd@bexp:
   821                           	callstack 0
   822  000013                     ___flmul@grs:
   823                           	callstack 0
   824                           
   825                           ; 4 bytes @ 0x12
   826  000013                     	ds	1
   827  000014                     I2C_MasterOperation@read:
   828                           	callstack 0
   829  000014                     ___fladd@grs:
   830                           	callstack 0
   831  000014                     fputs@c:
   832                           	callstack 0
   833                           
   834                           ; 1 bytes @ 0x13
   835  000014                     	ds	1
   836  000015                     I2C_MasterOperation@returnValue:
   837                           	callstack 0
   838  000015                     ___fldiv@sign:
   839                           	callstack 0
   840  000015                     fputs@i:
   841                           	callstack 0
   842                           
   843                           ; 2 bytes @ 0x14
   844  000015                     	ds	1
   845  000016                     ?_I2C_Read2ByteRegister:
   846                           	callstack 0
   847  000016                     I2C_Read2ByteRegister@reg:
   848                           	callstack 0
   849  000016                     I2C_Write1ByteRegister@reg:
   850                           	callstack 0
   851  000016                     I2C_Write2ByteRegister@reg:
   852                           	callstack 0
   853  000016                     ___fldiv@new_exp:
   854                           	callstack 0
   855                           
   856                           ; 2 bytes @ 0x15
   857  000016                     	ds	1
   858  000017                     ?_pad:
   859                           	callstack 0
   860  000017                     I2C_Write1ByteRegister@data:
   861                           	callstack 0
   862  000017                     ___flmul@bexp:
   863                           	callstack 0
   864  000017                     I2C_Write2ByteRegister@data:
   865                           	callstack 0
   866  000017                     pad@fp:
   867                           	callstack 0
   868                           
   869                           ; 2 bytes @ 0x16
   870  000017                     	ds	1
   871  000018                     ??_I2C_Read2ByteRegister:
   872  000018                     I2C_Write1ByteRegister@address:
   873                           	callstack 0
   874  000018                     ___fldiv@grs:
   875                           	callstack 0
   876  000018                     ___flmul@prod:
   877                           	callstack 0
   878                           
   879                           ; 4 bytes @ 0x17
   880  000018                     	ds	1
   881  000019                     I2C_Write2ByteRegister@address:
   882                           	callstack 0
   883  000019                     pad@buf:
   884                           	callstack 0
   885                           
   886                           ; 2 bytes @ 0x18
   887  000019                     	ds	2
   888  00001B                     I2C_Read2ByteRegister@address:
   889                           	callstack 0
   890  00001B                     pad@p:
   891                           	callstack 0
   892                           
   893                           ; 2 bytes @ 0x1A
   894  00001B                     	ds	1
   895  00001C                     ___fldiv@bexp:
   896                           	callstack 0
   897  00001C                     I2C_Read2ByteRegister@returnValue:
   898                           	callstack 0
   899  00001C                     ___flmul@temp:
   900                           	callstack 0
   901                           
   902                           ; 2 bytes @ 0x1B
   903  00001C                     	ds	1
   904  00001D                     ??_pad:
   905  00001D                     ___fldiv@aexp:
   906                           	callstack 0
   907                           
   908                           ; 1 bytes @ 0x1C
   909  00001D                     	ds	1
   910  00001E                     ?_VEML6030_GetValue:
   911                           	callstack 0
   912  00001E                     ?___flsub:
   913                           	callstack 0
   914  00001E                     ?_floorf:
   915                           	callstack 0
   916  00001E                     VEML6030_Init@config:
   917                           	callstack 0
   918  00001E                     pad@i:
   919                           	callstack 0
   920  00001E                     ___flge@ff1:
   921                           	callstack 0
   922  00001E                     ___flsub@b:
   923                           	callstack 0
   924  00001E                     floorf@x:
   925                           	callstack 0
   926                           
   927                           ; 4 bytes @ 0x1D
   928  00001E                     	ds	2
   929  000020                     pad@w:
   930                           	callstack 0
   931                           
   932                           ; 2 bytes @ 0x1F
   933  000020                     	ds	2
   934  000022                     ??_floorf:
   935  000022                     VEML6030_GetValue@lightDataAnz:
   936                           	callstack 0
   937  000022                     ___flge@ff2:
   938                           	callstack 0
   939  000022                     ___flsub@a:
   940                           	callstack 0
   941                           
   942                           ; 4 bytes @ 0x21
   943  000022                     	ds	4
   944  000026                     ??___flge:
   945  000026                     VEML6030_GetValue@data:
   946                           	callstack 0
   947                           
   948                           ; 2 bytes @ 0x25
   949  000026                     	ds	2
   950  000028                     floorf@m:
   951                           	callstack 0
   952                           
   953                           ; 4 bytes @ 0x27
   954  000028                     	ds	4
   955  00002C                     floorf@e:
   956                           	callstack 0
   957                           
   958                           ; 2 bytes @ 0x2B
   959  00002C                     	ds	2
   960  00002E                     floorf@u:
   961                           	callstack 0
   962                           
   963                           ; 4 bytes @ 0x2D
   964  00002E                     	ds	4
   965  000032                     ?_efgtoa:
   966                           	callstack 0
   967  000032                     efgtoa@fp:
   968                           	callstack 0
   969                           
   970                           ; 2 bytes @ 0x31
   971  000032                     	ds	2
   972  000034                     efgtoa@f:
   973                           	callstack 0
   974                           
   975                           ; 4 bytes @ 0x33
   976  000034                     	ds	4
   977  000038                     efgtoa@c:
   978                           	callstack 0
   979                           
   980                           ; 1 bytes @ 0x37
   981  000038                     	ds	1
   982  000039                     ??_efgtoa:
   983                           
   984                           ; 1 bytes @ 0x38
   985  000039                     	ds	5
   986  00003E                     ?_vfpfcnvrt:
   987                           	callstack 0
   988  00003E                     vfpfcnvrt@fp:
   989                           	callstack 0
   990                           
   991                           ; 2 bytes @ 0x3D
   992  00003E                     	ds	2
   993  000040                     vfpfcnvrt@fmt:
   994                           	callstack 0
   995                           
   996                           ; 2 bytes @ 0x3F
   997  000040                     	ds	2
   998  000042                     vfpfcnvrt@ap:
   999                           	callstack 0
  1000                           
  1001                           ; 2 bytes @ 0x41
  1002  000042                     	ds	2
  1003  000044                     ??_vfpfcnvrt:
  1004                           
  1005                           ; 1 bytes @ 0x43
  1006  000044                     	ds	4
  1007  000048                     _vfpfcnvrt$2116:
  1008                           	callstack 0
  1009                           
  1010                           ; 2 bytes @ 0x47
  1011  000048                     	ds	2
  1012  00004A                     vfpfcnvrt@f:
  1013                           	callstack 0
  1014                           
  1015                           ; 4 bytes @ 0x49
  1016  00004A                     	ds	4
  1017  00004E                     vfpfcnvrt@ct:
  1018                           	callstack 0
  1019                           
  1020                           ; 3 bytes @ 0x4D
  1021  00004E                     	ds	3
  1022  000051                     vfpfcnvrt@c:
  1023                           	callstack 0
  1024                           
  1025                           ; 1 bytes @ 0x50
  1026  000051                     	ds	1
  1027  000052                     vfprintf@cfmt:
  1028                           	callstack 0
  1029                           
  1030                           ; 2 bytes @ 0x51
  1031  000052                     	ds	2
  1032  000054                     printf@ap:
  1033                           	callstack 0
  1034                           
  1035                           ; 2 bytes @ 0x53
  1036  000054                     	ds	2
  1037                           
  1038 ;;
  1039 ;;Main: autosize = 0, tempsize = 2, incstack = 0, save=0
  1040 ;;
  1041 ;; *************** function _main *****************
  1042 ;; Defined at:
  1043 ;;		line 53 in file "main.c"
  1044 ;; Parameters:    Size  Location     Type
  1045 ;;		None
  1046 ;; Auto vars:     Size  Location     Type
  1047 ;;		None
  1048 ;; Return value:  Size  Location     Type
  1049 ;;                  1    wreg      void 
  1050 ;; Registers used:
  1051 ;;		wreg, fsr0l, fsr0h, fsr1l, fsr1h, fsr2l, fsr2h, status,2, status,0, pclath, tosl, tblptrl, tblptrh, tblptru, prodl, 
      +prodh, cstack
  1052 ;; Tracked objects:
  1053 ;;		On entry : 0/0
  1054 ;;		On exit  : 0/0
  1055 ;;		Unchanged: 0/0
  1056 ;; Data sizes:     COMRAM   BANK0   BANK1   BANK2   BANK3   BANK4   BANK5   BANK6   BANK7   BANK8   BANK9  BANK10  BANK1
      +1  BANK12  BANK13  BANK14  BANK15
  1057 ;;      Params:         0       0       0       0       0       0       0       0       0       0       0       0       
      +0       0       0       0       0
  1058 ;;      Locals:         0       0       0       0       0       0       0       0       0       0       0       0       
      +0       0       0       0       0
  1059 ;;      Temps:          0       2       0       0       0       0       0       0       0       0       0       0       
      +0       0       0       0       0
  1060 ;;      Totals:         0       2       0       0       0       0       0       0       0       0       0       0       
      +0       0       0       0       0
  1061 ;;Total ram usage:        2 bytes
  1062 ;; Hardware stack levels required when called: 14
  1063 ;; This function calls:
  1064 ;;		_SYSTEM_Initialize
  1065 ;;		_VEML6030_GetValue
  1066 ;;		_VEML6030_Init
  1067 ;;		_printf
  1068 ;; This function is called by:
  1069 ;;		Startup code after reset
  1070 ;; This function uses a non-reentrant model
  1071 ;;
  1072                           
  1073                           	psect	text0
  1074  003ED2                     __ptext0:
  1075                           	callstack 0
  1076  003ED2                     _main:
  1077                           	callstack 17
  1078  003ED2                     
  1079                           ;main.c: 55:     SYSTEM_Initialize();
  1080  003ED2  EC6D  F022         	call	_SYSTEM_Initialize	;wreg free
  1081  003ED6                     
  1082                           ;main.c: 56:     VEML6030_Init();
  1083  003ED6  EC43  F021         	call	_VEML6030_Init	;wreg free
  1084  003EDA                     
  1085                           ;main.c: 63:     (INTCONbits.GIE = 1);
  1086  003EDA  8EF2               	bsf	242,7,c	;volatile
  1087  003EDC                     
  1088                           ;main.c: 69:     (INTCONbits.PEIE = 1);
  1089  003EDC  8CF2               	bsf	242,6,c	;volatile
  1090  003EDE                     l7010:
  1091                           
  1092                           ;main.c: 75:         light = VEML6030_GetValue();
  1093  003EDE  EC48  F020         	call	_VEML6030_GetValue	;wreg free
  1094  003EE2  C01E  F0A4         	movff	?_VEML6030_GetValue,_light
  1095  003EE6  C01F  F0A5         	movff	?_VEML6030_GetValue+1,_light+1
  1096  003EEA  C020  F0A6         	movff	?_VEML6030_GetValue+2,_light+2
  1097  003EEE  C021  F0A7         	movff	?_VEML6030_GetValue+3,_light+3
  1098  003EF2                     
  1099                           ;main.c: 76:         printf("Helligkeit = %flux\r\n",light);
  1100  003EF2  0E21               	movlw	low STR_1
  1101  003EF4  0101               	movlb	1	; () banked
  1102  003EF6  6F50               	movwf	printf@fmt& (0+255),b
  1103  003EF8  0E10               	movlw	high STR_1
  1104  003EFA  6F51               	movwf	(printf@fmt+1)& (0+255),b
  1105  003EFC  C0A4  F152         	movff	_light,?_printf+2
  1106  003F00  C0A5  F153         	movff	_light+1,?_printf+3
  1107  003F04  C0A6  F154         	movff	_light+2,?_printf+4
  1108  003F08  C0A7  F155         	movff	_light+3,?_printf+5
  1109  003F0C  EC0F  F022         	call	_printf	;wreg free
  1110  003F10                     
  1111                           ;main.c: 77:         _delay((unsigned long)((5000)*(8000000/4000.0)));
  1112  003F10  0E33               	movlw	51
  1113  003F12  0100               	movlb	0	; () banked
  1114  003F14  6FF5               	movwf	(??_main+1)& (0+255),b
  1115  003F16  0EBB               	movlw	187
  1116  003F18  6FF4               	movwf	??_main& (0+255),b
  1117  003F1A  0EDF               	movlw	223
  1118  003F1C                     u7747:
  1119  003F1C  2EE8               	decfsz	wreg,f,c
  1120  003F1E  D7FE               	bra	u7747
  1121  003F20  2FF4               	decfsz	??_main& (0+255),f,b
  1122  003F22  D7FC               	bra	u7747
  1123  003F24  2FF5               	decfsz	(??_main+1)& (0+255),f,b
  1124  003F26  D7FA               	bra	u7747
  1125  003F28  F000 F000          	nop2	
  1126  003F2C  EF6F  F01F         	goto	l7010
  1127  003F30  EF58  F000         	goto	start
  1128  003F34                     __end_of_main:
  1129                           	callstack 0
  1130                           
  1131 ;; *************** function _printf *****************
  1132 ;; Defined at:
  1133 ;;		line 5 in file "C:\Program Files\Microchip\xc8\v2.32\pic\sources\c99\common\printf.c"
  1134 ;; Parameters:    Size  Location     Type
  1135 ;;  fmt             2    0[BANK1 ] PTR const unsigned char 
  1136 ;;		 -> STR_1(21), 
  1137 ;; Auto vars:     Size  Location     Type
  1138 ;;  ap              2   83[COMRAM] PTR void [1]
  1139 ;;		 -> ?_printf(2), 
  1140 ;;  ret             2    0        int 
  1141 ;; Return value:  Size  Location     Type
  1142 ;;                  2    0[BANK1 ] int 
  1143 ;; Registers used:
  1144 ;;		wreg, fsr0l, fsr0h, fsr1l, fsr1h, fsr2l, fsr2h, status,2, status,0, tblptrl, tblptrh, tblptru, prodl, prodh, cstack
  1145 ;; Tracked objects:
  1146 ;;		On entry : 0/0
  1147 ;;		On exit  : 0/0
  1148 ;;		Unchanged: 0/0
  1149 ;; Data sizes:     COMRAM   BANK0   BANK1   BANK2   BANK3   BANK4   BANK5   BANK6   BANK7   BANK8   BANK9  BANK10  BANK1
      +1  BANK12  BANK13  BANK14  BANK15
  1150 ;;      Params:         0       0       6       0       0       0       0       0       0       0       0       0       
      +0       0       0       0       0
  1151 ;;      Locals:         2       0       0       0       0       0       0       0       0       0       0       0       
      +0       0       0       0       0
  1152 ;;      Temps:          0       0       0       0       0       0       0       0       0       0       0       0       
      +0       0       0       0       0
  1153 ;;      Totals:         2       0       6       0       0       0       0       0       0       0       0       0       
      +0       0       0       0       0
  1154 ;;Total ram usage:        8 bytes
  1155 ;; Hardware stack levels used: 1
  1156 ;; Hardware stack levels required when called: 12
  1157 ;; This function calls:
  1158 ;;		_vfprintf
  1159 ;; This function is called by:
  1160 ;;		_main
  1161 ;; This function uses a non-reentrant model
  1162 ;;
  1163                           
  1164                           	psect	text1
  1165  00441E                     __ptext1:
  1166                           	callstack 0
  1167  00441E                     _printf:
  1168                           	callstack 18
  1169  00441E  0E52               	movlw	low (?_printf+2)
  1170  004420  6E54               	movwf	printf@ap^0,c
  1171  004422  0E01               	movlw	high (?_printf+2)
  1172  004424  6E55               	movwf	(printf@ap+1)^0,c
  1173  004426  0E00               	movlw	0
  1174  004428  0100               	movlb	0	; () banked
  1175  00442A  6FEE               	movwf	vfprintf@fp& (0+255),b
  1176  00442C  0E00               	movlw	0
  1177  00442E  6FEF               	movwf	(vfprintf@fp+1)& (0+255),b
  1178  004430  C150  F0F0         	movff	printf@fmt,vfprintf@fmt
  1179  004434  C151  F0F1         	movff	printf@fmt+1,vfprintf@fmt+1
  1180  004438  0E54               	movlw	low printf@ap
  1181  00443A  6FF2               	movwf	vfprintf@ap& (0+255),b
  1182  00443C  0E00               	movlw	high printf@ap
  1183  00443E  6FF3               	movwf	(vfprintf@ap+1)& (0+255),b
  1184  004440  EC37  F01F         	call	_vfprintf	;wreg free
  1185  004444  0012               	return		;funcret
  1186  004446                     __end_of_printf:
  1187                           	callstack 0
  1188                           
  1189 ;; *************** function _vfprintf *****************
  1190 ;; Defined at:
  1191 ;;		line 1390 in file "C:\Program Files\Microchip\xc8\v2.32\pic\sources\c99\common\doprnt.c"
  1192 ;; Parameters:    Size  Location     Type
  1193 ;;  fp              2   56[BANK0 ] PTR struct _IO_FILE
  1194 ;;		 -> NULL(0), 
  1195 ;;  fmt             2   58[BANK0 ] PTR const unsigned char 
  1196 ;;		 -> STR_1(21), 
  1197 ;;  ap              2   60[BANK0 ] PTR PTR void 
  1198 ;;		 -> printf@ap(2), 
  1199 ;; Auto vars:     Size  Location     Type
  1200 ;;  cfmt            2   81[COMRAM] PTR unsigned char 
  1201 ;;		 -> STR_1(21), 
  1202 ;; Return value:  Size  Location     Type
  1203 ;;                  2   56[BANK0 ] int 
  1204 ;; Registers used:
  1205 ;;		wreg, fsr0l, fsr0h, fsr1l, fsr1h, fsr2l, fsr2h, status,2, status,0, tblptrl, tblptrh, tblptru, prodl, prodh, cstack
  1206 ;; Tracked objects:
  1207 ;;		On entry : 0/0
  1208 ;;		On exit  : 0/0
  1209 ;;		Unchanged: 0/0
  1210 ;; Data sizes:     COMRAM   BANK0   BANK1   BANK2   BANK3   BANK4   BANK5   BANK6   BANK7   BANK8   BANK9  BANK10  BANK1
      +1  BANK12  BANK13  BANK14  BANK15
  1211 ;;      Params:         0       6       0       0       0       0       0       0       0       0       0       0       
      +0       0       0       0       0
  1212 ;;      Locals:         2       0       0       0       0       0       0       0       0       0       0       0       
      +0       0       0       0       0
  1213 ;;      Temps:          0       0       0       0       0       0       0       0       0       0       0       0       
      +0       0       0       0       0
  1214 ;;      Totals:         2       6       0       0       0       0       0       0       0       0       0       0       
      +0       0       0       0       0
  1215 ;;Total ram usage:        8 bytes
  1216 ;; Hardware stack levels used: 1
  1217 ;; Hardware stack levels required when called: 11
  1218 ;; This function calls:
  1219 ;;		_vfpfcnvrt
  1220 ;; This function is called by:
  1221 ;;		_printf
  1222 ;; This function uses a non-reentrant model
  1223 ;;
  1224                           
  1225                           	psect	text2
  1226  003E6E                     __ptext2:
  1227                           	callstack 0
  1228  003E6E                     _vfprintf:
  1229                           	callstack 18
  1230  003E6E                     
  1231                           ;C:\Program Files\Microchip\xc8\v2.32\pic\sources\c99\common\doprnt.c: 1390: int vfprint
      +                          f(FILE *fp, const char *fmt, va_list ap);C:\Program Files\Microchip\xc8\v2.32\pic\source
      +                          s\c99\common\doprnt.c: 1391: {;C:\Program Files\Microchip\xc8\v2.32\pic\sources\c99\comm
      +                          on\doprnt.c: 1393:     char *cfmt;;C:\Program Files\Microchip\xc8\v2.32\pic\sources\c99\
      +                          common\doprnt.c: 1395:     cfmt = (char *)fmt;
  1232  003E6E  C0F0  F052         	movff	vfprintf@fmt,vfprintf@cfmt
  1233  003E72  C0F1  F053         	movff	vfprintf@fmt+1,vfprintf@cfmt+1
  1234  003E76                     
  1235                           ;C:\Program Files\Microchip\xc8\v2.32\pic\sources\c99\common\doprnt.c: 1396:     nout = 
      +                          0;
  1236  003E76  0E00               	movlw	0
  1237  003E78  0100               	movlb	0	; () banked
  1238  003E7A  6FAC               	movwf	(_nout+1)& (0+255),b
  1239  003E7C  0E00               	movlw	0
  1240  003E7E  6FAB               	movwf	_nout& (0+255),b
  1241                           
  1242                           ;C:\Program Files\Microchip\xc8\v2.32\pic\sources\c99\common\doprnt.c: 1397:     while (
      +                          *cfmt) {
  1243  003E80  EF55  F01F         	goto	l6994
  1244  003E84                     l6992:
  1245                           
  1246                           ; BSR set to: 0
  1247                           ;C:\Program Files\Microchip\xc8\v2.32\pic\sources\c99\common\doprnt.c: 1398:         nou
      +                          t += vfpfcnvrt(fp, &cfmt, ap);
  1248  003E84  C0EE  F03E         	movff	vfprintf@fp,vfpfcnvrt@fp
  1249  003E88  C0EF  F03F         	movff	vfprintf@fp+1,vfpfcnvrt@fp+1
  1250  003E8C  0E52               	movlw	low vfprintf@cfmt
  1251  003E8E  6E40               	movwf	vfpfcnvrt@fmt^0,c
  1252  003E90  0E00               	movlw	high vfprintf@cfmt
  1253  003E92  6E41               	movwf	(vfpfcnvrt@fmt+1)^0,c
  1254  003E94  C0F2  F042         	movff	vfprintf@ap,vfpfcnvrt@ap
  1255  003E98  C0F3  F043         	movff	vfprintf@ap+1,vfpfcnvrt@ap+1
  1256  003E9C  ECBA  F014         	call	_vfpfcnvrt	;wreg free
  1257  003EA0  503E               	movf	?_vfpfcnvrt^0,w,c
  1258  003EA2  0100               	movlb	0	; () banked
  1259  003EA4  27AB               	addwf	_nout& (0+255),f,b
  1260  003EA6  503F               	movf	(?_vfpfcnvrt+1)^0,w,c
  1261  003EA8  23AC               	addwfc	(_nout+1)& (0+255),f,b
  1262  003EAA                     l6994:
  1263                           
  1264                           ; BSR set to: 0
  1265                           ;C:\Program Files\Microchip\xc8\v2.32\pic\sources\c99\common\doprnt.c: 1397:     while (
      +                          *cfmt) {
  1266  003EAA  C052  FFF6         	movff	vfprintf@cfmt,tblptrl
  1267  003EAE  C053  FFF7         	movff	vfprintf@cfmt+1,tblptrh
  1268  003EB2                     	if	1	;Program memory is < 0x10000, tblptru is always zero
  1269  003EB2  6AF8               	clrf	tblptru,c
  1270  003EB4                     	endif
  1271  003EB4                     	if	0	;tblptru may be non-zero
  1272  003EB4                     	endif
  1273  003EB4  0008               	tblrd		*
  1274  003EB6  50F5               	movf	tablat,w,c
  1275  003EB8  0900               	iorlw	0
  1276  003EBA  A4D8               	btfss	status,2,c
  1277  003EBC  EF62  F01F         	goto	u7731
  1278  003EC0  EF64  F01F         	goto	u7730
  1279  003EC4                     u7731:
  1280  003EC4  EF42  F01F         	goto	l6992
  1281  003EC8                     u7730:
  1282  003EC8                     
  1283                           ; BSR set to: 0
  1284                           ;C:\Program Files\Microchip\xc8\v2.32\pic\sources\c99\common\doprnt.c: 1400:     return 
      +                          nout;
  1285  003EC8  C0AB  F0EE         	movff	_nout,?_vfprintf
  1286  003ECC  C0AC  F0EF         	movff	_nout+1,?_vfprintf+1
  1287  003ED0                     
  1288                           ; BSR set to: 0
  1289  003ED0  0012               	return		;funcret
  1290  003ED2                     __end_of_vfprintf:
  1291                           	callstack 0
  1292                           
  1293 ;; *************** function _vfpfcnvrt *****************
  1294 ;; Defined at:
  1295 ;;		line 692 in file "C:\Program Files\Microchip\xc8\v2.32\pic\sources\c99\common\doprnt.c"
  1296 ;; Parameters:    Size  Location     Type
  1297 ;;  fp              2   61[COMRAM] PTR struct _IO_FILE
  1298 ;;		 -> NULL(0), 
  1299 ;;  fmt             2   63[COMRAM] PTR PTR unsigned char 
  1300 ;;		 -> vfprintf@cfmt(2), 
  1301 ;;  ap              2   65[COMRAM] PTR PTR void 
  1302 ;;		 -> printf@ap(2), 
  1303 ;; Auto vars:     Size  Location     Type
  1304 ;;  llu             8    0        unsigned long long 
  1305 ;;  ll              8    0        long long 
  1306 ;;  f               4   73[COMRAM] long long 
  1307 ;;  ct              3   77[COMRAM] unsigned char [3]
  1308 ;;  vp              3    0        PTR void 
  1309 ;;  cp              3    0        PTR unsigned char 
  1310 ;;  i               2    0        int 
  1311 ;;  done            2    0        int 
  1312 ;;  c               1   80[COMRAM] unsigned char 
  1313 ;; Return value:  Size  Location     Type
  1314 ;;                  2   61[COMRAM] int 
  1315 ;; Registers used:
  1316 ;;		wreg, fsr0l, fsr0h, fsr1l, fsr1h, fsr2l, fsr2h, status,2, status,0, tblptrl, tblptrh, tblptru, prodl, prodh, cstack
  1317 ;; Tracked objects:
  1318 ;;		On entry : 0/0
  1319 ;;		On exit  : 0/0
  1320 ;;		Unchanged: 0/0
  1321 ;; Data sizes:     COMRAM   BANK0   BANK1   BANK2   BANK3   BANK4   BANK5   BANK6   BANK7   BANK8   BANK9  BANK10  BANK1
      +1  BANK12  BANK13  BANK14  BANK15
  1322 ;;      Params:         6       0       0       0       0       0       0       0       0       0       0       0       
      +0       0       0       0       0
  1323 ;;      Locals:        10       0       0       0       0       0       0       0       0       0       0       0       
      +0       0       0       0       0
  1324 ;;      Temps:          4       0       0       0       0       0       0       0       0       0       0       0       
      +0       0       0       0       0
  1325 ;;      Totals:        20       0       0       0       0       0       0       0       0       0       0       0       
      +0       0       0       0       0
  1326 ;;Total ram usage:       20 bytes
  1327 ;; Hardware stack levels used: 1
  1328 ;; Hardware stack levels required when called: 10
  1329 ;; This function calls:
  1330 ;;		_efgtoa
  1331 ;;		_fputc
  1332 ;;		_isupper
  1333 ;;		_strncmp
  1334 ;;		_tolower
  1335 ;; This function is called by:
  1336 ;;		_vfprintf
  1337 ;; This function uses a non-reentrant model
  1338 ;;
  1339                           
  1340                           	psect	text3
  1341  002974                     __ptext3:
  1342                           	callstack 0
  1343  002974                     _vfpfcnvrt:
  1344                           	callstack 18
  1345  002974                     
  1346                           ;C:\Program Files\Microchip\xc8\v2.32\pic\sources\c99\common\doprnt.c: 692: static int v
      +                          fpfcnvrt(FILE *fp, char *fmt[], va_list ap);C:\Program Files\Microchip\xc8\v2.32\pic\sou
      +                          rces\c99\common\doprnt.c: 693: {;C:\Program Files\Microchip\xc8\v2.32\pic\sources\c99\co
      +                          mmon\doprnt.c: 694:     char c, *cp, ct[3];;C:\Program Files\Microchip\xc8\v2.32\pic\sou
      +                          rces\c99\common\doprnt.c: 695:     int done, i;;C:\Program Files\Microchip\xc8\v2.32\pic
      +                          \sources\c99\common\doprnt.c: 696:     long long ll;;C:\Program Files\Microchip\xc8\v2.3
      +                          2\pic\sources\c99\common\doprnt.c: 697:     unsigned long long llu;
  1347  002974  C040  FFD9         	movff	vfpfcnvrt@fmt,fsr2l
  1348  002978  C041  FFDA         	movff	vfpfcnvrt@fmt+1,fsr2h
  1349  00297C  CFDE FFF6          	movff	postinc2,tblptrl
  1350  002980  CFDD FFF7          	movff	postdec2,tblptrh
  1351  002984                     	if	1	;Program memory is < 0x10000, tblptru is always zero
  1352  002984  6AF8               	clrf	tblptru,c
  1353  002986                     	endif
  1354  002986                     	if	0	;tblptru may be non-zero
  1355  002986                     	endif
  1356  002986  0008               	tblrd		*
  1357  002988  50F5               	movf	tablat,w,c
  1358  00298A  0A25               	xorlw	37
  1359  00298C  A4D8               	btfss	status,2,c
  1360  00298E  EFCB  F014         	goto	u7641
  1361  002992  EFCD  F014         	goto	u7640
  1362  002996                     u7641:
  1363  002996  EF5B  F016         	goto	l6980
  1364  00299A                     u7640:
  1365  00299A                     
  1366                           ;C:\Program Files\Microchip\xc8\v2.32\pic\sources\c99\common\doprnt.c: 703:         ++*f
      +                          mt;
  1367  00299A  C040  FFD9         	movff	vfpfcnvrt@fmt,fsr2l
  1368  00299E  C041  FFDA         	movff	vfpfcnvrt@fmt+1,fsr2h
  1369  0029A2  2ADE               	incf	postinc2,f,c
  1370  0029A4  0E00               	movlw	0
  1371  0029A6  22DD               	addwfc	postdec2,f,c
  1372  0029A8                     
  1373                           ;C:\Program Files\Microchip\xc8\v2.32\pic\sources\c99\common\doprnt.c: 705:         flag
      +                          s = width = 0;
  1374  0029A8  0E00               	movlw	0
  1375  0029AA  0100               	movlb	0	; () banked
  1376  0029AC  6FAE               	movwf	(_width+1)& (0+255),b
  1377  0029AE  0E00               	movlw	0
  1378  0029B0  6FAD               	movwf	_width& (0+255),b
  1379  0029B2  C0AD  F0B1         	movff	_width,_flags
  1380  0029B6  C0AE  F0B2         	movff	_width+1,_flags+1
  1381  0029BA                     
  1382                           ; BSR set to: 0
  1383                           ;C:\Program Files\Microchip\xc8\v2.32\pic\sources\c99\common\doprnt.c: 706:         prec
      +                           = -1;
  1384  0029BA  69AF               	setf	_prec& (0+255),b
  1385  0029BC  69B0               	setf	(_prec+1)& (0+255),b
  1386  0029BE                     
  1387                           ; BSR set to: 0
  1388                           ;C:\Program Files\Microchip\xc8\v2.32\pic\sources\c99\common\doprnt.c: 779:         ct[0
      +                          ] = (char)tolower((int)(*fmt)[0]);
  1389  0029BE  C040  FFD9         	movff	vfpfcnvrt@fmt,fsr2l
  1390  0029C2  C041  FFDA         	movff	vfpfcnvrt@fmt+1,fsr2h
  1391  0029C6  CFDE FFF6          	movff	postinc2,tblptrl
  1392  0029CA  CFDD FFF7          	movff	postdec2,tblptrh
  1393  0029CE                     	if	1	;Program memory is < 0x10000, tblptru is always zero
  1394  0029CE  6AF8               	clrf	tblptru,c
  1395  0029D0                     	endif
  1396  0029D0                     	if	0	;tblptru may be non-zero
  1397  0029D0                     	endif
  1398  0029D0  0008               	tblrd		*
  1399  0029D2  50F5               	movf	tablat,w,c
  1400  0029D4  6E0B               	movwf	tolower@c^0,c
  1401  0029D6  6A0C               	clrf	(tolower@c+1)^0,c
  1402  0029D8  EC9A  F01F         	call	_tolower	;wreg free
  1403  0029DC  500B               	movf	?_tolower^0,w,c
  1404  0029DE  6E4E               	movwf	vfpfcnvrt@ct^0,c
  1405  0029E0                     
  1406                           ;C:\Program Files\Microchip\xc8\v2.32\pic\sources\c99\common\doprnt.c: 780:         if (
      +                          ct[0]) {
  1407  0029E0  504E               	movf	vfpfcnvrt@ct^0,w,c
  1408  0029E2  B4D8               	btfsc	status,2,c
  1409  0029E4  EFF6  F014         	goto	u7651
  1410  0029E8  EFF8  F014         	goto	u7650
  1411  0029EC                     u7651:
  1412  0029EC  EF32  F015         	goto	l6936
  1413  0029F0                     u7650:
  1414  0029F0                     
  1415                           ;C:\Program Files\Microchip\xc8\v2.32\pic\sources\c99\common\doprnt.c: 781:             
      +                          ct[1] = (char)tolower((int)(*fmt)[1]);
  1416  0029F0  C040  FFD9         	movff	vfpfcnvrt@fmt,fsr2l
  1417  0029F4  C041  FFDA         	movff	vfpfcnvrt@fmt+1,fsr2h
  1418  0029F8  CFDE F044          	movff	postinc2,??_vfpfcnvrt
  1419  0029FC  CFDD F045          	movff	postdec2,??_vfpfcnvrt+1
  1420  002A00  0E01               	movlw	1
  1421  002A02  2644               	addwf	??_vfpfcnvrt^0,f,c
  1422  002A04  0E00               	movlw	0
  1423  002A06  2245               	addwfc	(??_vfpfcnvrt+1)^0,f,c
  1424  002A08  C044  FFF6         	movff	??_vfpfcnvrt,tblptrl
  1425  002A0C  C045  FFF7         	movff	??_vfpfcnvrt+1,tblptrh
  1426  002A10                     	if	1	;Program memory is < 0x10000, tblptru is always zero
  1427  002A10  6AF8               	clrf	tblptru,c
  1428  002A12                     	endif
  1429  002A12                     	if	0	;tblptru may be non-zero
  1430  002A12                     	endif
  1431  002A12  0008               	tblrd		*
  1432  002A14  50F5               	movf	tablat,w,c
  1433  002A16  6E0B               	movwf	tolower@c^0,c
  1434  002A18  6A0C               	clrf	(tolower@c+1)^0,c
  1435  002A1A  EC9A  F01F         	call	_tolower	;wreg free
  1436  002A1E  500B               	movf	?_tolower^0,w,c
  1437  002A20  6E4F               	movwf	(vfpfcnvrt@ct+1)^0,c
  1438  002A22                     
  1439                           ;C:\Program Files\Microchip\xc8\v2.32\pic\sources\c99\common\doprnt.c: 782:             
      +                          if (ct[1]) {
  1440  002A22  504F               	movf	(vfpfcnvrt@ct+1)^0,w,c
  1441  002A24  B4D8               	btfsc	status,2,c
  1442  002A26  EF17  F015         	goto	u7661
  1443  002A2A  EF19  F015         	goto	u7660
  1444  002A2E                     u7661:
  1445  002A2E  EF32  F015         	goto	l6936
  1446  002A32                     u7660:
  1447  002A32                     
  1448                           ;C:\Program Files\Microchip\xc8\v2.32\pic\sources\c99\common\doprnt.c: 783:             
      +                              ct[2] = (char)tolower((int)(*fmt)[2]);
  1449  002A32  C040  FFD9         	movff	vfpfcnvrt@fmt,fsr2l
  1450  002A36  C041  FFDA         	movff	vfpfcnvrt@fmt+1,fsr2h
  1451  002A3A  CFDE F044          	movff	postinc2,??_vfpfcnvrt
  1452  002A3E  CFDD F045          	movff	postdec2,??_vfpfcnvrt+1
  1453  002A42  0E02               	movlw	2
  1454  002A44  2644               	addwf	??_vfpfcnvrt^0,f,c
  1455  002A46  0E00               	movlw	0
  1456  002A48  2245               	addwfc	(??_vfpfcnvrt+1)^0,f,c
  1457  002A4A  C044  FFF6         	movff	??_vfpfcnvrt,tblptrl
  1458  002A4E  C045  FFF7         	movff	??_vfpfcnvrt+1,tblptrh
  1459  002A52                     	if	1	;Program memory is < 0x10000, tblptru is always zero
  1460  002A52  6AF8               	clrf	tblptru,c
  1461  002A54                     	endif
  1462  002A54                     	if	0	;tblptru may be non-zero
  1463  002A54                     	endif
  1464  002A54  0008               	tblrd		*
  1465  002A56  50F5               	movf	tablat,w,c
  1466  002A58  6E0B               	movwf	tolower@c^0,c
  1467  002A5A  6A0C               	clrf	(tolower@c+1)^0,c
  1468  002A5C  EC9A  F01F         	call	_tolower	;wreg free
  1469  002A60  500B               	movf	?_tolower^0,w,c
  1470  002A62  6E50               	movwf	(vfpfcnvrt@ct+2)^0,c
  1471  002A64                     l6936:
  1472                           
  1473                           ;C:\Program Files\Microchip\xc8\v2.32\pic\sources\c99\common\doprnt.c: 942:         if (
      +                          ct[0] == 'f') {
  1474  002A64  0E66               	movlw	102
  1475  002A66  184E               	xorwf	vfpfcnvrt@ct^0,w,c
  1476  002A68  A4D8               	btfss	status,2,c
  1477  002A6A  EF39  F015         	goto	u7671
  1478  002A6E  EF3B  F015         	goto	u7670
  1479  002A72                     u7671:
  1480  002A72  EF7C  F015         	goto	l6948
  1481  002A76                     u7670:
  1482  002A76                     
  1483                           ;C:\Program Files\Microchip\xc8\v2.32\pic\sources\c99\common\doprnt.c: 944:             
      +                          c = (*fmt)[0];
  1484  002A76  C040  FFD9         	movff	vfpfcnvrt@fmt,fsr2l
  1485  002A7A  C041  FFDA         	movff	vfpfcnvrt@fmt+1,fsr2h
  1486  002A7E  CFDE FFF6          	movff	postinc2,tblptrl
  1487  002A82  CFDD FFF7          	movff	postdec2,tblptrh
  1488  002A86                     	if	1	;Program memory is < 0x10000, tblptru is always zero
  1489  002A86  6AF8               	clrf	tblptru,c
  1490  002A88                     	endif
  1491  002A88                     	if	0	;tblptru may be non-zero
  1492  002A88                     	endif
  1493  002A88  0008               	tblrd		*
  1494  002A8A  CFF5 F051          	movff	tablat,vfpfcnvrt@c
  1495  002A8E                     
  1496                           ;C:\Program Files\Microchip\xc8\v2.32\pic\sources\c99\common\doprnt.c: 945:             
      +                          ++*fmt;
  1497  002A8E  C040  FFD9         	movff	vfpfcnvrt@fmt,fsr2l
  1498  002A92  C041  FFDA         	movff	vfpfcnvrt@fmt+1,fsr2h
  1499  002A96  2ADE               	incf	postinc2,f,c
  1500  002A98  0E00               	movlw	0
  1501  002A9A  22DD               	addwfc	postdec2,f,c
  1502  002A9C                     
  1503                           ;C:\Program Files\Microchip\xc8\v2.32\pic\sources\c99\common\doprnt.c: 946:             
      +                          f = (long double)(*(double *)__va_arg(*(double **)ap, (double)0));
  1504  002A9C  C042  FFD9         	movff	vfpfcnvrt@ap,fsr2l
  1505  002AA0  C043  FFDA         	movff	vfpfcnvrt@ap+1,fsr2h
  1506  002AA4  CFDF F044          	movff	indf2,??_vfpfcnvrt
  1507  002AA8  0E04               	movlw	4
  1508  002AAA  26DE               	addwf	postinc2,f,c
  1509  002AAC  CFDF F045          	movff	indf2,??_vfpfcnvrt+1
  1510  002AB0  0E00               	movlw	0
  1511  002AB2  22DD               	addwfc	postdec2,f,c
  1512  002AB4  C044  FFD9         	movff	??_vfpfcnvrt,fsr2l
  1513  002AB8  C045  FFDA         	movff	??_vfpfcnvrt+1,fsr2h
  1514  002ABC  CFDE F04A          	movff	postinc2,vfpfcnvrt@f
  1515  002AC0  CFDE F04B          	movff	postinc2,vfpfcnvrt@f+1
  1516  002AC4  CFDE F04C          	movff	postinc2,vfpfcnvrt@f+2
  1517  002AC8  CFDE F04D          	movff	postinc2,vfpfcnvrt@f+3
  1518  002ACC                     
  1519                           ;C:\Program Files\Microchip\xc8\v2.32\pic\sources\c99\common\doprnt.c: 948:             
      +                          return efgtoa(fp, f, c);
  1520  002ACC  C03E  F032         	movff	vfpfcnvrt@fp,efgtoa@fp
  1521  002AD0  C03F  F033         	movff	vfpfcnvrt@fp+1,efgtoa@fp+1
  1522  002AD4  C04A  F034         	movff	vfpfcnvrt@f,efgtoa@f
  1523  002AD8  C04B  F035         	movff	vfpfcnvrt@f+1,efgtoa@f+1
  1524  002ADC  C04C  F036         	movff	vfpfcnvrt@f+2,efgtoa@f+2
  1525  002AE0  C04D  F037         	movff	vfpfcnvrt@f+3,efgtoa@f+3
  1526  002AE4  C051  F038         	movff	vfpfcnvrt@c,efgtoa@c
  1527  002AE8  EC25  F008         	call	_efgtoa	;wreg free
  1528  002AEC  C032  F03E         	movff	?_efgtoa,?_vfpfcnvrt
  1529  002AF0  C033  F03F         	movff	?_efgtoa+1,?_vfpfcnvrt+1
  1530  002AF4  EF77  F016         	goto	l1538
  1531  002AF8                     l6948:
  1532                           
  1533                           ;C:\Program Files\Microchip\xc8\v2.32\pic\sources\c99\common\doprnt.c: 950:         if (
      +                          !strncmp(ct, "lf", ((sizeof("lf")/sizeof("lf"[0]))-1))) {
  1534  002AF8  0E4E               	movlw	low vfpfcnvrt@ct
  1535  002AFA  6E05               	movwf	strncmp@_l^0,c
  1536  002AFC  0E00               	movlw	high vfpfcnvrt@ct
  1537  002AFE  6E06               	movwf	(strncmp@_l+1)^0,c
  1538  002B00  0E46               	movlw	low STR_10
  1539  002B02  6E07               	movwf	strncmp@_r^0,c
  1540  002B04  0E10               	movlw	high STR_10
  1541  002B06  6E08               	movwf	(strncmp@_r+1)^0,c
  1542  002B08  0E00               	movlw	0
  1543  002B0A  6E0A               	movwf	(strncmp@n+1)^0,c
  1544  002B0C  0E02               	movlw	2
  1545  002B0E  6E09               	movwf	strncmp@n^0,c
  1546  002B10  ECDF  F019         	call	_strncmp	;wreg free
  1547  002B14  5005               	movf	?_strncmp^0,w,c
  1548  002B16  1006               	iorwf	(?_strncmp+1)^0,w,c
  1549  002B18  A4D8               	btfss	status,2,c
  1550  002B1A  EF91  F015         	goto	u7681
  1551  002B1E  EF93  F015         	goto	u7680
  1552  002B22                     u7681:
  1553  002B22  EF24  F016         	goto	l6964
  1554  002B26                     u7680:
  1555  002B26                     
  1556                           ;C:\Program Files\Microchip\xc8\v2.32\pic\sources\c99\common\doprnt.c: 953:             
      +                          if ((0 ? isupper((int)(*fmt)[0]) : ((unsigned)((int)(*fmt)[0])-'A') < 26)) {
  1557  002B26  C040  FFD9         	movff	vfpfcnvrt@fmt,fsr2l
  1558  002B2A  C041  FFDA         	movff	vfpfcnvrt@fmt+1,fsr2h
  1559  002B2E  CFDE F044          	movff	postinc2,??_vfpfcnvrt
  1560  002B32  CFDD F045          	movff	postdec2,??_vfpfcnvrt+1
  1561  002B36  0E01               	movlw	1
  1562  002B38  2644               	addwf	??_vfpfcnvrt^0,f,c
  1563  002B3A  0E00               	movlw	0
  1564  002B3C  2245               	addwfc	(??_vfpfcnvrt+1)^0,f,c
  1565  002B3E  C044  FFF6         	movff	??_vfpfcnvrt,tblptrl
  1566  002B42  C045  FFF7         	movff	??_vfpfcnvrt+1,tblptrh
  1567  002B46                     	if	1	;Program memory is < 0x10000, tblptru is always zero
  1568  002B46  6AF8               	clrf	tblptru,c
  1569  002B48                     	endif
  1570  002B48                     	if	0	;tblptru may be non-zero
  1571  002B48                     	endif
  1572  002B48  0008               	tblrd		*
  1573  002B4A  CFF5 F051          	movff	tablat,vfpfcnvrt@c
  1574  002B4E  0EBF               	movlw	191
  1575  002B50  6E44               	movwf	??_vfpfcnvrt^0,c
  1576  002B52  0EFF               	movlw	255
  1577  002B54  6E45               	movwf	(??_vfpfcnvrt+1)^0,c
  1578  002B56  C040  FFD9         	movff	vfpfcnvrt@fmt,fsr2l
  1579  002B5A  C041  FFDA         	movff	vfpfcnvrt@fmt+1,fsr2h
  1580  002B5E  CFDE FFF6          	movff	postinc2,tblptrl
  1581  002B62  CFDD FFF7          	movff	postdec2,tblptrh
  1582  002B66                     	if	1	;Program memory is < 0x10000, tblptru is always zero
  1583  002B66  6AF8               	clrf	tblptru,c
  1584  002B68                     	endif
  1585  002B68                     	if	0	;tblptru may be non-zero
  1586  002B68                     	endif
  1587  002B68  0008               	tblrd		*
  1588  002B6A  50F5               	movf	tablat,w,c
  1589  002B6C  6E46               	movwf	(??_vfpfcnvrt+2)^0,c
  1590  002B6E  6A47               	clrf	(??_vfpfcnvrt+3)^0,c
  1591  002B70  5044               	movf	??_vfpfcnvrt^0,w,c
  1592  002B72  2646               	addwf	(??_vfpfcnvrt+2)^0,f,c
  1593  002B74  5045               	movf	(??_vfpfcnvrt+1)^0,w,c
  1594  002B76  2247               	addwfc	(??_vfpfcnvrt+3)^0,f,c
  1595  002B78  5047               	movf	(??_vfpfcnvrt+3)^0,w,c
  1596  002B7A  E10A               	bnz	u7690
  1597  002B7C  0E1A               	movlw	26
  1598  002B7E  5C46               	subwf	(??_vfpfcnvrt+2)^0,w,c
  1599  002B80  A0D8               	btfss	status,0,c
  1600  002B82  EFC5  F015         	goto	u7691
  1601  002B86  EFC8  F015         	goto	u7690
  1602  002B8A                     u7691:
  1603  002B8A  0E01               	movlw	1
  1604  002B8C  EFC9  F015         	goto	u7700
  1605  002B90                     u7690:
  1606  002B90  0E00               	movlw	0
  1607  002B92                     u7700:
  1608  002B92  6E48               	movwf	_vfpfcnvrt$2116^0,c
  1609  002B94  6A49               	clrf	(_vfpfcnvrt$2116+1)^0,c
  1610  002B96  5048               	movf	_vfpfcnvrt$2116^0,w,c
  1611  002B98  1049               	iorwf	(_vfpfcnvrt$2116+1)^0,w,c
  1612  002B9A  B4D8               	btfsc	status,2,c
  1613  002B9C  EFD2  F015         	goto	u7711
  1614  002BA0  EFD4  F015         	goto	u7710
  1615  002BA4                     u7711:
  1616  002BA4  EFEE  F015         	goto	l6958
  1617  002BA8                     u7710:
  1618  002BA8                     
  1619                           ;C:\Program Files\Microchip\xc8\v2.32\pic\sources\c99\common\doprnt.c: 954:             
      +                              f = (*(long double *)__va_arg(*(long double **)ap, (long double)0));
  1620  002BA8  C042  FFD9         	movff	vfpfcnvrt@ap,fsr2l
  1621  002BAC  C043  FFDA         	movff	vfpfcnvrt@ap+1,fsr2h
  1622  002BB0  CFDF F044          	movff	indf2,??_vfpfcnvrt
  1623  002BB4  0E04               	movlw	4
  1624  002BB6  26DE               	addwf	postinc2,f,c
  1625  002BB8  CFDF F045          	movff	indf2,??_vfpfcnvrt+1
  1626  002BBC  0E00               	movlw	0
  1627  002BBE  22DD               	addwfc	postdec2,f,c
  1628  002BC0  C044  FFD9         	movff	??_vfpfcnvrt,fsr2l
  1629  002BC4  C045  FFDA         	movff	??_vfpfcnvrt+1,fsr2h
  1630  002BC8  CFDE F04A          	movff	postinc2,vfpfcnvrt@f
  1631  002BCC  CFDE F04B          	movff	postinc2,vfpfcnvrt@f+1
  1632  002BD0  CFDE F04C          	movff	postinc2,vfpfcnvrt@f+2
  1633  002BD4  CFDE F04D          	movff	postinc2,vfpfcnvrt@f+3
  1634                           
  1635                           ;C:\Program Files\Microchip\xc8\v2.32\pic\sources\c99\common\doprnt.c: 955:             
      +                          } else {
  1636  002BD8  EF06  F016         	goto	l1545
  1637  002BDC                     l6958:
  1638                           
  1639                           ;C:\Program Files\Microchip\xc8\v2.32\pic\sources\c99\common\doprnt.c: 956:             
      +                              f = (long double)(*(double *)__va_arg(*(double **)ap, (double)0));
  1640  002BDC  C042  FFD9         	movff	vfpfcnvrt@ap,fsr2l
  1641  002BE0  C043  FFDA         	movff	vfpfcnvrt@ap+1,fsr2h
  1642  002BE4  CFDF F044          	movff	indf2,??_vfpfcnvrt
  1643  002BE8  0E04               	movlw	4
  1644  002BEA  26DE               	addwf	postinc2,f,c
  1645  002BEC  CFDF F045          	movff	indf2,??_vfpfcnvrt+1
  1646  002BF0  0E00               	movlw	0
  1647  002BF2  22DD               	addwfc	postdec2,f,c
  1648  002BF4  C044  FFD9         	movff	??_vfpfcnvrt,fsr2l
  1649  002BF8  C045  FFDA         	movff	??_vfpfcnvrt+1,fsr2h
  1650  002BFC  CFDE F04A          	movff	postinc2,vfpfcnvrt@f
  1651  002C00  CFDE F04B          	movff	postinc2,vfpfcnvrt@f+1
  1652  002C04  CFDE F04C          	movff	postinc2,vfpfcnvrt@f+2
  1653  002C08  CFDE F04D          	movff	postinc2,vfpfcnvrt@f+3
  1654  002C0C                     l1545:
  1655                           
  1656                           ;C:\Program Files\Microchip\xc8\v2.32\pic\sources\c99\common\doprnt.c: 958:             
      +                          *fmt += ((sizeof("lf")/sizeof("lf"[0]))-1);
  1657  002C0C  0E02               	movlw	2
  1658  002C0E  C040  FFD9         	movff	vfpfcnvrt@fmt,fsr2l
  1659  002C12  C041  FFDA         	movff	vfpfcnvrt@fmt+1,fsr2h
  1660  002C16  26DE               	addwf	postinc2,f,c
  1661  002C18  0E00               	movlw	0
  1662  002C1A  22DD               	addwfc	postdec2,f,c
  1663  002C1C                     
  1664                           ;C:\Program Files\Microchip\xc8\v2.32\pic\sources\c99\common\doprnt.c: 960:             
      +                          return efgtoa(fp, f, c);
  1665  002C1C  C03E  F032         	movff	vfpfcnvrt@fp,efgtoa@fp
  1666  002C20  C03F  F033         	movff	vfpfcnvrt@fp+1,efgtoa@fp+1
  1667  002C24  C04A  F034         	movff	vfpfcnvrt@f,efgtoa@f
  1668  002C28  C04B  F035         	movff	vfpfcnvrt@f+1,efgtoa@f+1
  1669  002C2C  C04C  F036         	movff	vfpfcnvrt@f+2,efgtoa@f+2
  1670  002C30  C04D  F037         	movff	vfpfcnvrt@f+3,efgtoa@f+3
  1671  002C34  C051  F038         	movff	vfpfcnvrt@c,efgtoa@c
  1672  002C38  EC25  F008         	call	_efgtoa	;wreg free
  1673  002C3C  C032  F03E         	movff	?_efgtoa,?_vfpfcnvrt
  1674  002C40  C033  F03F         	movff	?_efgtoa+1,?_vfpfcnvrt+1
  1675  002C44  EF77  F016         	goto	l1538
  1676  002C48                     l6964:
  1677                           
  1678                           ;C:\Program Files\Microchip\xc8\v2.32\pic\sources\c99\common\doprnt.c: 1372:         if 
      +                          ((*fmt)[0] == '%') {
  1679  002C48  C040  FFD9         	movff	vfpfcnvrt@fmt,fsr2l
  1680  002C4C  C041  FFDA         	movff	vfpfcnvrt@fmt+1,fsr2h
  1681  002C50  CFDE FFF6          	movff	postinc2,tblptrl
  1682  002C54  CFDD FFF7          	movff	postdec2,tblptrh
  1683  002C58                     	if	1	;Program memory is < 0x10000, tblptru is always zero
  1684  002C58  6AF8               	clrf	tblptru,c
  1685  002C5A                     	endif
  1686  002C5A                     	if	0	;tblptru may be non-zero
  1687  002C5A                     	endif
  1688  002C5A  0008               	tblrd		*
  1689  002C5C  50F5               	movf	tablat,w,c
  1690  002C5E  0A25               	xorlw	37
  1691  002C60  A4D8               	btfss	status,2,c
  1692  002C62  EF35  F016         	goto	u7721
  1693  002C66  EF37  F016         	goto	u7720
  1694  002C6A                     u7721:
  1695  002C6A  EF4E  F016         	goto	l6974
  1696  002C6E                     u7720:
  1697  002C6E                     
  1698                           ;C:\Program Files\Microchip\xc8\v2.32\pic\sources\c99\common\doprnt.c: 1373:            
      +                           ++*fmt;
  1699  002C6E  C040  FFD9         	movff	vfpfcnvrt@fmt,fsr2l
  1700  002C72  C041  FFDA         	movff	vfpfcnvrt@fmt+1,fsr2h
  1701  002C76  2ADE               	incf	postinc2,f,c
  1702  002C78  0E00               	movlw	0
  1703  002C7A  22DD               	addwfc	postdec2,f,c
  1704  002C7C                     
  1705                           ;C:\Program Files\Microchip\xc8\v2.32\pic\sources\c99\common\doprnt.c: 1374:            
      +                           fputc((int)'%', fp);
  1706  002C7C  0E00               	movlw	0
  1707  002C7E  6E08               	movwf	(fputc@c+1)^0,c
  1708  002C80  0E25               	movlw	37
  1709  002C82  6E07               	movwf	fputc@c^0,c
  1710  002C84  C03E  F009         	movff	vfpfcnvrt@fp,fputc@fp
  1711  002C88  C03F  F00A         	movff	vfpfcnvrt@fp+1,fputc@fp+1
  1712  002C8C  ECD3  F01C         	call	_fputc	;wreg free
  1713  002C90                     l6970:
  1714                           
  1715                           ;C:\Program Files\Microchip\xc8\v2.32\pic\sources\c99\common\doprnt.c: 1375:            
      +                           return 1;
  1716  002C90  0E00               	movlw	0
  1717  002C92  6E3F               	movwf	(?_vfpfcnvrt+1)^0,c
  1718  002C94  0E01               	movlw	1
  1719  002C96  6E3E               	movwf	?_vfpfcnvrt^0,c
  1720  002C98  EF77  F016         	goto	l1538
  1721  002C9C                     l6974:
  1722                           
  1723                           ;C:\Program Files\Microchip\xc8\v2.32\pic\sources\c99\common\doprnt.c: 1379:         ++*
      +                          fmt;
  1724  002C9C  C040  FFD9         	movff	vfpfcnvrt@fmt,fsr2l
  1725  002CA0  C041  FFDA         	movff	vfpfcnvrt@fmt+1,fsr2h
  1726  002CA4  2ADE               	incf	postinc2,f,c
  1727  002CA6  0E00               	movlw	0
  1728  002CA8  22DD               	addwfc	postdec2,f,c
  1729  002CAA                     
  1730                           ;C:\Program Files\Microchip\xc8\v2.32\pic\sources\c99\common\doprnt.c: 1380:         ret
      +                          urn 0;
  1731  002CAA  0E00               	movlw	0
  1732  002CAC  6E3F               	movwf	(?_vfpfcnvrt+1)^0,c
  1733  002CAE  0E00               	movlw	0
  1734  002CB0  6E3E               	movwf	?_vfpfcnvrt^0,c
  1735  002CB2  EF77  F016         	goto	l1538
  1736  002CB6                     l6980:
  1737                           
  1738                           ;C:\Program Files\Microchip\xc8\v2.32\pic\sources\c99\common\doprnt.c: 1384:     fputc((
      +                          int)(*fmt)[0], fp);
  1739  002CB6  C040  FFD9         	movff	vfpfcnvrt@fmt,fsr2l
  1740  002CBA  C041  FFDA         	movff	vfpfcnvrt@fmt+1,fsr2h
  1741  002CBE  CFDE FFF6          	movff	postinc2,tblptrl
  1742  002CC2  CFDD FFF7          	movff	postdec2,tblptrh
  1743  002CC6                     	if	1	;Program memory is < 0x10000, tblptru is always zero
  1744  002CC6  6AF8               	clrf	tblptru,c
  1745  002CC8                     	endif
  1746  002CC8                     	if	0	;tblptru may be non-zero
  1747  002CC8                     	endif
  1748  002CC8  0008               	tblrd		*
  1749  002CCA  50F5               	movf	tablat,w,c
  1750  002CCC  6E07               	movwf	fputc@c^0,c
  1751  002CCE  6A08               	clrf	(fputc@c+1)^0,c
  1752  002CD0  C03E  F009         	movff	vfpfcnvrt@fp,fputc@fp
  1753  002CD4  C03F  F00A         	movff	vfpfcnvrt@fp+1,fputc@fp+1
  1754  002CD8  ECD3  F01C         	call	_fputc	;wreg free
  1755  002CDC                     
  1756                           ;C:\Program Files\Microchip\xc8\v2.32\pic\sources\c99\common\doprnt.c: 1385:     ++*fmt;
  1757  002CDC  C040  FFD9         	movff	vfpfcnvrt@fmt,fsr2l
  1758  002CE0  C041  FFDA         	movff	vfpfcnvrt@fmt+1,fsr2h
  1759  002CE4  2ADE               	incf	postinc2,f,c
  1760  002CE6  0E00               	movlw	0
  1761  002CE8  22DD               	addwfc	postdec2,f,c
  1762  002CEA  EF48  F016         	goto	l6970
  1763  002CEE                     l1538:
  1764  002CEE  0012               	return		;funcret
  1765  002CF0                     __end_of_vfpfcnvrt:
  1766                           	callstack 0
  1767                           
  1768 ;; *************** function _strncmp *****************
  1769 ;; Defined at:
  1770 ;;		line 3 in file "C:\Program Files\Microchip\xc8\v2.32\pic\sources\c99\common\strncmp.c"
  1771 ;; Parameters:    Size  Location     Type
  1772 ;;  _l              2    4[COMRAM] PTR const unsigned char 
  1773 ;;		 -> vfpfcnvrt@ct(3), 
  1774 ;;  _r              2    6[COMRAM] PTR const unsigned char 
  1775 ;;		 -> STR_12(3), 
  1776 ;;  n               2    8[COMRAM] unsigned int 
  1777 ;; Auto vars:     Size  Location     Type
  1778 ;;  r               2   13[COMRAM] PTR const unsigned char 
  1779 ;;		 -> STR_12(3), 
  1780 ;;  l               2   11[COMRAM] PTR const unsigned char 
  1781 ;;		 -> vfpfcnvrt@ct(3), 
  1782 ;; Return value:  Size  Location     Type
  1783 ;;                  2    4[COMRAM] int 
  1784 ;; Registers used:
  1785 ;;		wreg, fsr2l, fsr2h, status,2, status,0, tblptrl, tblptrh, tblptru
  1786 ;; Tracked objects:
  1787 ;;		On entry : 0/0
  1788 ;;		On exit  : 0/0
  1789 ;;		Unchanged: 0/0
  1790 ;; Data sizes:     COMRAM   BANK0   BANK1   BANK2   BANK3   BANK4   BANK5   BANK6   BANK7   BANK8   BANK9  BANK10  BANK1
      +1  BANK12  BANK13  BANK14  BANK15
  1791 ;;      Params:         6       0       0       0       0       0       0       0       0       0       0       0       
      +0       0       0       0       0
  1792 ;;      Locals:         4       0       0       0       0       0       0       0       0       0       0       0       
      +0       0       0       0       0
  1793 ;;      Temps:          1       0       0       0       0       0       0       0       0       0       0       0       
      +0       0       0       0       0
  1794 ;;      Totals:        11       0       0       0       0       0       0       0       0       0       0       0       
      +0       0       0       0       0
  1795 ;;Total ram usage:       11 bytes
  1796 ;; Hardware stack levels used: 1
  1797 ;; Hardware stack levels required when called: 4
  1798 ;; This function calls:
  1799 ;;		Nothing
  1800 ;; This function is called by:
  1801 ;;		_vfpfcnvrt
  1802 ;; This function uses a non-reentrant model
  1803 ;;
  1804                           
  1805                           	psect	text4
  1806  0033BE                     __ptext4:
  1807                           	callstack 0
  1808  0033BE                     _strncmp:
  1809                           	callstack 23
  1810  0033BE  C005  F00C         	movff	strncmp@_l,strncmp@l
  1811  0033C2  C006  F00D         	movff	strncmp@_l+1,strncmp@l+1
  1812  0033C6  C007  F00E         	movff	strncmp@_r,strncmp@r
  1813  0033CA  C008  F00F         	movff	strncmp@_r+1,strncmp@r+1
  1814  0033CE  0609               	decf	strncmp@n^0,f,c
  1815  0033D0  A0D8               	btfss	status,0,c
  1816  0033D2  060A               	decf	(strncmp@n+1)^0,f,c
  1817  0033D4  2809               	incf	strncmp@n^0,w,c
  1818  0033D6  E106               	bnz	u7591
  1819  0033D8  280A               	incf	(strncmp@n+1)^0,w,c
  1820  0033DA  A4D8               	btfss	status,2,c
  1821  0033DC  EFF2  F019         	goto	u7591
  1822  0033E0  EFF4  F019         	goto	u7590
  1823  0033E4                     u7591:
  1824  0033E4  EF01  F01A         	goto	l6906
  1825  0033E8                     u7590:
  1826  0033E8  0E00               	movlw	0
  1827  0033EA  6E06               	movwf	(?_strncmp+1)^0,c
  1828  0033EC  0E00               	movlw	0
  1829  0033EE  6E05               	movwf	?_strncmp^0,c
  1830  0033F0  EF4C  F01A         	goto	l1618
  1831  0033F4                     l6904:
  1832  0033F4  4A0C               	infsnz	strncmp@l^0,f,c
  1833  0033F6  2A0D               	incf	(strncmp@l+1)^0,f,c
  1834  0033F8  4A0E               	infsnz	strncmp@r^0,f,c
  1835  0033FA  2A0F               	incf	(strncmp@r+1)^0,f,c
  1836  0033FC  0609               	decf	strncmp@n^0,f,c
  1837  0033FE  A0D8               	btfss	status,0,c
  1838  003400  060A               	decf	(strncmp@n+1)^0,f,c
  1839  003402                     l6906:
  1840  003402  C00C  FFD9         	movff	strncmp@l,fsr2l
  1841  003406  C00D  FFDA         	movff	strncmp@l+1,fsr2h
  1842  00340A  50DF               	movf	indf2,w,c
  1843  00340C  B4D8               	btfsc	status,2,c
  1844  00340E  EF0B  F01A         	goto	u7601
  1845  003412  EF0D  F01A         	goto	u7600
  1846  003416                     u7601:
  1847  003416  EF3A  F01A         	goto	l6914
  1848  00341A                     u7600:
  1849  00341A  C00E  FFF6         	movff	strncmp@r,tblptrl
  1850  00341E  C00F  FFF7         	movff	strncmp@r+1,tblptrh
  1851  003422                     	if	1	;Program memory is < 0x10000, tblptru is always zero
  1852  003422  6AF8               	clrf	tblptru,c
  1853  003424                     	endif
  1854  003424                     	if	0	;tblptru may be non-zero
  1855  003424                     	endif
  1856  003424  0008               	tblrd		*
  1857  003426  50F5               	movf	tablat,w,c
  1858  003428  0900               	iorlw	0
  1859  00342A  B4D8               	btfsc	status,2,c
  1860  00342C  EF1A  F01A         	goto	u7611
  1861  003430  EF1C  F01A         	goto	u7610
  1862  003434                     u7611:
  1863  003434  EF3A  F01A         	goto	l6914
  1864  003438                     u7610:
  1865  003438  5009               	movf	strncmp@n^0,w,c
  1866  00343A  100A               	iorwf	(strncmp@n+1)^0,w,c
  1867  00343C  B4D8               	btfsc	status,2,c
  1868  00343E  EF23  F01A         	goto	u7621
  1869  003442  EF25  F01A         	goto	u7620
  1870  003446                     u7621:
  1871  003446  EF3A  F01A         	goto	l6914
  1872  00344A                     u7620:
  1873  00344A  C00C  FFD9         	movff	strncmp@l,fsr2l
  1874  00344E  C00D  FFDA         	movff	strncmp@l+1,fsr2h
  1875  003452  50DF               	movf	indf2,w,c
  1876  003454  6E0B               	movwf	??_strncmp^0,c
  1877  003456  C00E  FFF6         	movff	strncmp@r,tblptrl
  1878  00345A  C00F  FFF7         	movff	strncmp@r+1,tblptrh
  1879  00345E                     	if	1	;Program memory is < 0x10000, tblptru is always zero
  1880  00345E  6AF8               	clrf	tblptru,c
  1881  003460                     	endif
  1882  003460                     	if	0	;tblptru may be non-zero
  1883  003460                     	endif
  1884  003460  0008               	tblrd		*
  1885  003462  50F5               	movf	tablat,w,c
  1886  003464  180B               	xorwf	??_strncmp^0,w,c
  1887  003466  B4D8               	btfsc	status,2,c
  1888  003468  EF38  F01A         	goto	u7631
  1889  00346C  EF3A  F01A         	goto	u7630
  1890  003470                     u7631:
  1891  003470  EFFA  F019         	goto	l6904
  1892  003474                     u7630:
  1893  003474                     l6914:
  1894  003474  C00C  FFD9         	movff	strncmp@l,fsr2l
  1895  003478  C00D  FFDA         	movff	strncmp@l+1,fsr2h
  1896  00347C  50DF               	movf	indf2,w,c
  1897  00347E  6E0B               	movwf	??_strncmp^0,c
  1898  003480  C00E  FFF6         	movff	strncmp@r,tblptrl
  1899  003484  C00F  FFF7         	movff	strncmp@r+1,tblptrh
  1900  003488                     	if	1	;Program memory is < 0x10000, tblptru is always zero
  1901  003488  6AF8               	clrf	tblptru,c
  1902  00348A                     	endif
  1903  00348A                     	if	0	;tblptru may be non-zero
  1904  00348A                     	endif
  1905  00348A  0008               	tblrd		*
  1906  00348C  50F5               	movf	tablat,w,c
  1907  00348E  5C0B               	subwf	??_strncmp^0,w,c
  1908  003490  6E05               	movwf	?_strncmp^0,c
  1909  003492  6A06               	clrf	(?_strncmp+1)^0,c
  1910  003494  A0D8               	btfss	status,0,c
  1911  003496  0606               	decf	(?_strncmp+1)^0,f,c
  1912  003498                     l1618:
  1913  003498  0012               	return		;funcret
  1914  00349A                     __end_of_strncmp:
  1915                           	callstack 0
  1916                           
  1917 ;; *************** function _efgtoa *****************
  1918 ;; Defined at:
  1919 ;;		line 332 in file "C:\Program Files\Microchip\xc8\v2.32\pic\sources\c99\common\doprnt.c"
  1920 ;; Parameters:    Size  Location     Type
  1921 ;;  fp              2   49[COMRAM] PTR struct _IO_FILE
  1922 ;;		 -> NULL(0), 
  1923 ;;  f               4   51[COMRAM] PTR struct _IO_FILE
  1924 ;;  c               1   55[COMRAM] unsigned char 
  1925 ;; Auto vars:     Size  Location     Type
  1926 ;;  u               4   52[BANK0 ] unsigned char 
  1927 ;;  g               4   44[BANK0 ] unsigned char 
  1928 ;;  l               4   38[BANK0 ] unsigned char 
  1929 ;;  h               4   34[BANK0 ] unsigned char 
  1930 ;;  ou              4   20[BANK0 ] unsigned char 
  1931 ;;  n               2   50[BANK0 ] int 
  1932 ;;  e               2   48[BANK0 ] int 
  1933 ;;  i               2   42[BANK0 ] int 
  1934 ;;  w               2   30[BANK0 ] int 
  1935 ;;  p               2   28[BANK0 ] int 
  1936 ;;  sign            2   26[BANK0 ] int 
  1937 ;;  d               2   24[BANK0 ] int 
  1938 ;;  m               2   18[BANK0 ] int 
  1939 ;;  ne              2   16[BANK0 ] int 
  1940 ;;  pp              2   14[BANK0 ] int 
  1941 ;;  t               2   12[BANK0 ] int 
  1942 ;;  mode            1   33[BANK0 ] unsigned char 
  1943 ;;  nmode           1   32[BANK0 ] unsigned char 
  1944 ;; Return value:  Size  Location     Type
  1945 ;;                  2   49[COMRAM] int 
  1946 ;; Registers used:
  1947 ;;		wreg, fsr0l, fsr0h, fsr1l, fsr1h, fsr2l, fsr2h, status,2, status,0, tblptrl, tblptrh, tblptru, prodl, prodh, cstack
  1948 ;; Tracked objects:
  1949 ;;		On entry : 0/0
  1950 ;;		On exit  : 0/0
  1951 ;;		Unchanged: 0/0
  1952 ;; Data sizes:     COMRAM   BANK0   BANK1   BANK2   BANK3   BANK4   BANK5   BANK6   BANK7   BANK8   BANK9  BANK10  BANK1
      +1  BANK12  BANK13  BANK14  BANK15
  1953 ;;      Params:         7       0       0       0       0       0       0       0       0       0       0       0       
      +0       0       0       0       0
  1954 ;;      Locals:         0      56       0       0       0       0       0       0       0       0       0       0       
      +0       0       0       0       0
  1955 ;;      Temps:          5       0       0       0       0       0       0       0       0       0       0       0       
      +0       0       0       0       0
  1956 ;;      Totals:        12      56       0       0       0       0       0       0       0       0       0       0       
      +0       0       0       0       0
  1957 ;;Total ram usage:       68 bytes
  1958 ;; Hardware stack levels used: 1
  1959 ;; Hardware stack levels required when called: 9
  1960 ;; This function calls:
  1961 ;;		___awdiv
  1962 ;;		___awmod
  1963 ;;		___fladd
  1964 ;;		___fldiv
  1965 ;;		___fleq
  1966 ;;		___flge
  1967 ;;		___flmul
  1968 ;;		___flneg
  1969 ;;		___flsub
  1970 ;;		___fltol
  1971 ;;		___fpclassifyf
  1972 ;;		_floorf
  1973 ;;		_isupper
  1974 ;;		_pad
  1975 ;;		_strcpy
  1976 ;;		_tolower
  1977 ;; This function is called by:
  1978 ;;		_vfpfcnvrt
  1979 ;; This function uses a non-reentrant model
  1980 ;;
  1981                           
  1982                           	psect	text5
  1983  00104A                     __ptext5:
  1984                           	callstack 0
  1985  00104A                     _efgtoa:
  1986                           	callstack 18
  1987  00104A                     
  1988                           ;C:\Program Files\Microchip\xc8\v2.32\pic\sources\c99\common\doprnt.c: 332: static int e
      +                          fgtoa(FILE *fp, long double f, char c);C:\Program Files\Microchip\xc8\v2.32\pic\sources\
      +                          c99\common\doprnt.c: 333: {;C:\Program Files\Microchip\xc8\v2.32\pic\sources\c99\common\
      +                          doprnt.c: 334:     char mode, nmode;;C:\Program Files\Microchip\xc8\v2.32\pic\sources\c9
      +                          9\common\doprnt.c: 335:     int d, e, i, m, n, ne, p, pp, sign, t, w;;C:\Program Files\M
      +                          icrochip\xc8\v2.32\pic\sources\c99\common\doprnt.c: 336:     long double g, h, l, ou, u;
  1989  00104A  0E00               	movlw	0
  1990  00104C  0100               	movlb	0	; () banked
  1991  00104E  6FD1               	movwf	(efgtoa@sign+1)& (0+255),b
  1992  001050  0E00               	movlw	0
  1993  001052  6FD0               	movwf	efgtoa@sign& (0+255),b
  1994  001054                     
  1995                           ; BSR set to: 0
  1996                           ;C:\Program Files\Microchip\xc8\v2.32\pic\sources\c99\common\doprnt.c: 340:     g = f;
  1997  001054  C034  F0E2         	movff	efgtoa@f,efgtoa@g
  1998  001058  C035  F0E3         	movff	efgtoa@f+1,efgtoa@g+1
  1999  00105C  C036  F0E4         	movff	efgtoa@f+2,efgtoa@g+2
  2000  001060  C037  F0E5         	movff	efgtoa@f+3,efgtoa@g+3
  2001  001064                     
  2002                           ; BSR set to: 0
  2003                           ;C:\Program Files\Microchip\xc8\v2.32\pic\sources\c99\common\doprnt.c: 341:     if (g < 
      +                          0.0) {
  2004  001064  BFE5               	btfsc	(efgtoa@g+3)& (0+255),7,b
  2005  001066  EF39  F008         	goto	u7050
  2006  00106A  EF37  F008         	goto	u7051
  2007  00106E                     u7051:
  2008  00106E  EF4F  F008         	goto	l6600
  2009  001072                     u7050:
  2010  001072                     
  2011                           ; BSR set to: 0
  2012                           ;C:\Program Files\Microchip\xc8\v2.32\pic\sources\c99\common\doprnt.c: 342:         sign
      +                           = 1;
  2013  001072  0E00               	movlw	0
  2014  001074  6FD1               	movwf	(efgtoa@sign+1)& (0+255),b
  2015  001076  0E01               	movlw	1
  2016  001078  6FD0               	movwf	efgtoa@sign& (0+255),b
  2017  00107A                     
  2018                           ; BSR set to: 0
  2019                           ;C:\Program Files\Microchip\xc8\v2.32\pic\sources\c99\common\doprnt.c: 343:         g = 
      +                          -g;
  2020  00107A  C0E2  F005         	movff	efgtoa@g,___flneg@f1
  2021  00107E  C0E3  F006         	movff	efgtoa@g+1,___flneg@f1+1
  2022  001082  C0E4  F007         	movff	efgtoa@g+2,___flneg@f1+2
  2023  001086  C0E5  F008         	movff	efgtoa@g+3,___flneg@f1+3
  2024  00108A  EC0C  F021         	call	___flneg	;wreg free
  2025  00108E  C005  F0E2         	movff	?___flneg,efgtoa@g
  2026  001092  C006  F0E3         	movff	?___flneg+1,efgtoa@g+1
  2027  001096  C007  F0E4         	movff	?___flneg+2,efgtoa@g+2
  2028  00109A  C008  F0E5         	movff	?___flneg+3,efgtoa@g+3
  2029  00109E                     l6600:
  2030                           
  2031                           ;C:\Program Files\Microchip\xc8\v2.32\pic\sources\c99\common\doprnt.c: 347:     n = 0;
  2032  00109E  0E00               	movlw	0
  2033  0010A0  0100               	movlb	0	; () banked
  2034  0010A2  6FE9               	movwf	(efgtoa@n+1)& (0+255),b
  2035  0010A4  0E00               	movlw	0
  2036  0010A6  6FE8               	movwf	efgtoa@n& (0+255),b
  2037  0010A8                     
  2038                           ; BSR set to: 0
  2039                           ;C:\Program Files\Microchip\xc8\v2.32\pic\sources\c99\common\doprnt.c: 348:     w = widt
      +                          h;
  2040  0010A8  C0AD  F0D4         	movff	_width,efgtoa@w
  2041  0010AC  C0AE  F0D5         	movff	_width+1,efgtoa@w+1
  2042  0010B0                     
  2043                           ; BSR set to: 0
  2044                           ;C:\Program Files\Microchip\xc8\v2.32\pic\sources\c99\common\doprnt.c: 349:     if (sign
      +                           || (flags & (1 << 2))) {
  2045  0010B0  51D0               	movf	efgtoa@sign& (0+255),w,b
  2046  0010B2  11D1               	iorwf	(efgtoa@sign+1)& (0+255),w,b
  2047  0010B4  A4D8               	btfss	status,2,c
  2048  0010B6  EF5F  F008         	goto	u7061
  2049  0010BA  EF61  F008         	goto	u7060
  2050  0010BE                     u7061:
  2051  0010BE  EF68  F008         	goto	l6608
  2052  0010C2                     u7060:
  2053  0010C2                     
  2054                           ; BSR set to: 0
  2055  0010C2  A5B1               	btfss	_flags& (0+255),2,b
  2056  0010C4  EF66  F008         	goto	u7071
  2057  0010C8  EF68  F008         	goto	u7070
  2058  0010CC                     u7071:
  2059  0010CC  EF82  F008         	goto	l6620
  2060  0010D0                     u7070:
  2061  0010D0                     l6608:
  2062                           
  2063                           ; BSR set to: 0
  2064                           ;C:\Program Files\Microchip\xc8\v2.32\pic\sources\c99\common\doprnt.c: 350:         dbuf
      +                          [n] = sign ? '-' : '+';
  2065  0010D0  51D0               	movf	efgtoa@sign& (0+255),w,b
  2066  0010D2  11D1               	iorwf	(efgtoa@sign+1)& (0+255),w,b
  2067  0010D4  A4D8               	btfss	status,2,c
  2068  0010D6  EF6F  F008         	goto	u7081
  2069  0010DA  EF71  F008         	goto	u7080
  2070  0010DE                     u7081:
  2071  0010DE  EF77  F008         	goto	l6612
  2072  0010E2                     u7080:
  2073  0010E2                     
  2074                           ; BSR set to: 0
  2075  0010E2  0E00               	movlw	0
  2076  0010E4  6FB7               	movwf	(_efgtoa$2087+1)& (0+255),b
  2077  0010E6  0E2B               	movlw	43
  2078  0010E8  6FB6               	movwf	_efgtoa$2087& (0+255),b
  2079  0010EA  EF7B  F008         	goto	l6614
  2080  0010EE                     l6612:
  2081                           
  2082                           ; BSR set to: 0
  2083  0010EE  0E00               	movlw	0
  2084  0010F0  6FB7               	movwf	(_efgtoa$2087+1)& (0+255),b
  2085  0010F2  0E2D               	movlw	45
  2086  0010F4  6FB6               	movwf	_efgtoa$2087& (0+255),b
  2087  0010F6                     l6614:
  2088                           
  2089                           ; BSR set to: 0
  2090  0010F6  C0B6  F100         	movff	_efgtoa$2087,_dbuf
  2091  0010FA                     
  2092                           ; BSR set to: 0
  2093                           ;C:\Program Files\Microchip\xc8\v2.32\pic\sources\c99\common\doprnt.c: 351:         ++n;
  2094  0010FA  4BE8               	infsnz	efgtoa@n& (0+255),f,b
  2095  0010FC  2BE9               	incf	(efgtoa@n+1)& (0+255),f,b
  2096  0010FE                     
  2097                           ; BSR set to: 0
  2098                           ;C:\Program Files\Microchip\xc8\v2.32\pic\sources\c99\common\doprnt.c: 352:         --w;
  2099  0010FE  07D4               	decf	efgtoa@w& (0+255),f,b
  2100  001100  A0D8               	btfss	status,0,c
  2101  001102  07D5               	decf	(efgtoa@w+1)& (0+255),f,b
  2102  001104                     l6620:
  2103                           
  2104                           ; BSR set to: 0
  2105                           ;C:\Program Files\Microchip\xc8\v2.32\pic\sources\c99\common\doprnt.c: 357:         if (
      +                          (0 ? isupper((int)c) : ((unsigned)((int)c)-'A') < 26)) {
  2106  001104  C0E2  F005         	movff	efgtoa@g,___fpclassifyf@x
  2107  001108  C0E3  F006         	movff	efgtoa@g+1,___fpclassifyf@x+1
  2108  00110C  C0E4  F007         	movff	efgtoa@g+2,___fpclassifyf@x+2
  2109  001110  C0E5  F008         	movff	efgtoa@g+3,___fpclassifyf@x+3
  2110  001114  EC60  F019         	call	___fpclassifyf	;wreg free
  2111  001118  0405               	decf	?___fpclassifyf^0,w,c
  2112  00111A  1006               	iorwf	(?___fpclassifyf+1)^0,w,c
  2113  00111C  A4D8               	btfss	status,2,c
  2114  00111E  EF93  F008         	goto	u7091
  2115  001122  EF95  F008         	goto	u7090
  2116  001126                     u7091:
  2117  001126  EFEC  F008         	goto	l6638
  2118  00112A                     u7090:
  2119  00112A  0EBF               	movlw	191
  2120  00112C  6E39               	movwf	??_efgtoa^0,c
  2121  00112E  0EFF               	movlw	255
  2122  001130  6E3A               	movwf	(??_efgtoa+1)^0,c
  2123  001132  5038               	movf	efgtoa@c^0,w,c
  2124  001134  6E3B               	movwf	(??_efgtoa+2)^0,c
  2125  001136  6A3C               	clrf	(??_efgtoa+3)^0,c
  2126  001138  5039               	movf	??_efgtoa^0,w,c
  2127  00113A  263B               	addwf	(??_efgtoa+2)^0,f,c
  2128  00113C  503A               	movf	(??_efgtoa+1)^0,w,c
  2129  00113E  223C               	addwfc	(??_efgtoa+3)^0,f,c
  2130  001140  503C               	movf	(??_efgtoa+3)^0,w,c
  2131  001142  E10A               	bnz	u7100
  2132  001144  0E1A               	movlw	26
  2133  001146  5C3B               	subwf	(??_efgtoa+2)^0,w,c
  2134  001148  A0D8               	btfss	status,0,c
  2135  00114A  EFA9  F008         	goto	u7101
  2136  00114E  EFAC  F008         	goto	u7100
  2137  001152                     u7101:
  2138  001152  0E01               	movlw	1
  2139  001154  EFAD  F008         	goto	u7110
  2140  001158                     u7100:
  2141  001158  0E00               	movlw	0
  2142  00115A                     u7110:
  2143  00115A  0100               	movlb	0	; () banked
  2144  00115C  6FB8               	movwf	_efgtoa$2088& (0+255),b
  2145  00115E  6BB9               	clrf	(_efgtoa$2088+1)& (0+255),b
  2146  001160                     
  2147                           ; BSR set to: 0
  2148  001160  51B8               	movf	_efgtoa$2088& (0+255),w,b
  2149  001162  11B9               	iorwf	(_efgtoa$2088+1)& (0+255),w,b
  2150  001164  B4D8               	btfsc	status,2,c
  2151  001166  EFB7  F008         	goto	u7121
  2152  00116A  EFB9  F008         	goto	u7120
  2153  00116E                     u7121:
  2154  00116E  EFC7  F008         	goto	l6630
  2155  001172                     u7120:
  2156  001172                     
  2157                           ; BSR set to: 0
  2158                           ;C:\Program Files\Microchip\xc8\v2.32\pic\sources\c99\common\doprnt.c: 358:             
      +                          strcpy(&dbuf[n], "INF");
  2159  001172  0E00               	movlw	low _dbuf
  2160  001174  25E8               	addwf	efgtoa@n& (0+255),w,b
  2161  001176  6E05               	movwf	strcpy@dest^0,c
  2162  001178  0E01               	movlw	high _dbuf
  2163  00117A  21E9               	addwfc	(efgtoa@n+1)& (0+255),w,b
  2164  00117C  6E06               	movwf	(strcpy@dest+1)^0,c
  2165  00117E  0E36               	movlw	low STR_2
  2166  001180  6E07               	movwf	strcpy@src^0,c
  2167  001182  0E10               	movlw	high STR_2
  2168  001184  6E08               	movwf	(strcpy@src+1)^0,c
  2169  001186  ECCA  F01F         	call	_strcpy	;wreg free
  2170                           
  2171                           ;C:\Program Files\Microchip\xc8\v2.32\pic\sources\c99\common\doprnt.c: 359:         } el
      +                          se {
  2172  00118A  EFD3  F008         	goto	l6632
  2173  00118E                     l6630:
  2174                           
  2175                           ; BSR set to: 0
  2176                           ;C:\Program Files\Microchip\xc8\v2.32\pic\sources\c99\common\doprnt.c: 360:             
      +                          strcpy(&dbuf[n], "inf");
  2177  00118E  0E00               	movlw	low _dbuf
  2178  001190  25E8               	addwf	efgtoa@n& (0+255),w,b
  2179  001192  6E05               	movwf	strcpy@dest^0,c
  2180  001194  0E01               	movlw	high _dbuf
  2181  001196  21E9               	addwfc	(efgtoa@n+1)& (0+255),w,b
  2182  001198  6E06               	movwf	(strcpy@dest+1)^0,c
  2183  00119A  0E3E               	movlw	low STR_3
  2184  00119C  6E07               	movwf	strcpy@src^0,c
  2185  00119E  0E10               	movlw	high STR_3
  2186  0011A0  6E08               	movwf	(strcpy@src+1)^0,c
  2187  0011A2  ECCA  F01F         	call	_strcpy	;wreg free
  2188  0011A6                     l6632:
  2189                           
  2190                           ;C:\Program Files\Microchip\xc8\v2.32\pic\sources\c99\common\doprnt.c: 362:         w -=
      +                           ((sizeof("inf")/sizeof("inf"[0]))-1);
  2191  0011A6  0100               	movlb	0	; () banked
  2192  0011A8  0EFD               	movlw	253
  2193  0011AA  27D4               	addwf	efgtoa@w& (0+255),f,b
  2194  0011AC  0EFF               	movlw	255
  2195  0011AE  23D5               	addwfc	(efgtoa@w+1)& (0+255),f,b
  2196  0011B0                     
  2197                           ; BSR set to: 0
  2198                           ;C:\Program Files\Microchip\xc8\v2.32\pic\sources\c99\common\doprnt.c: 363:         retu
      +                          rn pad(fp, &dbuf[0], w);
  2199  0011B0  C032  F017         	movff	efgtoa@fp,pad@fp
  2200  0011B4  C033  F018         	movff	efgtoa@fp+1,pad@fp+1
  2201  0011B8  0E00               	movlw	low _dbuf
  2202  0011BA  6E19               	movwf	pad@buf^0,c
  2203  0011BC  0E01               	movlw	high _dbuf
  2204  0011BE  6E1A               	movwf	(pad@buf+1)^0,c
  2205  0011C0  C0D4  F01B         	movff	efgtoa@w,pad@p
  2206  0011C4  C0D5  F01C         	movff	efgtoa@w+1,pad@p+1
  2207  0011C8  EC4D  F01A         	call	_pad	;wreg free
  2208  0011CC  C017  F032         	movff	?_pad,?_efgtoa
  2209  0011D0  C018  F033         	movff	?_pad+1,?_efgtoa+1
  2210  0011D4  EF77  F00E         	goto	l1456
  2211  0011D8                     l6638:
  2212                           
  2213                           ;C:\Program Files\Microchip\xc8\v2.32\pic\sources\c99\common\doprnt.c: 366:         if (
      +                          (0 ? isupper((int)c) : ((unsigned)((int)c)-'A') < 26)) {
  2214  0011D8  C0E2  F005         	movff	efgtoa@g,___fpclassifyf@x
  2215  0011DC  C0E3  F006         	movff	efgtoa@g+1,___fpclassifyf@x+1
  2216  0011E0  C0E4  F007         	movff	efgtoa@g+2,___fpclassifyf@x+2
  2217  0011E4  C0E5  F008         	movff	efgtoa@g+3,___fpclassifyf@x+3
  2218  0011E8  EC60  F019         	call	___fpclassifyf	;wreg free
  2219  0011EC  5005               	movf	?___fpclassifyf^0,w,c
  2220  0011EE  1006               	iorwf	(?___fpclassifyf+1)^0,w,c
  2221  0011F0  A4D8               	btfss	status,2,c
  2222  0011F2  EFFD  F008         	goto	u7131
  2223  0011F6  EFFF  F008         	goto	u7130
  2224  0011FA                     u7131:
  2225  0011FA  EF56  F009         	goto	l6656
  2226  0011FE                     u7130:
  2227  0011FE  0EBF               	movlw	191
  2228  001200  6E39               	movwf	??_efgtoa^0,c
  2229  001202  0EFF               	movlw	255
  2230  001204  6E3A               	movwf	(??_efgtoa+1)^0,c
  2231  001206  5038               	movf	efgtoa@c^0,w,c
  2232  001208  6E3B               	movwf	(??_efgtoa+2)^0,c
  2233  00120A  6A3C               	clrf	(??_efgtoa+3)^0,c
  2234  00120C  5039               	movf	??_efgtoa^0,w,c
  2235  00120E  263B               	addwf	(??_efgtoa+2)^0,f,c
  2236  001210  503A               	movf	(??_efgtoa+1)^0,w,c
  2237  001212  223C               	addwfc	(??_efgtoa+3)^0,f,c
  2238  001214  503C               	movf	(??_efgtoa+3)^0,w,c
  2239  001216  E10A               	bnz	u7140
  2240  001218  0E1A               	movlw	26
  2241  00121A  5C3B               	subwf	(??_efgtoa+2)^0,w,c
  2242  00121C  A0D8               	btfss	status,0,c
  2243  00121E  EF13  F009         	goto	u7141
  2244  001222  EF16  F009         	goto	u7140
  2245  001226                     u7141:
  2246  001226  0E01               	movlw	1
  2247  001228  EF17  F009         	goto	u7150
  2248  00122C                     u7140:
  2249  00122C  0E00               	movlw	0
  2250  00122E                     u7150:
  2251  00122E  0100               	movlb	0	; () banked
  2252  001230  6FBA               	movwf	_efgtoa$2093& (0+255),b
  2253  001232  6BBB               	clrf	(_efgtoa$2093+1)& (0+255),b
  2254  001234                     
  2255                           ; BSR set to: 0
  2256  001234  51BA               	movf	_efgtoa$2093& (0+255),w,b
  2257  001236  11BB               	iorwf	(_efgtoa$2093+1)& (0+255),w,b
  2258  001238  B4D8               	btfsc	status,2,c
  2259  00123A  EF21  F009         	goto	u7161
  2260  00123E  EF23  F009         	goto	u7160
  2261  001242                     u7161:
  2262  001242  EF31  F009         	goto	l6648
  2263  001246                     u7160:
  2264  001246                     
  2265                           ; BSR set to: 0
  2266                           ;C:\Program Files\Microchip\xc8\v2.32\pic\sources\c99\common\doprnt.c: 367:             
      +                          strcpy(&dbuf[n], "NAN");
  2267  001246  0E00               	movlw	low _dbuf
  2268  001248  25E8               	addwf	efgtoa@n& (0+255),w,b
  2269  00124A  6E05               	movwf	strcpy@dest^0,c
  2270  00124C  0E01               	movlw	high _dbuf
  2271  00124E  21E9               	addwfc	(efgtoa@n+1)& (0+255),w,b
  2272  001250  6E06               	movwf	(strcpy@dest+1)^0,c
  2273  001252  0E3A               	movlw	low STR_6
  2274  001254  6E07               	movwf	strcpy@src^0,c
  2275  001256  0E10               	movlw	high STR_6
  2276  001258  6E08               	movwf	(strcpy@src+1)^0,c
  2277  00125A  ECCA  F01F         	call	_strcpy	;wreg free
  2278                           
  2279                           ;C:\Program Files\Microchip\xc8\v2.32\pic\sources\c99\common\doprnt.c: 368:         } el
      +                          se {
  2280  00125E  EF3D  F009         	goto	l6650
  2281  001262                     l6648:
  2282                           
  2283                           ; BSR set to: 0
  2284                           ;C:\Program Files\Microchip\xc8\v2.32\pic\sources\c99\common\doprnt.c: 369:             
      +                          strcpy(&dbuf[n], "nan");
  2285  001262  0E00               	movlw	low _dbuf
  2286  001264  25E8               	addwf	efgtoa@n& (0+255),w,b
  2287  001266  6E05               	movwf	strcpy@dest^0,c
  2288  001268  0E01               	movlw	high _dbuf
  2289  00126A  21E9               	addwfc	(efgtoa@n+1)& (0+255),w,b
  2290  00126C  6E06               	movwf	(strcpy@dest+1)^0,c
  2291  00126E  0E42               	movlw	low STR_7
  2292  001270  6E07               	movwf	strcpy@src^0,c
  2293  001272  0E10               	movlw	high STR_7
  2294  001274  6E08               	movwf	(strcpy@src+1)^0,c
  2295  001276  ECCA  F01F         	call	_strcpy	;wreg free
  2296  00127A                     l6650:
  2297                           
  2298                           ;C:\Program Files\Microchip\xc8\v2.32\pic\sources\c99\common\doprnt.c: 371:         w -=
      +                           ((sizeof("inf")/sizeof("inf"[0]))-1);
  2299  00127A  0100               	movlb	0	; () banked
  2300  00127C  0EFD               	movlw	253
  2301  00127E  27D4               	addwf	efgtoa@w& (0+255),f,b
  2302  001280  0EFF               	movlw	255
  2303  001282  23D5               	addwfc	(efgtoa@w+1)& (0+255),f,b
  2304  001284                     
  2305                           ; BSR set to: 0
  2306                           ;C:\Program Files\Microchip\xc8\v2.32\pic\sources\c99\common\doprnt.c: 372:         retu
      +                          rn pad(fp, &dbuf[0], w);
  2307  001284  C032  F017         	movff	efgtoa@fp,pad@fp
  2308  001288  C033  F018         	movff	efgtoa@fp+1,pad@fp+1
  2309  00128C  0E00               	movlw	low _dbuf
  2310  00128E  6E19               	movwf	pad@buf^0,c
  2311  001290  0E01               	movlw	high _dbuf
  2312  001292  6E1A               	movwf	(pad@buf+1)^0,c
  2313  001294  C0D4  F01B         	movff	efgtoa@w,pad@p
  2314  001298  C0D5  F01C         	movff	efgtoa@w+1,pad@p+1
  2315  00129C  EC4D  F01A         	call	_pad	;wreg free
  2316  0012A0  C017  F032         	movff	?_pad,?_efgtoa
  2317  0012A4  C018  F033         	movff	?_pad+1,?_efgtoa+1
  2318  0012A8  EF77  F00E         	goto	l1456
  2319  0012AC                     l6656:
  2320                           
  2321                           ;C:\Program Files\Microchip\xc8\v2.32\pic\sources\c99\common\doprnt.c: 376:     u = 1.0;
  2322  0012AC  0E00               	movlw	0
  2323  0012AE  0100               	movlb	0	; () banked
  2324  0012B0  6FEA               	movwf	efgtoa@u& (0+255),b
  2325  0012B2  0E00               	movlw	0
  2326  0012B4  6FEB               	movwf	(efgtoa@u+1)& (0+255),b
  2327  0012B6  0E80               	movlw	128
  2328  0012B8  6FEC               	movwf	(efgtoa@u+2)& (0+255),b
  2329  0012BA  0E3F               	movlw	63
  2330  0012BC  6FED               	movwf	(efgtoa@u+3)& (0+255),b
  2331                           
  2332                           ;C:\Program Files\Microchip\xc8\v2.32\pic\sources\c99\common\doprnt.c: 377:     e = 0;
  2333  0012BE  0E00               	movlw	0
  2334  0012C0  6FE7               	movwf	(efgtoa@e+1)& (0+255),b
  2335  0012C2  0E00               	movlw	0
  2336  0012C4  6FE6               	movwf	efgtoa@e& (0+255),b
  2337  0012C6                     
  2338                           ; BSR set to: 0
  2339                           ;C:\Program Files\Microchip\xc8\v2.32\pic\sources\c99\common\doprnt.c: 378:     if (!(g 
      +                          == 0.0)) {
  2340  0012C6  C0E2  F005         	movff	efgtoa@g,___fleq@ff1
  2341  0012CA  C0E3  F006         	movff	efgtoa@g+1,___fleq@ff1+1
  2342  0012CE  C0E4  F007         	movff	efgtoa@g+2,___fleq@ff1+2
  2343  0012D2  C0E5  F008         	movff	efgtoa@g+3,___fleq@ff1+3
  2344  0012D6  0E00               	movlw	0
  2345  0012D8  6E09               	movwf	___fleq@ff2^0,c
  2346  0012DA  0E00               	movlw	0
  2347  0012DC  6E0A               	movwf	(___fleq@ff2+1)^0,c
  2348  0012DE  0E00               	movlw	0
  2349  0012E0  6E0B               	movwf	(___fleq@ff2+2)^0,c
  2350  0012E2  0E00               	movlw	0
  2351  0012E4  6E0C               	movwf	(___fleq@ff2+3)^0,c
  2352  0012E6  EC2B  F01C         	call	___fleq	;wreg free
  2353  0012EA  B0D8               	btfsc	status,0,c
  2354  0012EC  EF7A  F009         	goto	u7171
  2355  0012F0  EF7C  F009         	goto	u7170
  2356  0012F4                     u7171:
  2357  0012F4  EFFF  F009         	goto	l6674
  2358  0012F8                     u7170:
  2359  0012F8  EF9B  F009         	goto	l6666
  2360  0012FC                     l6662:
  2361                           
  2362                           ;C:\Program Files\Microchip\xc8\v2.32\pic\sources\c99\common\doprnt.c: 380:             
      +                          u = u*10.0;
  2363  0012FC  C0EA  F005         	movff	efgtoa@u,___flmul@b
  2364  001300  C0EB  F006         	movff	efgtoa@u+1,___flmul@b+1
  2365  001304  C0EC  F007         	movff	efgtoa@u+2,___flmul@b+2
  2366  001308  C0ED  F008         	movff	efgtoa@u+3,___flmul@b+3
  2367  00130C  0E00               	movlw	0
  2368  00130E  6E09               	movwf	___flmul@a^0,c
  2369  001310  0E00               	movlw	0
  2370  001312  6E0A               	movwf	(___flmul@a+1)^0,c
  2371  001314  0E20               	movlw	32
  2372  001316  6E0B               	movwf	(___flmul@a+2)^0,c
  2373  001318  0E41               	movlw	65
  2374  00131A  6E0C               	movwf	(___flmul@a+3)^0,c
  2375  00131C  ECD8  F010         	call	___flmul	;wreg free
  2376  001320  C005  F0EA         	movff	?___flmul,efgtoa@u
  2377  001324  C006  F0EB         	movff	?___flmul+1,efgtoa@u+1
  2378  001328  C007  F0EC         	movff	?___flmul+2,efgtoa@u+2
  2379  00132C  C008  F0ED         	movff	?___flmul+3,efgtoa@u+3
  2380  001330                     
  2381                           ;C:\Program Files\Microchip\xc8\v2.32\pic\sources\c99\common\doprnt.c: 381:             
      +                          ++e;
  2382  001330  0100               	movlb	0	; () banked
  2383  001332  4BE6               	infsnz	efgtoa@e& (0+255),f,b
  2384  001334  2BE7               	incf	(efgtoa@e+1)& (0+255),f,b
  2385  001336                     l6666:
  2386                           
  2387                           ;C:\Program Files\Microchip\xc8\v2.32\pic\sources\c99\common\doprnt.c: 379:         whil
      +                          e (!(g < (u*10.0))) {
  2388  001336  C0E2  F01E         	movff	efgtoa@g,___flge@ff1
  2389  00133A  C0E3  F01F         	movff	efgtoa@g+1,___flge@ff1+1
  2390  00133E  C0E4  F020         	movff	efgtoa@g+2,___flge@ff1+2
  2391  001342  C0E5  F021         	movff	efgtoa@g+3,___flge@ff1+3
  2392  001346  0E00               	movlw	0
  2393  001348  6E09               	movwf	___flmul@a^0,c
  2394  00134A  0E00               	movlw	0
  2395  00134C  6E0A               	movwf	(___flmul@a+1)^0,c
  2396  00134E  0E20               	movlw	32
  2397  001350  6E0B               	movwf	(___flmul@a+2)^0,c
  2398  001352  0E41               	movlw	65
  2399  001354  6E0C               	movwf	(___flmul@a+3)^0,c
  2400  001356  C0EA  F005         	movff	efgtoa@u,___flmul@b
  2401  00135A  C0EB  F006         	movff	efgtoa@u+1,___flmul@b+1
  2402  00135E  C0EC  F007         	movff	efgtoa@u+2,___flmul@b+2
  2403  001362  C0ED  F008         	movff	efgtoa@u+3,___flmul@b+3
  2404  001366  ECD8  F010         	call	___flmul	;wreg free
  2405  00136A  C005  F022         	movff	?___flmul,___flge@ff2
  2406  00136E  C006  F023         	movff	?___flmul+1,___flge@ff2+1
  2407  001372  C007  F024         	movff	?___flmul+2,___flge@ff2+2
  2408  001376  C008  F025         	movff	?___flmul+3,___flge@ff2+3
  2409  00137A  ECDE  F018         	call	___flge	;wreg free
  2410  00137E  B0D8               	btfsc	status,0,c
  2411  001380  EFC4  F009         	goto	u7181
  2412  001384  EFC6  F009         	goto	u7180
  2413  001388                     u7181:
  2414  001388  EF7E  F009         	goto	l6662
  2415  00138C                     u7180:
  2416  00138C  EFE6  F009         	goto	l6672
  2417  001390                     l6668:
  2418                           
  2419                           ;C:\Program Files\Microchip\xc8\v2.32\pic\sources\c99\common\doprnt.c: 384:             
      +                          u = u/10.0;
  2420  001390  C0EA  F005         	movff	efgtoa@u,___fldiv@b
  2421  001394  C0EB  F006         	movff	efgtoa@u+1,___fldiv@b+1
  2422  001398  C0EC  F007         	movff	efgtoa@u+2,___fldiv@b+2
  2423  00139C  C0ED  F008         	movff	efgtoa@u+3,___fldiv@b+3
  2424  0013A0  0E00               	movlw	0
  2425  0013A2  6E09               	movwf	___fldiv@a^0,c
  2426  0013A4  0E00               	movlw	0
  2427  0013A6  6E0A               	movwf	(___fldiv@a+1)^0,c
  2428  0013A8  0E20               	movlw	32
  2429  0013AA  6E0B               	movwf	(___fldiv@a+2)^0,c
  2430  0013AC  0E41               	movlw	65
  2431  0013AE  6E0C               	movwf	(___fldiv@a+3)^0,c
  2432  0013B0  ECED  F012         	call	___fldiv	;wreg free
  2433  0013B4  C005  F0EA         	movff	?___fldiv,efgtoa@u
  2434  0013B8  C006  F0EB         	movff	?___fldiv+1,efgtoa@u+1
  2435  0013BC  C007  F0EC         	movff	?___fldiv+2,efgtoa@u+2
  2436  0013C0  C008  F0ED         	movff	?___fldiv+3,efgtoa@u+3
  2437  0013C4                     
  2438                           ;C:\Program Files\Microchip\xc8\v2.32\pic\sources\c99\common\doprnt.c: 385:             
      +                          --e;
  2439  0013C4  0100               	movlb	0	; () banked
  2440  0013C6  07E6               	decf	efgtoa@e& (0+255),f,b
  2441  0013C8  A0D8               	btfss	status,0,c
  2442  0013CA  07E7               	decf	(efgtoa@e+1)& (0+255),f,b
  2443  0013CC                     l6672:
  2444                           
  2445                           ;C:\Program Files\Microchip\xc8\v2.32\pic\sources\c99\common\doprnt.c: 383:         whil
      +                          e (g < u) {
  2446  0013CC  C0E2  F01E         	movff	efgtoa@g,___flge@ff1
  2447  0013D0  C0E3  F01F         	movff	efgtoa@g+1,___flge@ff1+1
  2448  0013D4  C0E4  F020         	movff	efgtoa@g+2,___flge@ff1+2
  2449  0013D8  C0E5  F021         	movff	efgtoa@g+3,___flge@ff1+3
  2450  0013DC  C0EA  F022         	movff	efgtoa@u,___flge@ff2
  2451  0013E0  C0EB  F023         	movff	efgtoa@u+1,___flge@ff2+1
  2452  0013E4  C0EC  F024         	movff	efgtoa@u+2,___flge@ff2+2
  2453  0013E8  C0ED  F025         	movff	efgtoa@u+3,___flge@ff2+3
  2454  0013EC  ECDE  F018         	call	___flge	;wreg free
  2455  0013F0  A0D8               	btfss	status,0,c
  2456  0013F2  EFFD  F009         	goto	u7191
  2457  0013F6  EFFF  F009         	goto	u7190
  2458  0013FA                     u7191:
  2459  0013FA  EFC8  F009         	goto	l6668
  2460  0013FE                     u7190:
  2461  0013FE                     l6674:
  2462                           
  2463                           ;C:\Program Files\Microchip\xc8\v2.32\pic\sources\c99\common\doprnt.c: 390:     mode = (
      +                          char)tolower((int)c);
  2464  0013FE  C038  F00B         	movff	efgtoa@c,tolower@c
  2465  001402  6A0C               	clrf	(tolower@c+1)^0,c
  2466  001404  EC9A  F01F         	call	_tolower	;wreg free
  2467  001408  500B               	movf	?_tolower^0,w,c
  2468  00140A  0100               	movlb	0	; () banked
  2469  00140C  6FD7               	movwf	efgtoa@mode& (0+255),b
  2470  00140E                     
  2471                           ; BSR set to: 0
  2472                           ;C:\Program Files\Microchip\xc8\v2.32\pic\sources\c99\common\doprnt.c: 391:     nmode = 
      +                          mode;
  2473  00140E  C0D7  F0D6         	movff	efgtoa@mode,efgtoa@nmode
  2474  001412                     
  2475                           ; BSR set to: 0
  2476                           ;C:\Program Files\Microchip\xc8\v2.32\pic\sources\c99\common\doprnt.c: 392:     if (mode
      +                           == 'g') {
  2477  001412  0E67               	movlw	103
  2478  001414  19D7               	xorwf	efgtoa@mode& (0+255),w,b
  2479  001416  A4D8               	btfss	status,2,c
  2480  001418  EF10  F00A         	goto	u7201
  2481  00141C  EF12  F00A         	goto	u7200
  2482  001420                     u7201:
  2483  001420  EF38  F00A         	goto	l6688
  2484  001424                     u7200:
  2485  001424                     
  2486                           ; BSR set to: 0
  2487                           ;C:\Program Files\Microchip\xc8\v2.32\pic\sources\c99\common\doprnt.c: 393:   if (prec =
      +                          = 0) {
  2488  001424  51AF               	movf	_prec& (0+255),w,b
  2489  001426  11B0               	iorwf	(_prec+1)& (0+255),w,b
  2490  001428  A4D8               	btfss	status,2,c
  2491  00142A  EF19  F00A         	goto	u7211
  2492  00142E  EF1B  F00A         	goto	u7210
  2493  001432                     u7211:
  2494  001432  EF1F  F00A         	goto	l6684
  2495  001436                     u7210:
  2496  001436                     
  2497                           ; BSR set to: 0
  2498                           ;C:\Program Files\Microchip\xc8\v2.32\pic\sources\c99\common\doprnt.c: 394:    prec = 1;
  2499  001436  0E00               	movlw	0
  2500  001438  6FB0               	movwf	(_prec+1)& (0+255),b
  2501  00143A  0E01               	movlw	1
  2502  00143C  6FAF               	movwf	_prec& (0+255),b
  2503  00143E                     l6684:
  2504                           
  2505                           ; BSR set to: 0
  2506                           ;C:\Program Files\Microchip\xc8\v2.32\pic\sources\c99\common\doprnt.c: 396:         p = 
      +                          (0 < prec) ? prec : 6;
  2507  00143E  BFB0               	btfsc	(_prec+1)& (0+255),7,b
  2508  001440  EF2C  F00A         	goto	u7220
  2509  001444  51B0               	movf	(_prec+1)& (0+255),w,b
  2510  001446  E106               	bnz	u7221
  2511  001448  05AF               	decf	_prec& (0+255),w,b
  2512  00144A  B0D8               	btfsc	status,0,c
  2513  00144C  EF2A  F00A         	goto	u7221
  2514  001450  EF2C  F00A         	goto	u7220
  2515  001454                     u7221:
  2516  001454  EF32  F00A         	goto	l1474
  2517  001458                     u7220:
  2518  001458                     l6686:
  2519                           
  2520                           ; BSR set to: 0
  2521  001458  0E00               	movlw	0
  2522  00145A  6FD3               	movwf	(efgtoa@p+1)& (0+255),b
  2523  00145C  0E06               	movlw	6
  2524  00145E  6FD2               	movwf	efgtoa@p& (0+255),b
  2525  001460  EF41  F00A         	goto	l6694
  2526  001464                     l1474:
  2527                           
  2528                           ; BSR set to: 0
  2529  001464  C0AF  F0D2         	movff	_prec,efgtoa@p
  2530  001468  C0B0  F0D3         	movff	_prec+1,efgtoa@p+1
  2531  00146C  EF41  F00A         	goto	l6694
  2532  001470                     l6688:
  2533                           
  2534                           ; BSR set to: 0
  2535                           ;C:\Program Files\Microchip\xc8\v2.32\pic\sources\c99\common\doprnt.c: 398:         p = 
      +                          (prec < 0) ? 6 : prec;
  2536  001470  BFB0               	btfsc	(_prec+1)& (0+255),7,b
  2537  001472  EF3D  F00A         	goto	u7231
  2538  001476  EF3F  F00A         	goto	u7230
  2539  00147A                     u7231:
  2540  00147A  EF2C  F00A         	goto	l6686
  2541  00147E                     u7230:
  2542  00147E  EF32  F00A         	goto	l1474
  2543  001482                     l6694:
  2544                           
  2545                           ; BSR set to: 0
  2546                           ;C:\Program Files\Microchip\xc8\v2.32\pic\sources\c99\common\doprnt.c: 402:     if (mode
      +                           == 'g') {
  2547  001482  0E67               	movlw	103
  2548  001484  19D7               	xorwf	efgtoa@mode& (0+255),w,b
  2549  001486  A4D8               	btfss	status,2,c
  2550  001488  EF48  F00A         	goto	u7241
  2551  00148C  EF4A  F00A         	goto	u7240
  2552  001490                     u7241:
  2553  001490  EF79  F00A         	goto	l6704
  2554  001494                     u7240:
  2555  001494                     
  2556                           ; BSR set to: 0
  2557                           ;C:\Program Files\Microchip\xc8\v2.32\pic\sources\c99\common\doprnt.c: 403:         if (
      +                          !(e < -4) && !((p - 1) < e)) {
  2558  001494  AFE7               	btfss	(efgtoa@e+1)& (0+255),7,b
  2559  001496  EF58  F00A         	goto	u7250
  2560  00149A  0EFC               	movlw	252
  2561  00149C  5DE6               	subwf	efgtoa@e& (0+255),w,b
  2562  00149E  0EFF               	movlw	255
  2563  0014A0  59E7               	subwfb	(efgtoa@e+1)& (0+255),w,b
  2564  0014A2  A0D8               	btfss	status,0,c
  2565  0014A4  EF56  F00A         	goto	u7251
  2566  0014A8  EF58  F00A         	goto	u7250
  2567  0014AC                     u7251:
  2568  0014AC  EF77  F00A         	goto	l6702
  2569  0014B0                     u7250:
  2570  0014B0                     
  2571                           ; BSR set to: 0
  2572  0014B0  0EFF               	movlw	255
  2573  0014B2  6E39               	movwf	??_efgtoa^0,c
  2574  0014B4  0EFF               	movlw	255
  2575  0014B6  6E3A               	movwf	(??_efgtoa+1)^0,c
  2576  0014B8  C0D2  F03B         	movff	efgtoa@p,??_efgtoa+2
  2577  0014BC  C0D3  F03C         	movff	efgtoa@p+1,??_efgtoa+3
  2578  0014C0  5039               	movf	??_efgtoa^0,w,c
  2579  0014C2  263B               	addwf	(??_efgtoa+2)^0,f,c
  2580  0014C4  503A               	movf	(??_efgtoa+1)^0,w,c
  2581  0014C6  223C               	addwfc	(??_efgtoa+3)^0,f,c
  2582  0014C8  51E6               	movf	efgtoa@e& (0+255),w,b
  2583  0014CA  5C3B               	subwf	(??_efgtoa+2)^0,w,c
  2584  0014CC  503C               	movf	(??_efgtoa+3)^0,w,c
  2585  0014CE  0A80               	xorlw	128
  2586  0014D0  6E3D               	movwf	(??_efgtoa+4)^0,c
  2587  0014D2  51E7               	movf	(efgtoa@e+1)& (0+255),w,b
  2588  0014D4  0A80               	xorlw	128
  2589  0014D6  583D               	subwfb	(??_efgtoa+4)^0,w,c
  2590  0014D8  A0D8               	btfss	status,0,c
  2591  0014DA  EF71  F00A         	goto	u7261
  2592  0014DE  EF73  F00A         	goto	u7260
  2593  0014E2                     u7261:
  2594  0014E2  EF77  F00A         	goto	l6702
  2595  0014E6                     u7260:
  2596  0014E6                     
  2597                           ; BSR set to: 0
  2598                           ;C:\Program Files\Microchip\xc8\v2.32\pic\sources\c99\common\doprnt.c: 404:             
      +                          nmode = 'f';
  2599  0014E6  0E66               	movlw	102
  2600  0014E8  6FD6               	movwf	efgtoa@nmode& (0+255),b
  2601                           
  2602                           ;C:\Program Files\Microchip\xc8\v2.32\pic\sources\c99\common\doprnt.c: 405:         } el
      +                          se {
  2603  0014EA  EF79  F00A         	goto	l6704
  2604  0014EE                     l6702:
  2605                           
  2606                           ; BSR set to: 0
  2607                           ;C:\Program Files\Microchip\xc8\v2.32\pic\sources\c99\common\doprnt.c: 406:             
      +                          nmode = 'e';
  2608  0014EE  0E65               	movlw	101
  2609  0014F0  6FD6               	movwf	efgtoa@nmode& (0+255),b
  2610  0014F2                     l6704:
  2611                           
  2612                           ; BSR set to: 0
  2613                           ;C:\Program Files\Microchip\xc8\v2.32\pic\sources\c99\common\doprnt.c: 411:     m = p;
  2614  0014F2  C0D2  F0C8         	movff	efgtoa@p,efgtoa@m
  2615  0014F6  C0D3  F0C9         	movff	efgtoa@p+1,efgtoa@m+1
  2616  0014FA                     
  2617                           ; BSR set to: 0
  2618                           ;C:\Program Files\Microchip\xc8\v2.32\pic\sources\c99\common\doprnt.c: 412:     if (!(mo
      +                          de == 'g') || ((nmode == 'f') && (e < 0))) {
  2619  0014FA  0E67               	movlw	103
  2620  0014FC  19D7               	xorwf	efgtoa@mode& (0+255),w,b
  2621  0014FE  A4D8               	btfss	status,2,c
  2622  001500  EF84  F00A         	goto	u7271
  2623  001504  EF86  F00A         	goto	u7270
  2624  001508                     u7271:
  2625  001508  EF96  F00A         	goto	l6712
  2626  00150C                     u7270:
  2627  00150C                     
  2628                           ; BSR set to: 0
  2629  00150C  0E66               	movlw	102
  2630  00150E  19D6               	xorwf	efgtoa@nmode& (0+255),w,b
  2631  001510  A4D8               	btfss	status,2,c
  2632  001512  EF8D  F00A         	goto	u7281
  2633  001516  EF8F  F00A         	goto	u7280
  2634  00151A                     u7281:
  2635  00151A  EF98  F00A         	goto	l6714
  2636  00151E                     u7280:
  2637  00151E                     
  2638                           ; BSR set to: 0
  2639  00151E  BFE7               	btfsc	(efgtoa@e+1)& (0+255),7,b
  2640  001520  EF96  F00A         	goto	u7290
  2641  001524  EF94  F00A         	goto	u7291
  2642  001528                     u7291:
  2643  001528  EF98  F00A         	goto	l6714
  2644  00152C                     u7290:
  2645  00152C                     l6712:
  2646                           
  2647                           ; BSR set to: 0
  2648                           ;C:\Program Files\Microchip\xc8\v2.32\pic\sources\c99\common\doprnt.c: 413:         ++m;
  2649  00152C  4BC8               	infsnz	efgtoa@m& (0+255),f,b
  2650  00152E  2BC9               	incf	(efgtoa@m+1)& (0+255),f,b
  2651  001530                     l6714:
  2652                           
  2653                           ; BSR set to: 0
  2654                           ;C:\Program Files\Microchip\xc8\v2.32\pic\sources\c99\common\doprnt.c: 417:     if (nmod
      +                          e == 'f') {
  2655  001530  0E66               	movlw	102
  2656  001532  19D6               	xorwf	efgtoa@nmode& (0+255),w,b
  2657  001534  A4D8               	btfss	status,2,c
  2658  001536  EF9F  F00A         	goto	u7301
  2659  00153A  EFA1  F00A         	goto	u7300
  2660  00153E                     u7301:
  2661  00153E  EFC1  F00A         	goto	l6724
  2662  001542                     u7300:
  2663  001542                     
  2664                           ; BSR set to: 0
  2665                           ;C:\Program Files\Microchip\xc8\v2.32\pic\sources\c99\common\doprnt.c: 418:         if (
      +                          e < 0) {
  2666  001542  BFE7               	btfsc	(efgtoa@e+1)& (0+255),7,b
  2667  001544  EFA8  F00A         	goto	u7310
  2668  001548  EFA6  F00A         	goto	u7311
  2669  00154C                     u7311:
  2670  00154C  EFB4  F00A         	goto	l6720
  2671  001550                     u7310:
  2672  001550                     
  2673                           ; BSR set to: 0
  2674                           ;C:\Program Files\Microchip\xc8\v2.32\pic\sources\c99\common\doprnt.c: 419:             
      +                          u = 1.0;
  2675  001550  0E00               	movlw	0
  2676  001552  6FEA               	movwf	efgtoa@u& (0+255),b
  2677  001554  0E00               	movlw	0
  2678  001556  6FEB               	movwf	(efgtoa@u+1)& (0+255),b
  2679  001558  0E80               	movlw	128
  2680  00155A  6FEC               	movwf	(efgtoa@u+2)& (0+255),b
  2681  00155C  0E3F               	movlw	63
  2682  00155E  6FED               	movwf	(efgtoa@u+3)& (0+255),b
  2683                           
  2684                           ;C:\Program Files\Microchip\xc8\v2.32\pic\sources\c99\common\doprnt.c: 420:             
      +                          e = 0;
  2685  001560  0E00               	movlw	0
  2686  001562  6FE7               	movwf	(efgtoa@e+1)& (0+255),b
  2687  001564  0E00               	movlw	0
  2688  001566  6FE6               	movwf	efgtoa@e& (0+255),b
  2689  001568                     l6720:
  2690                           
  2691                           ; BSR set to: 0
  2692                           ;C:\Program Files\Microchip\xc8\v2.32\pic\sources\c99\common\doprnt.c: 422:         if (
      +                          !(mode == 'g')) {
  2693  001568  0E67               	movlw	103
  2694  00156A  19D7               	xorwf	efgtoa@mode& (0+255),w,b
  2695  00156C  B4D8               	btfsc	status,2,c
  2696  00156E  EFBB  F00A         	goto	u7321
  2697  001572  EFBD  F00A         	goto	u7320
  2698  001576                     u7321:
  2699  001576  EFC1  F00A         	goto	l6724
  2700  00157A                     u7320:
  2701  00157A                     
  2702                           ; BSR set to: 0
  2703                           ;C:\Program Files\Microchip\xc8\v2.32\pic\sources\c99\common\doprnt.c: 423:             
      +                          m += e;
  2704  00157A  51E6               	movf	efgtoa@e& (0+255),w,b
  2705  00157C  27C8               	addwf	efgtoa@m& (0+255),f,b
  2706  00157E  51E7               	movf	(efgtoa@e+1)& (0+255),w,b
  2707  001580  23C9               	addwfc	(efgtoa@m+1)& (0+255),f,b
  2708  001582                     l6724:
  2709                           
  2710                           ; BSR set to: 0
  2711                           ;C:\Program Files\Microchip\xc8\v2.32\pic\sources\c99\common\doprnt.c: 428:     i = 0;
  2712  001582  0E00               	movlw	0
  2713  001584  6FE1               	movwf	(efgtoa@i+1)& (0+255),b
  2714  001586  0E00               	movlw	0
  2715  001588  6FE0               	movwf	efgtoa@i& (0+255),b
  2716  00158A                     
  2717                           ; BSR set to: 0
  2718                           ;C:\Program Files\Microchip\xc8\v2.32\pic\sources\c99\common\doprnt.c: 429:     h = g;
  2719  00158A  C0E2  F0D8         	movff	efgtoa@g,efgtoa@h
  2720  00158E  C0E3  F0D9         	movff	efgtoa@g+1,efgtoa@h+1
  2721  001592  C0E4  F0DA         	movff	efgtoa@g+2,efgtoa@h+2
  2722  001596  C0E5  F0DB         	movff	efgtoa@g+3,efgtoa@h+3
  2723  00159A                     
  2724                           ; BSR set to: 0
  2725                           ;C:\Program Files\Microchip\xc8\v2.32\pic\sources\c99\common\doprnt.c: 430:     ou = u;
  2726  00159A  C0EA  F0CA         	movff	efgtoa@u,efgtoa@ou
  2727  00159E  C0EB  F0CB         	movff	efgtoa@u+1,efgtoa@ou+1
  2728  0015A2  C0EC  F0CC         	movff	efgtoa@u+2,efgtoa@ou+2
  2729  0015A6  C0ED  F0CD         	movff	efgtoa@u+3,efgtoa@ou+3
  2730                           
  2731                           ;C:\Program Files\Microchip\xc8\v2.32\pic\sources\c99\common\doprnt.c: 431:     while (i
      +                           < m) {
  2732  0015AA  EF52  F00B         	goto	l6738
  2733  0015AE                     l6730:
  2734                           
  2735                           ; BSR set to: 0
  2736                           ;C:\Program Files\Microchip\xc8\v2.32\pic\sources\c99\common\doprnt.c: 432:         l = 
      +                          floorf(h/u);
  2737  0015AE  C0D8  F005         	movff	efgtoa@h,___fldiv@b
  2738  0015B2  C0D9  F006         	movff	efgtoa@h+1,___fldiv@b+1
  2739  0015B6  C0DA  F007         	movff	efgtoa@h+2,___fldiv@b+2
  2740  0015BA  C0DB  F008         	movff	efgtoa@h+3,___fldiv@b+3
  2741  0015BE  C0EA  F009         	movff	efgtoa@u,___fldiv@a
  2742  0015C2  C0EB  F00A         	movff	efgtoa@u+1,___fldiv@a+1
  2743  0015C6  C0EC  F00B         	movff	efgtoa@u+2,___fldiv@a+2
  2744  0015CA  C0ED  F00C         	movff	efgtoa@u+3,___fldiv@a+3
  2745  0015CE  ECED  F012         	call	___fldiv	;wreg free
  2746  0015D2  C005  F01E         	movff	?___fldiv,floorf@x
  2747  0015D6  C006  F01F         	movff	?___fldiv+1,floorf@x+1
  2748  0015DA  C007  F020         	movff	?___fldiv+2,floorf@x+2
  2749  0015DE  C008  F021         	movff	?___fldiv+3,floorf@x+3
  2750  0015E2  EC78  F016         	call	_floorf	;wreg free
  2751  0015E6  C01E  F0DC         	movff	?_floorf,efgtoa@l
  2752  0015EA  C01F  F0DD         	movff	?_floorf+1,efgtoa@l+1
  2753  0015EE  C020  F0DE         	movff	?_floorf+2,efgtoa@l+2
  2754  0015F2  C021  F0DF         	movff	?_floorf+3,efgtoa@l+3
  2755                           
  2756                           ;C:\Program Files\Microchip\xc8\v2.32\pic\sources\c99\common\doprnt.c: 433:         d = 
      +                          (int)l;
  2757  0015F6  C0DC  F005         	movff	efgtoa@l,___fltol@f1
  2758  0015FA  C0DD  F006         	movff	efgtoa@l+1,___fltol@f1+1
  2759  0015FE  C0DE  F007         	movff	efgtoa@l+2,___fltol@f1+2
  2760  001602  C0DF  F008         	movff	efgtoa@l+3,___fltol@f1+3
  2761  001606  EC5B  F018         	call	___fltol	;wreg free
  2762  00160A  C005  F0CE         	movff	?___fltol,efgtoa@d
  2763  00160E  C006  F0CF         	movff	?___fltol+1,efgtoa@d+1
  2764  001612                     
  2765                           ;C:\Program Files\Microchip\xc8\v2.32\pic\sources\c99\common\doprnt.c: 434:         h -=
      +                           l*u;
  2766  001612  C0D8  F01E         	movff	efgtoa@h,___flsub@b
  2767  001616  C0D9  F01F         	movff	efgtoa@h+1,___flsub@b+1
  2768  00161A  C0DA  F020         	movff	efgtoa@h+2,___flsub@b+2
  2769  00161E  C0DB  F021         	movff	efgtoa@h+3,___flsub@b+3
  2770  001622  C0EA  F009         	movff	efgtoa@u,___flmul@a
  2771  001626  C0EB  F00A         	movff	efgtoa@u+1,___flmul@a+1
  2772  00162A  C0EC  F00B         	movff	efgtoa@u+2,___flmul@a+2
  2773  00162E  C0ED  F00C         	movff	efgtoa@u+3,___flmul@a+3
  2774  001632  C0DC  F005         	movff	efgtoa@l,___flmul@b
  2775  001636  C0DD  F006         	movff	efgtoa@l+1,___flmul@b+1
  2776  00163A  C0DE  F007         	movff	efgtoa@l+2,___flmul@b+2
  2777  00163E  C0DF  F008         	movff	efgtoa@l+3,___flmul@b+3
  2778  001642  ECD8  F010         	call	___flmul	;wreg free
  2779  001646  C005  F022         	movff	?___flmul,___flsub@a
  2780  00164A  C006  F023         	movff	?___flmul+1,___flsub@a+1
  2781  00164E  C007  F024         	movff	?___flmul+2,___flsub@a+2
  2782  001652  C008  F025         	movff	?___flmul+3,___flsub@a+3
  2783  001656  EC25  F020         	call	___flsub	;wreg free
  2784  00165A  C01E  F0D8         	movff	?___flsub,efgtoa@h
  2785  00165E  C01F  F0D9         	movff	?___flsub+1,efgtoa@h+1
  2786  001662  C020  F0DA         	movff	?___flsub+2,efgtoa@h+2
  2787  001666  C021  F0DB         	movff	?___flsub+3,efgtoa@h+3
  2788  00166A                     
  2789                           ;C:\Program Files\Microchip\xc8\v2.32\pic\sources\c99\common\doprnt.c: 435:         u = 
      +                          u/10.0;
  2790  00166A  C0EA  F005         	movff	efgtoa@u,___fldiv@b
  2791  00166E  C0EB  F006         	movff	efgtoa@u+1,___fldiv@b+1
  2792  001672  C0EC  F007         	movff	efgtoa@u+2,___fldiv@b+2
  2793  001676  C0ED  F008         	movff	efgtoa@u+3,___fldiv@b+3
  2794  00167A  0E00               	movlw	0
  2795  00167C  6E09               	movwf	___fldiv@a^0,c
  2796  00167E  0E00               	movlw	0
  2797  001680  6E0A               	movwf	(___fldiv@a+1)^0,c
  2798  001682  0E20               	movlw	32
  2799  001684  6E0B               	movwf	(___fldiv@a+2)^0,c
  2800  001686  0E41               	movlw	65
  2801  001688  6E0C               	movwf	(___fldiv@a+3)^0,c
  2802  00168A  ECED  F012         	call	___fldiv	;wreg free
  2803  00168E  C005  F0EA         	movff	?___fldiv,efgtoa@u
  2804  001692  C006  F0EB         	movff	?___fldiv+1,efgtoa@u+1
  2805  001696  C007  F0EC         	movff	?___fldiv+2,efgtoa@u+2
  2806  00169A  C008  F0ED         	movff	?___fldiv+3,efgtoa@u+3
  2807  00169E                     
  2808                           ;C:\Program Files\Microchip\xc8\v2.32\pic\sources\c99\common\doprnt.c: 436:         ++i;
  2809  00169E  0100               	movlb	0	; () banked
  2810  0016A0  4BE0               	infsnz	efgtoa@i& (0+255),f,b
  2811  0016A2  2BE1               	incf	(efgtoa@i+1)& (0+255),f,b
  2812  0016A4                     l6738:
  2813                           
  2814                           ; BSR set to: 0
  2815                           ;C:\Program Files\Microchip\xc8\v2.32\pic\sources\c99\common\doprnt.c: 431:     while (i
      +                           < m) {
  2816  0016A4  51C8               	movf	efgtoa@m& (0+255),w,b
  2817  0016A6  5DE0               	subwf	efgtoa@i& (0+255),w,b
  2818  0016A8  51E1               	movf	(efgtoa@i+1)& (0+255),w,b
  2819  0016AA  0A80               	xorlw	128
  2820  0016AC  6E39               	movwf	??_efgtoa^0,c
  2821  0016AE  51C9               	movf	(efgtoa@m+1)& (0+255),w,b
  2822  0016B0  0A80               	xorlw	128
  2823  0016B2  5839               	subwfb	??_efgtoa^0,w,c
  2824  0016B4  A0D8               	btfss	status,0,c
  2825  0016B6  EF5F  F00B         	goto	u7331
  2826  0016BA  EF61  F00B         	goto	u7330
  2827  0016BE                     u7331:
  2828  0016BE  EFD7  F00A         	goto	l6730
  2829  0016C2                     u7330:
  2830  0016C2                     
  2831                           ; BSR set to: 0
  2832                           ;C:\Program Files\Microchip\xc8\v2.32\pic\sources\c99\common\doprnt.c: 440:     l = u*5.
      +                          0;
  2833  0016C2  C0EA  F005         	movff	efgtoa@u,___flmul@b
  2834  0016C6  C0EB  F006         	movff	efgtoa@u+1,___flmul@b+1
  2835  0016CA  C0EC  F007         	movff	efgtoa@u+2,___flmul@b+2
  2836  0016CE  C0ED  F008         	movff	efgtoa@u+3,___flmul@b+3
  2837  0016D2  0E00               	movlw	0
  2838  0016D4  6E09               	movwf	___flmul@a^0,c
  2839  0016D6  0E00               	movlw	0
  2840  0016D8  6E0A               	movwf	(___flmul@a+1)^0,c
  2841  0016DA  0EA0               	movlw	160
  2842  0016DC  6E0B               	movwf	(___flmul@a+2)^0,c
  2843  0016DE  0E40               	movlw	64
  2844  0016E0  6E0C               	movwf	(___flmul@a+3)^0,c
  2845  0016E2  ECD8  F010         	call	___flmul	;wreg free
  2846  0016E6  C005  F0DC         	movff	?___flmul,efgtoa@l
  2847  0016EA  C006  F0DD         	movff	?___flmul+1,efgtoa@l+1
  2848  0016EE  C007  F0DE         	movff	?___flmul+2,efgtoa@l+2
  2849  0016F2  C008  F0DF         	movff	?___flmul+3,efgtoa@l+3
  2850  0016F6                     
  2851                           ;C:\Program Files\Microchip\xc8\v2.32\pic\sources\c99\common\doprnt.c: 441:     if (h < 
      +                          l) {
  2852  0016F6  C0D8  F01E         	movff	efgtoa@h,___flge@ff1
  2853  0016FA  C0D9  F01F         	movff	efgtoa@h+1,___flge@ff1+1
  2854  0016FE  C0DA  F020         	movff	efgtoa@h+2,___flge@ff1+2
  2855  001702  C0DB  F021         	movff	efgtoa@h+3,___flge@ff1+3
  2856  001706  C0DC  F022         	movff	efgtoa@l,___flge@ff2
  2857  00170A  C0DD  F023         	movff	efgtoa@l+1,___flge@ff2+1
  2858  00170E  C0DE  F024         	movff	efgtoa@l+2,___flge@ff2+2
  2859  001712  C0DF  F025         	movff	efgtoa@l+3,___flge@ff2+3
  2860  001716  ECDE  F018         	call	___flge	;wreg free
  2861  00171A  B0D8               	btfsc	status,0,c
  2862  00171C  EF92  F00B         	goto	u7341
  2863  001720  EF94  F00B         	goto	u7340
  2864  001724                     u7341:
  2865  001724  EF9F  F00B         	goto	l6746
  2866  001728                     u7340:
  2867  001728                     
  2868                           ;C:\Program Files\Microchip\xc8\v2.32\pic\sources\c99\common\doprnt.c: 442:         l = 
      +                          0.0;
  2869  001728  0E00               	movlw	0
  2870  00172A  0100               	movlb	0	; () banked
  2871  00172C  6FDC               	movwf	efgtoa@l& (0+255),b
  2872  00172E  0E00               	movlw	0
  2873  001730  6FDD               	movwf	(efgtoa@l+1)& (0+255),b
  2874  001732  0E00               	movlw	0
  2875  001734  6FDE               	movwf	(efgtoa@l+2)& (0+255),b
  2876  001736  0E00               	movlw	0
  2877  001738  6FDF               	movwf	(efgtoa@l+3)& (0+255),b
  2878                           
  2879                           ;C:\Program Files\Microchip\xc8\v2.32\pic\sources\c99\common\doprnt.c: 443:     } else {
  2880  00173A  EFC8  F00B         	goto	l6752
  2881  00173E                     l6746:
  2882                           
  2883                           ;C:\Program Files\Microchip\xc8\v2.32\pic\sources\c99\common\doprnt.c: 445:         if (
      +                          (h == l) && !(d % 2)) {
  2884  00173E  C0D8  F005         	movff	efgtoa@h,___fleq@ff1
  2885  001742  C0D9  F006         	movff	efgtoa@h+1,___fleq@ff1+1
  2886  001746  C0DA  F007         	movff	efgtoa@h+2,___fleq@ff1+2
  2887  00174A  C0DB  F008         	movff	efgtoa@h+3,___fleq@ff1+3
  2888  00174E  C0DC  F009         	movff	efgtoa@l,___fleq@ff2
  2889  001752  C0DD  F00A         	movff	efgtoa@l+1,___fleq@ff2+1
  2890  001756  C0DE  F00B         	movff	efgtoa@l+2,___fleq@ff2+2
  2891  00175A  C0DF  F00C         	movff	efgtoa@l+3,___fleq@ff2+3
  2892  00175E  EC2B  F01C         	call	___fleq	;wreg free
  2893  001762  A0D8               	btfss	status,0,c
  2894  001764  EFB6  F00B         	goto	u7351
  2895  001768  EFB8  F00B         	goto	u7350
  2896  00176C                     u7351:
  2897  00176C  EFC8  F00B         	goto	l6752
  2898  001770                     u7350:
  2899  001770  0100               	movlb	0	; () banked
  2900  001772  B1CE               	btfsc	efgtoa@d& (0+255),0,b
  2901  001774  EFBE  F00B         	goto	u7361
  2902  001778  EFC0  F00B         	goto	u7360
  2903  00177C                     u7361:
  2904  00177C  EFC8  F00B         	goto	l6752
  2905  001780                     u7360:
  2906  001780                     
  2907                           ; BSR set to: 0
  2908                           ;C:\Program Files\Microchip\xc8\v2.32\pic\sources\c99\common\doprnt.c: 446:             
      +                          l = 0.0;
  2909  001780  0E00               	movlw	0
  2910  001782  6FDC               	movwf	efgtoa@l& (0+255),b
  2911  001784  0E00               	movlw	0
  2912  001786  6FDD               	movwf	(efgtoa@l+1)& (0+255),b
  2913  001788  0E00               	movlw	0
  2914  00178A  6FDE               	movwf	(efgtoa@l+2)& (0+255),b
  2915  00178C  0E00               	movlw	0
  2916  00178E  6FDF               	movwf	(efgtoa@l+3)& (0+255),b
  2917  001790                     l6752:
  2918                           
  2919                           ;C:\Program Files\Microchip\xc8\v2.32\pic\sources\c99\common\doprnt.c: 451:     h = g + 
      +                          l;
  2920  001790  C0E2  F005         	movff	efgtoa@g,___fladd@b
  2921  001794  C0E3  F006         	movff	efgtoa@g+1,___fladd@b+1
  2922  001798  C0E4  F007         	movff	efgtoa@g+2,___fladd@b+2
  2923  00179C  C0E5  F008         	movff	efgtoa@g+3,___fladd@b+3
  2924  0017A0  C0DC  F009         	movff	efgtoa@l,___fladd@a
  2925  0017A4  C0DD  F00A         	movff	efgtoa@l+1,___fladd@a+1
  2926  0017A8  C0DE  F00B         	movff	efgtoa@l+2,___fladd@a+2
  2927  0017AC  C0DF  F00C         	movff	efgtoa@l+3,___fladd@a+3
  2928  0017B0  EC78  F00E         	call	___fladd	;wreg free
  2929  0017B4  C005  F0D8         	movff	?___fladd,efgtoa@h
  2930  0017B8  C006  F0D9         	movff	?___fladd+1,efgtoa@h+1
  2931  0017BC  C007  F0DA         	movff	?___fladd+2,efgtoa@h+2
  2932  0017C0  C008  F0DB         	movff	?___fladd+3,efgtoa@h+3
  2933  0017C4                     
  2934                           ;C:\Program Files\Microchip\xc8\v2.32\pic\sources\c99\common\doprnt.c: 453:  if (h >= (o
      +                          u*10.0)) {
  2935  0017C4  C0D8  F01E         	movff	efgtoa@h,___flge@ff1
  2936  0017C8  C0D9  F01F         	movff	efgtoa@h+1,___flge@ff1+1
  2937  0017CC  C0DA  F020         	movff	efgtoa@h+2,___flge@ff1+2
  2938  0017D0  C0DB  F021         	movff	efgtoa@h+3,___flge@ff1+3
  2939  0017D4  0E00               	movlw	0
  2940  0017D6  6E09               	movwf	___flmul@a^0,c
  2941  0017D8  0E00               	movlw	0
  2942  0017DA  6E0A               	movwf	(___flmul@a+1)^0,c
  2943  0017DC  0E20               	movlw	32
  2944  0017DE  6E0B               	movwf	(___flmul@a+2)^0,c
  2945  0017E0  0E41               	movlw	65
  2946  0017E2  6E0C               	movwf	(___flmul@a+3)^0,c
  2947  0017E4  C0CA  F005         	movff	efgtoa@ou,___flmul@b
  2948  0017E8  C0CB  F006         	movff	efgtoa@ou+1,___flmul@b+1
  2949  0017EC  C0CC  F007         	movff	efgtoa@ou+2,___flmul@b+2
  2950  0017F0  C0CD  F008         	movff	efgtoa@ou+3,___flmul@b+3
  2951  0017F4  ECD8  F010         	call	___flmul	;wreg free
  2952  0017F8  C005  F022         	movff	?___flmul,___flge@ff2
  2953  0017FC  C006  F023         	movff	?___flmul+1,___flge@ff2+1
  2954  001800  C007  F024         	movff	?___flmul+2,___flge@ff2+2
  2955  001804  C008  F025         	movff	?___flmul+3,___flge@ff2+3
  2956  001808  ECDE  F018         	call	___flge	;wreg free
  2957  00180C  A0D8               	btfss	status,0,c
  2958  00180E  EF0B  F00C         	goto	u7371
  2959  001812  EF0D  F00C         	goto	u7370
  2960  001816                     u7371:
  2961  001816  EF36  F00C         	goto	l6764
  2962  00181A                     u7370:
  2963  00181A                     
  2964                           ;C:\Program Files\Microchip\xc8\v2.32\pic\sources\c99\common\doprnt.c: 454:   e++;
  2965  00181A  0100               	movlb	0	; () banked
  2966  00181C  4BE6               	infsnz	efgtoa@e& (0+255),f,b
  2967  00181E  2BE7               	incf	(efgtoa@e+1)& (0+255),f,b
  2968  001820                     
  2969                           ; BSR set to: 0
  2970                           ;C:\Program Files\Microchip\xc8\v2.32\pic\sources\c99\common\doprnt.c: 455:   ou *= 10.0
      +                          ;
  2971  001820  C0CA  F005         	movff	efgtoa@ou,___flmul@b
  2972  001824  C0CB  F006         	movff	efgtoa@ou+1,___flmul@b+1
  2973  001828  C0CC  F007         	movff	efgtoa@ou+2,___flmul@b+2
  2974  00182C  C0CD  F008         	movff	efgtoa@ou+3,___flmul@b+3
  2975  001830  0E00               	movlw	0
  2976  001832  6E09               	movwf	___flmul@a^0,c
  2977  001834  0E00               	movlw	0
  2978  001836  6E0A               	movwf	(___flmul@a+1)^0,c
  2979  001838  0E20               	movlw	32
  2980  00183A  6E0B               	movwf	(___flmul@a+2)^0,c
  2981  00183C  0E41               	movlw	65
  2982  00183E  6E0C               	movwf	(___flmul@a+3)^0,c
  2983  001840  ECD8  F010         	call	___flmul	;wreg free
  2984  001844  C005  F0CA         	movff	?___flmul,efgtoa@ou
  2985  001848  C006  F0CB         	movff	?___flmul+1,efgtoa@ou+1
  2986  00184C  C007  F0CC         	movff	?___flmul+2,efgtoa@ou+2
  2987  001850  C008  F0CD         	movff	?___flmul+3,efgtoa@ou+3
  2988  001854                     
  2989                           ;C:\Program Files\Microchip\xc8\v2.32\pic\sources\c99\common\doprnt.c: 456:   if (nmode 
      +                          == 'f') {
  2990  001854  0E66               	movlw	102
  2991  001856  0100               	movlb	0	; () banked
  2992  001858  19D6               	xorwf	efgtoa@nmode& (0+255),w,b
  2993  00185A  A4D8               	btfss	status,2,c
  2994  00185C  EF32  F00C         	goto	u7381
  2995  001860  EF34  F00C         	goto	u7380
  2996  001864                     u7381:
  2997  001864  EF36  F00C         	goto	l6764
  2998  001868                     u7380:
  2999  001868                     
  3000                           ; BSR set to: 0
  3001                           ;C:\Program Files\Microchip\xc8\v2.32\pic\sources\c99\common\doprnt.c: 458:    m++;
  3002  001868  4BC8               	infsnz	efgtoa@m& (0+255),f,b
  3003  00186A  2BC9               	incf	(efgtoa@m+1)& (0+255),f,b
  3004  00186C                     l6764:
  3005                           
  3006                           ;C:\Program Files\Microchip\xc8\v2.32\pic\sources\c99\common\doprnt.c: 463:     u = ou;
  3007  00186C  C0CA  F0EA         	movff	efgtoa@ou,efgtoa@u
  3008  001870  C0CB  F0EB         	movff	efgtoa@ou+1,efgtoa@u+1
  3009  001874  C0CC  F0EC         	movff	efgtoa@ou+2,efgtoa@u+2
  3010  001878  C0CD  F0ED         	movff	efgtoa@ou+3,efgtoa@u+3
  3011  00187C                     
  3012                           ;C:\Program Files\Microchip\xc8\v2.32\pic\sources\c99\common\doprnt.c: 464:     ne = (nm
      +                          ode == 'e') ? 0 : e;
  3013  00187C  0E65               	movlw	101
  3014  00187E  0100               	movlb	0	; () banked
  3015  001880  19D6               	xorwf	efgtoa@nmode& (0+255),w,b
  3016  001882  B4D8               	btfsc	status,2,c
  3017  001884  EF46  F00C         	goto	u7391
  3018  001888  EF48  F00C         	goto	u7390
  3019  00188C                     u7391:
  3020  00188C  EF4E  F00C         	goto	l6770
  3021  001890                     u7390:
  3022  001890                     
  3023                           ; BSR set to: 0
  3024  001890  C0E6  F0C6         	movff	efgtoa@e,efgtoa@ne
  3025  001894  C0E7  F0C7         	movff	efgtoa@e+1,efgtoa@ne+1
  3026  001898  EF52  F00C         	goto	l1502
  3027  00189C                     l6770:
  3028                           
  3029                           ; BSR set to: 0
  3030  00189C  0E00               	movlw	0
  3031  00189E  6FC7               	movwf	(efgtoa@ne+1)& (0+255),b
  3032  0018A0  0E00               	movlw	0
  3033  0018A2  6FC6               	movwf	efgtoa@ne& (0+255),b
  3034  0018A4                     l1502:
  3035                           
  3036                           ; BSR set to: 0
  3037                           ;C:\Program Files\Microchip\xc8\v2.32\pic\sources\c99\common\doprnt.c: 465:     pp = 0;
  3038  0018A4  0E00               	movlw	0
  3039  0018A6  6FC5               	movwf	(efgtoa@pp+1)& (0+255),b
  3040  0018A8  0E00               	movlw	0
  3041  0018AA  6FC4               	movwf	efgtoa@pp& (0+255),b
  3042                           
  3043                           ;C:\Program Files\Microchip\xc8\v2.32\pic\sources\c99\common\doprnt.c: 466:     t = 0;
  3044  0018AC  0E00               	movlw	0
  3045  0018AE  6FC3               	movwf	(efgtoa@t+1)& (0+255),b
  3046  0018B0  0E00               	movlw	0
  3047  0018B2  6FC2               	movwf	efgtoa@t& (0+255),b
  3048                           
  3049                           ;C:\Program Files\Microchip\xc8\v2.32\pic\sources\c99\common\doprnt.c: 467:     i = 0;
  3050  0018B4  0E00               	movlw	0
  3051  0018B6  6FE1               	movwf	(efgtoa@i+1)& (0+255),b
  3052  0018B8  0E00               	movlw	0
  3053  0018BA  6FE0               	movwf	efgtoa@i& (0+255),b
  3054                           
  3055                           ;C:\Program Files\Microchip\xc8\v2.32\pic\sources\c99\common\doprnt.c: 468:     while ((
      +                          i < m) && (n < (80 - 5))) {
  3056  0018BC  EF4D  F00D         	goto	l6820
  3057  0018C0                     l6772:
  3058                           
  3059                           ; BSR set to: 0
  3060                           ;C:\Program Files\Microchip\xc8\v2.32\pic\sources\c99\common\doprnt.c: 469:         l = 
      +                          floorf(h/u);
  3061  0018C0  C0D8  F005         	movff	efgtoa@h,___fldiv@b
  3062  0018C4  C0D9  F006         	movff	efgtoa@h+1,___fldiv@b+1
  3063  0018C8  C0DA  F007         	movff	efgtoa@h+2,___fldiv@b+2
  3064  0018CC  C0DB  F008         	movff	efgtoa@h+3,___fldiv@b+3
  3065  0018D0  C0EA  F009         	movff	efgtoa@u,___fldiv@a
  3066  0018D4  C0EB  F00A         	movff	efgtoa@u+1,___fldiv@a+1
  3067  0018D8  C0EC  F00B         	movff	efgtoa@u+2,___fldiv@a+2
  3068  0018DC  C0ED  F00C         	movff	efgtoa@u+3,___fldiv@a+3
  3069  0018E0  ECED  F012         	call	___fldiv	;wreg free
  3070  0018E4  C005  F01E         	movff	?___fldiv,floorf@x
  3071  0018E8  C006  F01F         	movff	?___fldiv+1,floorf@x+1
  3072  0018EC  C007  F020         	movff	?___fldiv+2,floorf@x+2
  3073  0018F0  C008  F021         	movff	?___fldiv+3,floorf@x+3
  3074  0018F4  EC78  F016         	call	_floorf	;wreg free
  3075  0018F8  C01E  F0DC         	movff	?_floorf,efgtoa@l
  3076  0018FC  C01F  F0DD         	movff	?_floorf+1,efgtoa@l+1
  3077  001900  C020  F0DE         	movff	?_floorf+2,efgtoa@l+2
  3078  001904  C021  F0DF         	movff	?_floorf+3,efgtoa@l+3
  3079                           
  3080                           ;C:\Program Files\Microchip\xc8\v2.32\pic\sources\c99\common\doprnt.c: 470:         d = 
      +                          (int)l;
  3081  001908  C0DC  F005         	movff	efgtoa@l,___fltol@f1
  3082  00190C  C0DD  F006         	movff	efgtoa@l+1,___fltol@f1+1
  3083  001910  C0DE  F007         	movff	efgtoa@l+2,___fltol@f1+2
  3084  001914  C0DF  F008         	movff	efgtoa@l+3,___fltol@f1+3
  3085  001918  EC5B  F018         	call	___fltol	;wreg free
  3086  00191C  C005  F0CE         	movff	?___fltol,efgtoa@d
  3087  001920  C006  F0CF         	movff	?___fltol+1,efgtoa@d+1
  3088  001924                     
  3089                           ;C:\Program Files\Microchip\xc8\v2.32\pic\sources\c99\common\doprnt.c: 471:         if (
      +                          !(flags & (1 << 4)) && !d && (mode == 'g') && (ne < 0)) {
  3090  001924  0100               	movlb	0	; () banked
  3091  001926  B9B1               	btfsc	_flags& (0+255),4,b
  3092  001928  EF98  F00C         	goto	u7401
  3093  00192C  EF9A  F00C         	goto	u7400
  3094  001930                     u7401:
  3095  001930  EFB7  F00C         	goto	l6784
  3096  001934                     u7400:
  3097  001934                     
  3098                           ; BSR set to: 0
  3099  001934  51CE               	movf	efgtoa@d& (0+255),w,b
  3100  001936  11CF               	iorwf	(efgtoa@d+1)& (0+255),w,b
  3101  001938  A4D8               	btfss	status,2,c
  3102  00193A  EFA1  F00C         	goto	u7411
  3103  00193E  EFA3  F00C         	goto	u7410
  3104  001942                     u7411:
  3105  001942  EFB7  F00C         	goto	l6784
  3106  001946                     u7410:
  3107  001946                     
  3108                           ; BSR set to: 0
  3109  001946  0E67               	movlw	103
  3110  001948  19D7               	xorwf	efgtoa@mode& (0+255),w,b
  3111  00194A  A4D8               	btfss	status,2,c
  3112  00194C  EFAA  F00C         	goto	u7421
  3113  001950  EFAC  F00C         	goto	u7420
  3114  001954                     u7421:
  3115  001954  EFB7  F00C         	goto	l6784
  3116  001958                     u7420:
  3117  001958                     
  3118                           ; BSR set to: 0
  3119  001958  BFC7               	btfsc	(efgtoa@ne+1)& (0+255),7,b
  3120  00195A  EFB3  F00C         	goto	u7430
  3121  00195E  EFB1  F00C         	goto	u7431
  3122  001962                     u7431:
  3123  001962  EFB7  F00C         	goto	l6784
  3124  001966                     u7430:
  3125  001966                     
  3126                           ; BSR set to: 0
  3127                           ;C:\Program Files\Microchip\xc8\v2.32\pic\sources\c99\common\doprnt.c: 472:             
      +                          ++t;
  3128  001966  4BC2               	infsnz	efgtoa@t& (0+255),f,b
  3129  001968  2BC3               	incf	(efgtoa@t+1)& (0+255),f,b
  3130                           
  3131                           ;C:\Program Files\Microchip\xc8\v2.32\pic\sources\c99\common\doprnt.c: 473:         } el
      +                          se {
  3132  00196A  EF01  F00D         	goto	l6812
  3133  00196E                     l6784:
  3134                           
  3135                           ; BSR set to: 0
  3136                           ;C:\Program Files\Microchip\xc8\v2.32\pic\sources\c99\common\doprnt.c: 474:             
      +                          if (!pp && (ne < 0)) {
  3137  00196E  51C4               	movf	efgtoa@pp& (0+255),w,b
  3138  001970  11C5               	iorwf	(efgtoa@pp+1)& (0+255),w,b
  3139  001972  A4D8               	btfss	status,2,c
  3140  001974  EFBE  F00C         	goto	u7441
  3141  001978  EFC0  F00C         	goto	u7440
  3142  00197C                     u7441:
  3143  00197C  EFEA  F00C         	goto	l6804
  3144  001980                     u7440:
  3145  001980                     
  3146                           ; BSR set to: 0
  3147  001980  BFC7               	btfsc	(efgtoa@ne+1)& (0+255),7,b
  3148  001982  EFC7  F00C         	goto	u7450
  3149  001986  EFC5  F00C         	goto	u7451
  3150  00198A                     u7451:
  3151  00198A  EFEA  F00C         	goto	l6804
  3152  00198E                     u7450:
  3153  00198E                     
  3154                           ; BSR set to: 0
  3155                           ;C:\Program Files\Microchip\xc8\v2.32\pic\sources\c99\common\doprnt.c: 475:             
      +                              dbuf[n++] = '.';
  3156  00198E  0E00               	movlw	low _dbuf
  3157  001990  25E8               	addwf	efgtoa@n& (0+255),w,b
  3158  001992  6ED9               	movwf	fsr2l,c
  3159  001994  0E01               	movlw	high _dbuf
  3160  001996  21E9               	addwfc	(efgtoa@n+1)& (0+255),w,b
  3161  001998  6EDA               	movwf	fsr2h,c
  3162  00199A  0E2E               	movlw	46
  3163  00199C  6EDF               	movwf	indf2,c
  3164  00199E                     
  3165                           ; BSR set to: 0
  3166  00199E  4BE8               	infsnz	efgtoa@n& (0+255),f,b
  3167  0019A0  2BE9               	incf	(efgtoa@n+1)& (0+255),f,b
  3168  0019A2                     
  3169                           ; BSR set to: 0
  3170                           ;C:\Program Files\Microchip\xc8\v2.32\pic\sources\c99\common\doprnt.c: 476:             
      +                              --w;
  3171  0019A2  07D4               	decf	efgtoa@w& (0+255),f,b
  3172  0019A4  A0D8               	btfss	status,0,c
  3173  0019A6  07D5               	decf	(efgtoa@w+1)& (0+255),f,b
  3174  0019A8                     
  3175                           ; BSR set to: 0
  3176                           ;C:\Program Files\Microchip\xc8\v2.32\pic\sources\c99\common\doprnt.c: 477:             
      +                              pp = 1;
  3177  0019A8  0E00               	movlw	0
  3178  0019AA  6FC5               	movwf	(efgtoa@pp+1)& (0+255),b
  3179  0019AC  0E01               	movlw	1
  3180  0019AE  6FC4               	movwf	efgtoa@pp& (0+255),b
  3181  0019B0  EFEA  F00C         	goto	l6804
  3182  0019B4                     l6796:
  3183                           
  3184                           ; BSR set to: 0
  3185                           ;C:\Program Files\Microchip\xc8\v2.32\pic\sources\c99\common\doprnt.c: 480:             
      +                              dbuf[n++] = '0';
  3186  0019B4  0E00               	movlw	low _dbuf
  3187  0019B6  25E8               	addwf	efgtoa@n& (0+255),w,b
  3188  0019B8  6ED9               	movwf	fsr2l,c
  3189  0019BA  0E01               	movlw	high _dbuf
  3190  0019BC  21E9               	addwfc	(efgtoa@n+1)& (0+255),w,b
  3191  0019BE  6EDA               	movwf	fsr2h,c
  3192  0019C0  0E30               	movlw	48
  3193  0019C2  6EDF               	movwf	indf2,c
  3194  0019C4                     
  3195                           ; BSR set to: 0
  3196  0019C4  4BE8               	infsnz	efgtoa@n& (0+255),f,b
  3197  0019C6  2BE9               	incf	(efgtoa@n+1)& (0+255),f,b
  3198  0019C8                     
  3199                           ; BSR set to: 0
  3200                           ;C:\Program Files\Microchip\xc8\v2.32\pic\sources\c99\common\doprnt.c: 481:             
      +                              --w;
  3201  0019C8  07D4               	decf	efgtoa@w& (0+255),f,b
  3202  0019CA  A0D8               	btfss	status,0,c
  3203  0019CC  07D5               	decf	(efgtoa@w+1)& (0+255),f,b
  3204  0019CE                     
  3205                           ; BSR set to: 0
  3206                           ;C:\Program Files\Microchip\xc8\v2.32\pic\sources\c99\common\doprnt.c: 482:             
      +                              --t;
  3207  0019CE  07C2               	decf	efgtoa@t& (0+255),f,b
  3208  0019D0  A0D8               	btfss	status,0,c
  3209  0019D2  07C3               	decf	(efgtoa@t+1)& (0+255),f,b
  3210  0019D4                     l6804:
  3211                           
  3212                           ; BSR set to: 0
  3213                           ;C:\Program Files\Microchip\xc8\v2.32\pic\sources\c99\common\doprnt.c: 479:             
      +                          while (t) {
  3214  0019D4  51C2               	movf	efgtoa@t& (0+255),w,b
  3215  0019D6  11C3               	iorwf	(efgtoa@t+1)& (0+255),w,b
  3216  0019D8  A4D8               	btfss	status,2,c
  3217  0019DA  EFF1  F00C         	goto	u7461
  3218  0019DE  EFF3  F00C         	goto	u7460
  3219  0019E2                     u7461:
  3220  0019E2  EFDA  F00C         	goto	l6796
  3221  0019E6                     u7460:
  3222  0019E6                     
  3223                           ; BSR set to: 0
  3224                           ;C:\Program Files\Microchip\xc8\v2.32\pic\sources\c99\common\doprnt.c: 484:             
      +                          dbuf[n++] = (char)((int)'0' + d);
  3225  0019E6  0E00               	movlw	low _dbuf
  3226  0019E8  25E8               	addwf	efgtoa@n& (0+255),w,b
  3227  0019EA  6ED9               	movwf	fsr2l,c
  3228  0019EC  0E01               	movlw	high _dbuf
  3229  0019EE  21E9               	addwfc	(efgtoa@n+1)& (0+255),w,b
  3230  0019F0  6EDA               	movwf	fsr2h,c
  3231  0019F2  51CE               	movf	efgtoa@d& (0+255),w,b
  3232  0019F4  0F30               	addlw	48
  3233  0019F6  6EDF               	movwf	indf2,c
  3234  0019F8                     
  3235                           ; BSR set to: 0
  3236  0019F8  4BE8               	infsnz	efgtoa@n& (0+255),f,b
  3237  0019FA  2BE9               	incf	(efgtoa@n+1)& (0+255),f,b
  3238  0019FC                     
  3239                           ; BSR set to: 0
  3240                           ;C:\Program Files\Microchip\xc8\v2.32\pic\sources\c99\common\doprnt.c: 485:             
      +                          --w;
  3241  0019FC  07D4               	decf	efgtoa@w& (0+255),f,b
  3242  0019FE  A0D8               	btfss	status,0,c
  3243  001A00  07D5               	decf	(efgtoa@w+1)& (0+255),f,b
  3244  001A02                     l6812:
  3245                           
  3246                           ; BSR set to: 0
  3247                           ;C:\Program Files\Microchip\xc8\v2.32\pic\sources\c99\common\doprnt.c: 487:         h -=
      +                           l*u;
  3248  001A02  C0D8  F01E         	movff	efgtoa@h,___flsub@b
  3249  001A06  C0D9  F01F         	movff	efgtoa@h+1,___flsub@b+1
  3250  001A0A  C0DA  F020         	movff	efgtoa@h+2,___flsub@b+2
  3251  001A0E  C0DB  F021         	movff	efgtoa@h+3,___flsub@b+3
  3252  001A12  C0EA  F009         	movff	efgtoa@u,___flmul@a
  3253  001A16  C0EB  F00A         	movff	efgtoa@u+1,___flmul@a+1
  3254  001A1A  C0EC  F00B         	movff	efgtoa@u+2,___flmul@a+2
  3255  001A1E  C0ED  F00C         	movff	efgtoa@u+3,___flmul@a+3
  3256  001A22  C0DC  F005         	movff	efgtoa@l,___flmul@b
  3257  001A26  C0DD  F006         	movff	efgtoa@l+1,___flmul@b+1
  3258  001A2A  C0DE  F007         	movff	efgtoa@l+2,___flmul@b+2
  3259  001A2E  C0DF  F008         	movff	efgtoa@l+3,___flmul@b+3
  3260  001A32  ECD8  F010         	call	___flmul	;wreg free
  3261  001A36  C005  F022         	movff	?___flmul,___flsub@a
  3262  001A3A  C006  F023         	movff	?___flmul+1,___flsub@a+1
  3263  001A3E  C007  F024         	movff	?___flmul+2,___flsub@a+2
  3264  001A42  C008  F025         	movff	?___flmul+3,___flsub@a+3
  3265  001A46  EC25  F020         	call	___flsub	;wreg free
  3266  001A4A  C01E  F0D8         	movff	?___flsub,efgtoa@h
  3267  001A4E  C01F  F0D9         	movff	?___flsub+1,efgtoa@h+1
  3268  001A52  C020  F0DA         	movff	?___flsub+2,efgtoa@h+2
  3269  001A56  C021  F0DB         	movff	?___flsub+3,efgtoa@h+3
  3270  001A5A                     
  3271                           ;C:\Program Files\Microchip\xc8\v2.32\pic\sources\c99\common\doprnt.c: 488:         u = 
      +                          u/10.0;
  3272  001A5A  C0EA  F005         	movff	efgtoa@u,___fldiv@b
  3273  001A5E  C0EB  F006         	movff	efgtoa@u+1,___fldiv@b+1
  3274  001A62  C0EC  F007         	movff	efgtoa@u+2,___fldiv@b+2
  3275  001A66  C0ED  F008         	movff	efgtoa@u+3,___fldiv@b+3
  3276  001A6A  0E00               	movlw	0
  3277  001A6C  6E09               	movwf	___fldiv@a^0,c
  3278  001A6E  0E00               	movlw	0
  3279  001A70  6E0A               	movwf	(___fldiv@a+1)^0,c
  3280  001A72  0E20               	movlw	32
  3281  001A74  6E0B               	movwf	(___fldiv@a+2)^0,c
  3282  001A76  0E41               	movlw	65
  3283  001A78  6E0C               	movwf	(___fldiv@a+3)^0,c
  3284  001A7A  ECED  F012         	call	___fldiv	;wreg free
  3285  001A7E  C005  F0EA         	movff	?___fldiv,efgtoa@u
  3286  001A82  C006  F0EB         	movff	?___fldiv+1,efgtoa@u+1
  3287  001A86  C007  F0EC         	movff	?___fldiv+2,efgtoa@u+2
  3288  001A8A  C008  F0ED         	movff	?___fldiv+3,efgtoa@u+3
  3289  001A8E                     
  3290                           ;C:\Program Files\Microchip\xc8\v2.32\pic\sources\c99\common\doprnt.c: 489:         --ne
      +                          ;
  3291  001A8E  0100               	movlb	0	; () banked
  3292  001A90  07C6               	decf	efgtoa@ne& (0+255),f,b
  3293  001A92  A0D8               	btfss	status,0,c
  3294  001A94  07C7               	decf	(efgtoa@ne+1)& (0+255),f,b
  3295  001A96                     
  3296                           ; BSR set to: 0
  3297                           ;C:\Program Files\Microchip\xc8\v2.32\pic\sources\c99\common\doprnt.c: 490:         ++i;
  3298  001A96  4BE0               	infsnz	efgtoa@i& (0+255),f,b
  3299  001A98  2BE1               	incf	(efgtoa@i+1)& (0+255),f,b
  3300  001A9A                     l6820:
  3301                           
  3302                           ; BSR set to: 0
  3303                           ;C:\Program Files\Microchip\xc8\v2.32\pic\sources\c99\common\doprnt.c: 468:     while ((
      +                          i < m) && (n < (80 - 5))) {
  3304  001A9A  51C8               	movf	efgtoa@m& (0+255),w,b
  3305  001A9C  5DE0               	subwf	efgtoa@i& (0+255),w,b
  3306  001A9E  51E1               	movf	(efgtoa@i+1)& (0+255),w,b
  3307  001AA0  0A80               	xorlw	128
  3308  001AA2  6E39               	movwf	??_efgtoa^0,c
  3309  001AA4  51C9               	movf	(efgtoa@m+1)& (0+255),w,b
  3310  001AA6  0A80               	xorlw	128
  3311  001AA8  5839               	subwfb	??_efgtoa^0,w,c
  3312  001AAA  B0D8               	btfsc	status,0,c
  3313  001AAC  EF5A  F00D         	goto	u7471
  3314  001AB0  EF5C  F00D         	goto	u7470
  3315  001AB4                     u7471:
  3316  001AB4  EF6A  F00D         	goto	l6824
  3317  001AB8                     u7470:
  3318  001AB8                     
  3319                           ; BSR set to: 0
  3320  001AB8  BFE9               	btfsc	(efgtoa@n+1)& (0+255),7,b
  3321  001ABA  EF68  F00D         	goto	u7481
  3322  001ABE  51E9               	movf	(efgtoa@n+1)& (0+255),w,b
  3323  001AC0  E109               	bnz	u7480
  3324  001AC2  0E4B               	movlw	75
  3325  001AC4  5DE8               	subwf	efgtoa@n& (0+255),w,b
  3326  001AC6  A0D8               	btfss	status,0,c
  3327  001AC8  EF68  F00D         	goto	u7481
  3328  001ACC  EF6A  F00D         	goto	u7480
  3329  001AD0                     u7481:
  3330  001AD0  EF60  F00C         	goto	l6772
  3331  001AD4                     u7480:
  3332  001AD4                     l6824:
  3333                           
  3334                           ; BSR set to: 0
  3335                           ;C:\Program Files\Microchip\xc8\v2.32\pic\sources\c99\common\doprnt.c: 492:     if (!pp 
      +                          && (flags & (1 << 4))) {
  3336  001AD4  51C4               	movf	efgtoa@pp& (0+255),w,b
  3337  001AD6  11C5               	iorwf	(efgtoa@pp+1)& (0+255),w,b
  3338  001AD8  A4D8               	btfss	status,2,c
  3339  001ADA  EF71  F00D         	goto	u7491
  3340  001ADE  EF73  F00D         	goto	u7490
  3341  001AE2                     u7491:
  3342  001AE2  EF84  F00D         	goto	l6832
  3343  001AE6                     u7490:
  3344  001AE6                     
  3345                           ; BSR set to: 0
  3346  001AE6  A9B1               	btfss	_flags& (0+255),4,b
  3347  001AE8  EF78  F00D         	goto	u7501
  3348  001AEC  EF7A  F00D         	goto	u7500
  3349  001AF0                     u7501:
  3350  001AF0  EF84  F00D         	goto	l6832
  3351  001AF4                     u7500:
  3352  001AF4                     
  3353                           ; BSR set to: 0
  3354                           ;C:\Program Files\Microchip\xc8\v2.32\pic\sources\c99\common\doprnt.c: 493:         dbuf
      +                          [n++] = '.';
  3355  001AF4  0E00               	movlw	low _dbuf
  3356  001AF6  25E8               	addwf	efgtoa@n& (0+255),w,b
  3357  001AF8  6ED9               	movwf	fsr2l,c
  3358  001AFA  0E01               	movlw	high _dbuf
  3359  001AFC  21E9               	addwfc	(efgtoa@n+1)& (0+255),w,b
  3360  001AFE  6EDA               	movwf	fsr2h,c
  3361  001B00  0E2E               	movlw	46
  3362  001B02  6EDF               	movwf	indf2,c
  3363  001B04                     
  3364                           ; BSR set to: 0
  3365  001B04  4BE8               	infsnz	efgtoa@n& (0+255),f,b
  3366  001B06  2BE9               	incf	(efgtoa@n+1)& (0+255),f,b
  3367  001B08                     l6832:
  3368                           
  3369                           ; BSR set to: 0
  3370                           ;C:\Program Files\Microchip\xc8\v2.32\pic\sources\c99\common\doprnt.c: 495:     dbuf[n] 
      +                          = '\0';
  3371  001B08  0E00               	movlw	low _dbuf
  3372  001B0A  25E8               	addwf	efgtoa@n& (0+255),w,b
  3373  001B0C  6ED9               	movwf	fsr2l,c
  3374  001B0E  0E01               	movlw	high _dbuf
  3375  001B10  21E9               	addwfc	(efgtoa@n+1)& (0+255),w,b
  3376  001B12  6EDA               	movwf	fsr2h,c
  3377  001B14  0E00               	movlw	0
  3378  001B16  6EDF               	movwf	indf2,c
  3379  001B18                     
  3380                           ; BSR set to: 0
  3381                           ;C:\Program Files\Microchip\xc8\v2.32\pic\sources\c99\common\doprnt.c: 498:     if (nmod
      +                          e == 'e') {
  3382  001B18  0E65               	movlw	101
  3383  001B1A  19D6               	xorwf	efgtoa@nmode& (0+255),w,b
  3384  001B1C  A4D8               	btfss	status,2,c
  3385  001B1E  EF93  F00D         	goto	u7511
  3386  001B22  EF95  F00D         	goto	u7510
  3387  001B26                     u7511:
  3388  001B26  EF65  F00E         	goto	l6894
  3389  001B2A                     u7510:
  3390  001B2A                     
  3391                           ; BSR set to: 0
  3392                           ;C:\Program Files\Microchip\xc8\v2.32\pic\sources\c99\common\doprnt.c: 499:         i = 
      +                          sizeof(dbuf) - 1;
  3393  001B2A  0E00               	movlw	0
  3394  001B2C  6FE1               	movwf	(efgtoa@i+1)& (0+255),b
  3395  001B2E  0E4F               	movlw	79
  3396  001B30  6FE0               	movwf	efgtoa@i& (0+255),b
  3397  001B32                     
  3398                           ; BSR set to: 0
  3399                           ;C:\Program Files\Microchip\xc8\v2.32\pic\sources\c99\common\doprnt.c: 500:         dbuf
      +                          [i] = '\0';
  3400  001B32  0E00               	movlw	low _dbuf
  3401  001B34  25E0               	addwf	efgtoa@i& (0+255),w,b
  3402  001B36  6ED9               	movwf	fsr2l,c
  3403  001B38  0E01               	movlw	high _dbuf
  3404  001B3A  21E1               	addwfc	(efgtoa@i+1)& (0+255),w,b
  3405  001B3C  6EDA               	movwf	fsr2h,c
  3406  001B3E  0E00               	movlw	0
  3407  001B40  6EDF               	movwf	indf2,c
  3408  001B42                     
  3409                           ; BSR set to: 0
  3410                           ;C:\Program Files\Microchip\xc8\v2.32\pic\sources\c99\common\doprnt.c: 501:         sign
      +                           = 0;
  3411  001B42  0E00               	movlw	0
  3412  001B44  6FD1               	movwf	(efgtoa@sign+1)& (0+255),b
  3413  001B46  0E00               	movlw	0
  3414  001B48  6FD0               	movwf	efgtoa@sign& (0+255),b
  3415  001B4A                     
  3416                           ; BSR set to: 0
  3417                           ;C:\Program Files\Microchip\xc8\v2.32\pic\sources\c99\common\doprnt.c: 502:         if (
      +                          e < 0) {
  3418  001B4A  BFE7               	btfsc	(efgtoa@e+1)& (0+255),7,b
  3419  001B4C  EFAC  F00D         	goto	u7520
  3420  001B50  EFAA  F00D         	goto	u7521
  3421  001B54                     u7521:
  3422  001B54  EFB4  F00D         	goto	l6848
  3423  001B58                     u7520:
  3424  001B58                     
  3425                           ; BSR set to: 0
  3426                           ;C:\Program Files\Microchip\xc8\v2.32\pic\sources\c99\common\doprnt.c: 503:             
      +                          sign = 1;
  3427  001B58  0E00               	movlw	0
  3428  001B5A  6FD1               	movwf	(efgtoa@sign+1)& (0+255),b
  3429  001B5C  0E01               	movlw	1
  3430  001B5E  6FD0               	movwf	efgtoa@sign& (0+255),b
  3431  001B60                     
  3432                           ; BSR set to: 0
  3433                           ;C:\Program Files\Microchip\xc8\v2.32\pic\sources\c99\common\doprnt.c: 504:             
      +                          e = -e;
  3434  001B60  6DE6               	negf	efgtoa@e& (0+255),b
  3435  001B62  1FE7               	comf	(efgtoa@e+1)& (0+255),f,b
  3436  001B64  B0D8               	btfsc	status,0,c
  3437  001B66  2BE7               	incf	(efgtoa@e+1)& (0+255),f,b
  3438  001B68                     l6848:
  3439                           
  3440                           ; BSR set to: 0
  3441                           ;C:\Program Files\Microchip\xc8\v2.32\pic\sources\c99\common\doprnt.c: 506:         p = 
      +                          2;
  3442  001B68  0E00               	movlw	0
  3443  001B6A  6FD3               	movwf	(efgtoa@p+1)& (0+255),b
  3444  001B6C  0E02               	movlw	2
  3445  001B6E  6FD2               	movwf	efgtoa@p& (0+255),b
  3446                           
  3447                           ;C:\Program Files\Microchip\xc8\v2.32\pic\sources\c99\common\doprnt.c: 507:         whil
      +                          e (e || (0 < p)) {
  3448  001B70  EFE5  F00D         	goto	l6860
  3449  001B74                     l6850:
  3450                           
  3451                           ; BSR set to: 0
  3452                           ;C:\Program Files\Microchip\xc8\v2.32\pic\sources\c99\common\doprnt.c: 508:             
      +                          --i;
  3453  001B74  07E0               	decf	efgtoa@i& (0+255),f,b
  3454  001B76  A0D8               	btfss	status,0,c
  3455  001B78  07E1               	decf	(efgtoa@i+1)& (0+255),f,b
  3456  001B7A                     
  3457                           ; BSR set to: 0
  3458                           ;C:\Program Files\Microchip\xc8\v2.32\pic\sources\c99\common\doprnt.c: 509:             
      +                          dbuf[i] = '0' + (e % 10);
  3459  001B7A  0E00               	movlw	low _dbuf
  3460  001B7C  25E0               	addwf	efgtoa@i& (0+255),w,b
  3461  001B7E  6ED9               	movwf	fsr2l,c
  3462  001B80  0E01               	movlw	high _dbuf
  3463  001B82  21E1               	addwfc	(efgtoa@i+1)& (0+255),w,b
  3464  001B84  6EDA               	movwf	fsr2h,c
  3465  001B86  C0E6  F005         	movff	efgtoa@e,___awmod@dividend
  3466  001B8A  C0E7  F006         	movff	efgtoa@e+1,___awmod@dividend+1
  3467  001B8E  0E00               	movlw	0
  3468  001B90  6E08               	movwf	(___awmod@divisor+1)^0,c
  3469  001B92  0E0A               	movlw	10
  3470  001B94  6E07               	movwf	___awmod@divisor^0,c
  3471  001B96  ECD3  F01B         	call	___awmod	;wreg free
  3472  001B9A  5005               	movf	?___awmod^0,w,c
  3473  001B9C  0F30               	addlw	48
  3474  001B9E  6EDF               	movwf	indf2,c
  3475  001BA0                     
  3476                           ;C:\Program Files\Microchip\xc8\v2.32\pic\sources\c99\common\doprnt.c: 510:             
      +                          e = e / 10;
  3477  001BA0  C0E6  F005         	movff	efgtoa@e,___awdiv@dividend
  3478  001BA4  C0E7  F006         	movff	efgtoa@e+1,___awdiv@dividend+1
  3479  001BA8  0E00               	movlw	0
  3480  001BAA  6E08               	movwf	(___awdiv@divisor+1)^0,c
  3481  001BAC  0E0A               	movlw	10
  3482  001BAE  6E07               	movwf	___awdiv@divisor^0,c
  3483  001BB0  ECB0  F01A         	call	___awdiv	;wreg free
  3484  001BB4  C005  F0E6         	movff	?___awdiv,efgtoa@e
  3485  001BB8  C006  F0E7         	movff	?___awdiv+1,efgtoa@e+1
  3486  001BBC                     
  3487                           ;C:\Program Files\Microchip\xc8\v2.32\pic\sources\c99\common\doprnt.c: 511:             
      +                          --p;
  3488  001BBC  0100               	movlb	0	; () banked
  3489  001BBE  07D2               	decf	efgtoa@p& (0+255),f,b
  3490  001BC0  A0D8               	btfss	status,0,c
  3491  001BC2  07D3               	decf	(efgtoa@p+1)& (0+255),f,b
  3492  001BC4                     
  3493                           ; BSR set to: 0
  3494                           ;C:\Program Files\Microchip\xc8\v2.32\pic\sources\c99\common\doprnt.c: 512:             
      +                          --w;
  3495  001BC4  07D4               	decf	efgtoa@w& (0+255),f,b
  3496  001BC6  A0D8               	btfss	status,0,c
  3497  001BC8  07D5               	decf	(efgtoa@w+1)& (0+255),f,b
  3498  001BCA                     l6860:
  3499                           
  3500                           ; BSR set to: 0
  3501                           ;C:\Program Files\Microchip\xc8\v2.32\pic\sources\c99\common\doprnt.c: 507:         whil
      +                          e (e || (0 < p)) {
  3502  001BCA  51E6               	movf	efgtoa@e& (0+255),w,b
  3503  001BCC  11E7               	iorwf	(efgtoa@e+1)& (0+255),w,b
  3504  001BCE  A4D8               	btfss	status,2,c
  3505  001BD0  EFEC  F00D         	goto	u7531
  3506  001BD4  EFEE  F00D         	goto	u7530
  3507  001BD8                     u7531:
  3508  001BD8  EFBA  F00D         	goto	l6850
  3509  001BDC                     u7530:
  3510  001BDC                     
  3511                           ; BSR set to: 0
  3512  001BDC  BFD3               	btfsc	(efgtoa@p+1)& (0+255),7,b
  3513  001BDE  EFFB  F00D         	goto	u7540
  3514  001BE2  51D3               	movf	(efgtoa@p+1)& (0+255),w,b
  3515  001BE4  E106               	bnz	u7541
  3516  001BE6  05D2               	decf	efgtoa@p& (0+255),w,b
  3517  001BE8  B0D8               	btfsc	status,0,c
  3518  001BEA  EFF9  F00D         	goto	u7541
  3519  001BEE  EFFB  F00D         	goto	u7540
  3520  001BF2                     u7541:
  3521  001BF2  EFBA  F00D         	goto	l6850
  3522  001BF6                     u7540:
  3523  001BF6                     
  3524                           ; BSR set to: 0
  3525                           ;C:\Program Files\Microchip\xc8\v2.32\pic\sources\c99\common\doprnt.c: 514:         --i;
  3526  001BF6  07E0               	decf	efgtoa@i& (0+255),f,b
  3527  001BF8  A0D8               	btfss	status,0,c
  3528  001BFA  07E1               	decf	(efgtoa@i+1)& (0+255),f,b
  3529  001BFC                     
  3530                           ; BSR set to: 0
  3531                           ;C:\Program Files\Microchip\xc8\v2.32\pic\sources\c99\common\doprnt.c: 515:         dbuf
      +                          [i] = sign ? '-' : '+';
  3532  001BFC  51D0               	movf	efgtoa@sign& (0+255),w,b
  3533  001BFE  11D1               	iorwf	(efgtoa@sign+1)& (0+255),w,b
  3534  001C00  A4D8               	btfss	status,2,c
  3535  001C02  EF05  F00E         	goto	u7551
  3536  001C06  EF07  F00E         	goto	u7550
  3537  001C0A                     u7551:
  3538  001C0A  EF0D  F00E         	goto	l6870
  3539  001C0E                     u7550:
  3540  001C0E                     
  3541                           ; BSR set to: 0
  3542  001C0E  0E00               	movlw	0
  3543  001C10  6FBD               	movwf	(_efgtoa$2097+1)& (0+255),b
  3544  001C12  0E2B               	movlw	43
  3545  001C14  6FBC               	movwf	_efgtoa$2097& (0+255),b
  3546  001C16  EF11  F00E         	goto	l6872
  3547  001C1A                     l6870:
  3548                           
  3549                           ; BSR set to: 0
  3550  001C1A  0E00               	movlw	0
  3551  001C1C  6FBD               	movwf	(_efgtoa$2097+1)& (0+255),b
  3552  001C1E  0E2D               	movlw	45
  3553  001C20  6FBC               	movwf	_efgtoa$2097& (0+255),b
  3554  001C22                     l6872:
  3555                           
  3556                           ; BSR set to: 0
  3557  001C22  0E00               	movlw	low _dbuf
  3558  001C24  25E0               	addwf	efgtoa@i& (0+255),w,b
  3559  001C26  6ED9               	movwf	fsr2l,c
  3560  001C28  0E01               	movlw	high _dbuf
  3561  001C2A  21E1               	addwfc	(efgtoa@i+1)& (0+255),w,b
  3562  001C2C  6EDA               	movwf	fsr2h,c
  3563  001C2E  C0BC  FFDF         	movff	_efgtoa$2097,indf2
  3564  001C32                     
  3565                           ; BSR set to: 0
  3566                           ;C:\Program Files\Microchip\xc8\v2.32\pic\sources\c99\common\doprnt.c: 516:         --w;
  3567  001C32  07D4               	decf	efgtoa@w& (0+255),f,b
  3568  001C34  A0D8               	btfss	status,0,c
  3569  001C36  07D5               	decf	(efgtoa@w+1)& (0+255),f,b
  3570  001C38                     
  3571                           ; BSR set to: 0
  3572                           ;C:\Program Files\Microchip\xc8\v2.32\pic\sources\c99\common\doprnt.c: 518:         dbuf
      +                          [i] = (0 ? isupper((int)c) : ((unsigned)((int)c)-'A') < 26) ? 'E' : 'e';
  3573  001C38  07E0               	decf	efgtoa@i& (0+255),f,b
  3574  001C3A  A0D8               	btfss	status,0,c
  3575  001C3C  07E1               	decf	(efgtoa@i+1)& (0+255),f,b
  3576  001C3E                     
  3577                           ; BSR set to: 0
  3578  001C3E  0EBF               	movlw	191
  3579  001C40  6E39               	movwf	??_efgtoa^0,c
  3580  001C42  0EFF               	movlw	255
  3581  001C44  6E3A               	movwf	(??_efgtoa+1)^0,c
  3582  001C46  5038               	movf	efgtoa@c^0,w,c
  3583  001C48  6E3B               	movwf	(??_efgtoa+2)^0,c
  3584  001C4A  6A3C               	clrf	(??_efgtoa+3)^0,c
  3585  001C4C  5039               	movf	??_efgtoa^0,w,c
  3586  001C4E  263B               	addwf	(??_efgtoa+2)^0,f,c
  3587  001C50  503A               	movf	(??_efgtoa+1)^0,w,c
  3588  001C52  223C               	addwfc	(??_efgtoa+3)^0,f,c
  3589  001C54  503C               	movf	(??_efgtoa+3)^0,w,c
  3590  001C56  E10A               	bnz	u7560
  3591  001C58  0E1A               	movlw	26
  3592  001C5A  5C3B               	subwf	(??_efgtoa+2)^0,w,c
  3593  001C5C  A0D8               	btfss	status,0,c
  3594  001C5E  EF33  F00E         	goto	u7561
  3595  001C62  EF36  F00E         	goto	u7560
  3596  001C66                     u7561:
  3597  001C66  0E01               	movlw	1
  3598  001C68  EF37  F00E         	goto	u7570
  3599  001C6C                     u7560:
  3600  001C6C  0E00               	movlw	0
  3601  001C6E                     u7570:
  3602  001C6E  6FC0               	movwf	_efgtoa$2099& (0+255),b
  3603  001C70  6BC1               	clrf	(_efgtoa$2099+1)& (0+255),b
  3604  001C72                     
  3605                           ; BSR set to: 0
  3606  001C72  51C0               	movf	_efgtoa$2099& (0+255),w,b
  3607  001C74  11C1               	iorwf	(_efgtoa$2099+1)& (0+255),w,b
  3608  001C76  A4D8               	btfss	status,2,c
  3609  001C78  EF40  F00E         	goto	u7581
  3610  001C7C  EF42  F00E         	goto	u7580
  3611  001C80                     u7581:
  3612  001C80  EF48  F00E         	goto	l6886
  3613  001C84                     u7580:
  3614  001C84                     
  3615                           ; BSR set to: 0
  3616  001C84  0E00               	movlw	0
  3617  001C86  6FBF               	movwf	(_efgtoa$2098+1)& (0+255),b
  3618  001C88  0E65               	movlw	101
  3619  001C8A  6FBE               	movwf	_efgtoa$2098& (0+255),b
  3620  001C8C  EF4C  F00E         	goto	l6888
  3621  001C90                     l6886:
  3622                           
  3623                           ; BSR set to: 0
  3624  001C90  0E00               	movlw	0
  3625  001C92  6FBF               	movwf	(_efgtoa$2098+1)& (0+255),b
  3626  001C94  0E45               	movlw	69
  3627  001C96  6FBE               	movwf	_efgtoa$2098& (0+255),b
  3628  001C98                     l6888:
  3629                           
  3630                           ; BSR set to: 0
  3631  001C98  0E00               	movlw	low _dbuf
  3632  001C9A  25E0               	addwf	efgtoa@i& (0+255),w,b
  3633  001C9C  6ED9               	movwf	fsr2l,c
  3634  001C9E  0E01               	movlw	high _dbuf
  3635  001CA0  21E1               	addwfc	(efgtoa@i+1)& (0+255),w,b
  3636  001CA2  6EDA               	movwf	fsr2h,c
  3637  001CA4  C0BE  FFDF         	movff	_efgtoa$2098,indf2
  3638  001CA8                     
  3639                           ; BSR set to: 0
  3640                           ;C:\Program Files\Microchip\xc8\v2.32\pic\sources\c99\common\doprnt.c: 519:         --w;
  3641  001CA8  07D4               	decf	efgtoa@w& (0+255),f,b
  3642  001CAA  A0D8               	btfss	status,0,c
  3643  001CAC  07D5               	decf	(efgtoa@w+1)& (0+255),f,b
  3644  001CAE                     
  3645                           ; BSR set to: 0
  3646                           ;C:\Program Files\Microchip\xc8\v2.32\pic\sources\c99\common\doprnt.c: 520:         strc
      +                          py(&dbuf[n], &dbuf[i]);
  3647  001CAE  0E00               	movlw	low _dbuf
  3648  001CB0  25E8               	addwf	efgtoa@n& (0+255),w,b
  3649  001CB2  6E05               	movwf	strcpy@dest^0,c
  3650  001CB4  0E01               	movlw	high _dbuf
  3651  001CB6  21E9               	addwfc	(efgtoa@n+1)& (0+255),w,b
  3652  001CB8  6E06               	movwf	(strcpy@dest+1)^0,c
  3653  001CBA  0E00               	movlw	low _dbuf
  3654  001CBC  25E0               	addwf	efgtoa@i& (0+255),w,b
  3655  001CBE  6E07               	movwf	strcpy@src^0,c
  3656  001CC0  0E01               	movlw	high _dbuf
  3657  001CC2  21E1               	addwfc	(efgtoa@i+1)& (0+255),w,b
  3658  001CC4  6E08               	movwf	(strcpy@src+1)^0,c
  3659  001CC6  ECCA  F01F         	call	_strcpy	;wreg free
  3660  001CCA                     l6894:
  3661                           
  3662                           ;C:\Program Files\Microchip\xc8\v2.32\pic\sources\c99\common\doprnt.c: 524:     return p
      +                          ad(fp, &dbuf[0], w);
  3663  001CCA  C032  F017         	movff	efgtoa@fp,pad@fp
  3664  001CCE  C033  F018         	movff	efgtoa@fp+1,pad@fp+1
  3665  001CD2  0E00               	movlw	low _dbuf
  3666  001CD4  6E19               	movwf	pad@buf^0,c
  3667  001CD6  0E01               	movlw	high _dbuf
  3668  001CD8  6E1A               	movwf	(pad@buf+1)^0,c
  3669  001CDA  C0D4  F01B         	movff	efgtoa@w,pad@p
  3670  001CDE  C0D5  F01C         	movff	efgtoa@w+1,pad@p+1
  3671  001CE2  EC4D  F01A         	call	_pad	;wreg free
  3672  001CE6  C017  F032         	movff	?_pad,?_efgtoa
  3673  001CEA  C018  F033         	movff	?_pad+1,?_efgtoa+1
  3674  001CEE                     l1456:
  3675  001CEE  0012               	return		;funcret
  3676  001CF0                     __end_of_efgtoa:
  3677                           	callstack 0
  3678                           
  3679 ;; *************** function _tolower *****************
  3680 ;; Defined at:
  3681 ;;		line 4 in file "C:\Program Files\Microchip\xc8\v2.32\pic\sources\c99\common\tolower.c"
  3682 ;; Parameters:    Size  Location     Type
  3683 ;;  c               2   10[COMRAM] int 
  3684 ;; Auto vars:     Size  Location     Type
  3685 ;;		None
  3686 ;; Return value:  Size  Location     Type
  3687 ;;                  2   10[COMRAM] int 
  3688 ;; Registers used:
  3689 ;;		wreg, status,2, status,0
  3690 ;; Tracked objects:
  3691 ;;		On entry : 0/0
  3692 ;;		On exit  : 0/0
  3693 ;;		Unchanged: 0/0
  3694 ;; Data sizes:     COMRAM   BANK0   BANK1   BANK2   BANK3   BANK4   BANK5   BANK6   BANK7   BANK8   BANK9  BANK10  BANK1
      +1  BANK12  BANK13  BANK14  BANK15
  3695 ;;      Params:         2       0       0       0       0       0       0       0       0       0       0       0       
      +0       0       0       0       0
  3696 ;;      Locals:         2       0       0       0       0       0       0       0       0       0       0       0       
      +0       0       0       0       0
  3697 ;;      Temps:          4       0       0       0       0       0       0       0       0       0       0       0       
      +0       0       0       0       0
  3698 ;;      Totals:         8       0       0       0       0       0       0       0       0       0       0       0       
      +0       0       0       0       0
  3699 ;;Total ram usage:        8 bytes
  3700 ;; Hardware stack levels used: 1
  3701 ;; Hardware stack levels required when called: 5
  3702 ;; This function calls:
  3703 ;;		_isupper
  3704 ;; This function is called by:
  3705 ;;		_efgtoa
  3706 ;;		_vfpfcnvrt
  3707 ;; This function uses a non-reentrant model
  3708 ;;
  3709                           
  3710                           	psect	text6
  3711  003F34                     __ptext6:
  3712                           	callstack 0
  3713  003F34                     _tolower:
  3714                           	callstack 22
  3715  003F34  0EBF               	movlw	191
  3716  003F36  6E0D               	movwf	??_tolower^0,c
  3717  003F38  0EFF               	movlw	255
  3718  003F3A  6E0E               	movwf	(??_tolower+1)^0,c
  3719  003F3C  C00B  F00F         	movff	tolower@c,??_tolower+2
  3720  003F40  C00C  F010         	movff	tolower@c+1,??_tolower+3
  3721  003F44  500D               	movf	??_tolower^0,w,c
  3722  003F46  260F               	addwf	(??_tolower+2)^0,f,c
  3723  003F48  500E               	movf	(??_tolower+1)^0,w,c
  3724  003F4A  2210               	addwfc	(??_tolower+3)^0,f,c
  3725  003F4C  5010               	movf	(??_tolower+3)^0,w,c
  3726  003F4E  E10A               	bnz	u6920
  3727  003F50  0E1A               	movlw	26
  3728  003F52  5C0F               	subwf	(??_tolower+2)^0,w,c
  3729  003F54  A0D8               	btfss	status,0,c
  3730  003F56  EFAF  F01F         	goto	u6921
  3731  003F5A  EFB2  F01F         	goto	u6920
  3732  003F5E                     u6921:
  3733  003F5E  0E01               	movlw	1
  3734  003F60  EFB3  F01F         	goto	u6930
  3735  003F64                     u6920:
  3736  003F64  0E00               	movlw	0
  3737  003F66                     u6930:
  3738  003F66  6E11               	movwf	_tolower$2207^0,c
  3739  003F68  6A12               	clrf	(_tolower$2207+1)^0,c
  3740  003F6A  5011               	movf	_tolower$2207^0,w,c
  3741  003F6C  1012               	iorwf	(_tolower$2207+1)^0,w,c
  3742  003F6E  B4D8               	btfsc	status,2,c
  3743  003F70  EFBC  F01F         	goto	u6941
  3744  003F74  EFBE  F01F         	goto	u6940
  3745  003F78                     u6941:
  3746  003F78  EFC5  F01F         	goto	l1628
  3747  003F7C                     u6940:
  3748  003F7C  0E20               	movlw	32
  3749  003F7E  100B               	iorwf	tolower@c^0,w,c
  3750  003F80  6E0B               	movwf	?_tolower^0,c
  3751  003F82  500C               	movf	(tolower@c+1)^0,w,c
  3752  003F84  6E0C               	movwf	(?_tolower+1)^0,c
  3753  003F86  EFC9  F01F         	goto	l1633
  3754  003F8A                     l1628:
  3755  003F8A  C00B  F00B         	movff	tolower@c,?_tolower
  3756  003F8E  C00C  F00C         	movff	tolower@c+1,?_tolower+1
  3757  003F92                     l1633:
  3758  003F92  0012               	return		;funcret
  3759  003F94                     __end_of_tolower:
  3760                           	callstack 0
  3761                           
  3762 ;; *************** function _isupper *****************
  3763 ;; Defined at:
  3764 ;;		line 5 in file "C:\Program Files\Microchip\xc8\v2.32\pic\sources\c99\common\isupper.c"
  3765 ;; Parameters:    Size  Location     Type
  3766 ;;  c               2    4[COMRAM] int 
  3767 ;; Auto vars:     Size  Location     Type
  3768 ;;		None
  3769 ;; Return value:  Size  Location     Type
  3770 ;;                  2    4[COMRAM] int 
  3771 ;; Registers used:
  3772 ;;		wreg, status,2, status,0
  3773 ;; Tracked objects:
  3774 ;;		On entry : 0/0
  3775 ;;		On exit  : 0/0
  3776 ;;		Unchanged: 0/0
  3777 ;; Data sizes:     COMRAM   BANK0   BANK1   BANK2   BANK3   BANK4   BANK5   BANK6   BANK7   BANK8   BANK9  BANK10  BANK1
      +1  BANK12  BANK13  BANK14  BANK15
  3778 ;;      Params:         2       0       0       0       0       0       0       0       0       0       0       0       
      +0       0       0       0       0
  3779 ;;      Locals:         0       0       0       0       0       0       0       0       0       0       0       0       
      +0       0       0       0       0
  3780 ;;      Temps:          4       0       0       0       0       0       0       0       0       0       0       0       
      +0       0       0       0       0
  3781 ;;      Totals:         6       0       0       0       0       0       0       0       0       0       0       0       
      +0       0       0       0       0
  3782 ;;Total ram usage:        6 bytes
  3783 ;; Hardware stack levels used: 1
  3784 ;; Hardware stack levels required when called: 4
  3785 ;; This function calls:
  3786 ;;		Nothing
  3787 ;; This function is called by:
  3788 ;;		_efgtoa
  3789 ;;		_vfpfcnvrt
  3790 ;;		_tolower
  3791 ;; This function uses a non-reentrant model
  3792 ;;
  3793                           
  3794                           	psect	text7
  3795  0041E0                     __ptext7:
  3796                           	callstack 0
  3797  0041E0                     _isupper:
  3798                           	callstack 22
  3799  0041E0  0EBF               	movlw	191
  3800  0041E2  6E07               	movwf	??_isupper^0,c
  3801  0041E4  0EFF               	movlw	255
  3802  0041E6  6E08               	movwf	(??_isupper+1)^0,c
  3803  0041E8  C005  F009         	movff	isupper@c,??_isupper+2
  3804  0041EC  C006  F00A         	movff	isupper@c+1,??_isupper+3
  3805  0041F0  5007               	movf	??_isupper^0,w,c
  3806  0041F2  2609               	addwf	(??_isupper+2)^0,f,c
  3807  0041F4  5008               	movf	(??_isupper+1)^0,w,c
  3808  0041F6  220A               	addwfc	(??_isupper+3)^0,f,c
  3809  0041F8  500A               	movf	(??_isupper+3)^0,w,c
  3810  0041FA  E10A               	bnz	u6070
  3811  0041FC  0E1A               	movlw	26
  3812  0041FE  5C09               	subwf	(??_isupper+2)^0,w,c
  3813  004200  A0D8               	btfss	status,0,c
  3814  004202  EF05  F021         	goto	u6071
  3815  004206  EF08  F021         	goto	u6070
  3816  00420A                     u6071:
  3817  00420A  0E01               	movlw	1
  3818  00420C  EF09  F021         	goto	u6080
  3819  004210                     u6070:
  3820  004210  0E00               	movlw	0
  3821  004212                     u6080:
  3822  004212  6E05               	movwf	?_isupper^0,c
  3823  004214  6A06               	clrf	(?_isupper+1)^0,c
  3824  004216  0012               	return		;funcret
  3825  004218                     __end_of_isupper:
  3826                           	callstack 0
  3827                           
  3828 ;; *************** function _strcpy *****************
  3829 ;; Defined at:
  3830 ;;		line 3 in file "C:\Program Files\Microchip\xc8\v2.32\pic\sources\c99\common\strcpy.c"
  3831 ;; Parameters:    Size  Location     Type
  3832 ;;  dest            2    4[COMRAM] PTR unsigned char 
  3833 ;;		 -> dbuf(80), 
  3834 ;;  src             2    6[COMRAM] PTR const unsigned char 
  3835 ;;		 -> STR_7(4), STR_6(4), STR_3(4), STR_2(4), 
  3836 ;;		 -> dbuf(80), 
  3837 ;; Auto vars:     Size  Location     Type
  3838 ;;  d               2   12[COMRAM] PTR unsigned char 
  3839 ;;		 -> dbuf(80), 
  3840 ;;  s               2   10[COMRAM] PTR const unsigned char 
  3841 ;;		 -> STR_7(4), STR_6(4), STR_3(4), STR_2(4), 
  3842 ;;		 -> dbuf(80), 
  3843 ;; Return value:  Size  Location     Type
  3844 ;;                  2    4[COMRAM] PTR unsigned char 
  3845 ;; Registers used:
  3846 ;;		wreg, fsr0l, fsr0h, fsr2l, fsr2h, status,2, status,0, tblptrl, tblptrh, tblptru
  3847 ;; Tracked objects:
  3848 ;;		On entry : 0/0
  3849 ;;		On exit  : 0/0
  3850 ;;		Unchanged: 0/0
  3851 ;; Data sizes:     COMRAM   BANK0   BANK1   BANK2   BANK3   BANK4   BANK5   BANK6   BANK7   BANK8   BANK9  BANK10  BANK1
      +1  BANK12  BANK13  BANK14  BANK15
  3852 ;;      Params:         4       0       0       0       0       0       0       0       0       0       0       0       
      +0       0       0       0       0
  3853 ;;      Locals:         4       0       0       0       0       0       0       0       0       0       0       0       
      +0       0       0       0       0
  3854 ;;      Temps:          2       0       0       0       0       0       0       0       0       0       0       0       
      +0       0       0       0       0
  3855 ;;      Totals:        10       0       0       0       0       0       0       0       0       0       0       0       
      +0       0       0       0       0
  3856 ;;Total ram usage:       10 bytes
  3857 ;; Hardware stack levels used: 1
  3858 ;; Hardware stack levels required when called: 4
  3859 ;; This function calls:
  3860 ;;		Nothing
  3861 ;; This function is called by:
  3862 ;;		_efgtoa
  3863 ;; This function uses a non-reentrant model
  3864 ;;
  3865                           
  3866                           	psect	text8
  3867  003F94                     __ptext8:
  3868                           	callstack 0
  3869  003F94                     _strcpy:
  3870                           	callstack 22
  3871  003F94  C007  F00B         	movff	strcpy@src,strcpy@s
  3872  003F98  C008  F00C         	movff	strcpy@src+1,strcpy@s+1
  3873  003F9C  C005  F00D         	movff	strcpy@dest,strcpy@d
  3874  003FA0  C006  F00E         	movff	strcpy@dest+1,strcpy@d+1
  3875  003FA4                     l6550:
  3876  003FA4  500B               	movf	strcpy@s^0,w,c
  3877  003FA6  6E09               	movwf	??_strcpy^0,c
  3878  003FA8  500C               	movf	(strcpy@s+1)^0,w,c
  3879  003FAA  6E0A               	movwf	(??_strcpy+1)^0,c
  3880  003FAC  4A0B               	infsnz	strcpy@s^0,f,c
  3881  003FAE  2A0C               	incf	(strcpy@s+1)^0,f,c
  3882  003FB0  C009  FFF6         	movff	??_strcpy,tblptrl
  3883  003FB4  C00A  FFF7         	movff	??_strcpy+1,tblptrh
  3884  003FB8  0E00               	movlw	low (__smallconst shr (0+16))
  3885  003FBA  6EF8               	movwf	tblptru,c
  3886  003FBC  C00D  FFD9         	movff	strcpy@d,fsr2l
  3887  003FC0  C00E  FFDA         	movff	strcpy@d+1,fsr2h
  3888  003FC4  4A0D               	infsnz	strcpy@d^0,f,c
  3889  003FC6  2A0E               	incf	(strcpy@d+1)^0,f,c
  3890  003FC8  0E0F               	movlw	(high __ramtop+-1)
  3891  003FCA  64F7               	cpfsgt	tblptrh,c
  3892  003FCC  D003               	bra	u6907
  3893  003FCE  0008               	tblrd		*
  3894  003FD0  50F5               	movf	tablat,w,c
  3895  003FD2  D005               	bra	u6900
  3896  003FD4                     u6907:
  3897  003FD4  CFF6 FFE9          	movff	tblptrl,fsr0l
  3898  003FD8  CFF7 FFEA          	movff	tblptrh,fsr0h
  3899  003FDC  50EF               	movf	indf0,w,c
  3900  003FDE                     u6900:
  3901  003FDE  6EDF               	movwf	indf2,c
  3902  003FE0  50DF               	movf	indf2,w,c
  3903  003FE2  A4D8               	btfss	status,2,c
  3904  003FE4  EFF6  F01F         	goto	u6911
  3905  003FE8  EFF8  F01F         	goto	u6910
  3906  003FEC                     u6911:
  3907  003FEC  EFD2  F01F         	goto	l6550
  3908  003FF0                     u6910:
  3909  003FF0  0012               	return		;funcret
  3910  003FF2                     __end_of_strcpy:
  3911                           	callstack 0
  3912                           
  3913 ;; *************** function _pad *****************
  3914 ;; Defined at:
  3915 ;;		line 72 in file "C:\Program Files\Microchip\xc8\v2.32\pic\sources\c99\common\doprnt.c"
  3916 ;; Parameters:    Size  Location     Type
  3917 ;;  fp              2   22[COMRAM] PTR struct _IO_FILE
  3918 ;;		 -> NULL(0), 
  3919 ;;  buf             2   24[COMRAM] PTR unsigned char 
  3920 ;;		 -> dbuf(80), 
  3921 ;;  p               2   26[COMRAM] int 
  3922 ;; Auto vars:     Size  Location     Type
  3923 ;;  w               2   31[COMRAM] int 
  3924 ;;  i               2   29[COMRAM] int 
  3925 ;; Return value:  Size  Location     Type
  3926 ;;                  2   22[COMRAM] int 
  3927 ;; Registers used:
  3928 ;;		wreg, fsr1l, fsr1h, fsr2l, fsr2h, status,2, status,0, cstack
  3929 ;; Tracked objects:
  3930 ;;		On entry : 0/0
  3931 ;;		On exit  : 0/0
  3932 ;;		Unchanged: 0/0
  3933 ;; Data sizes:     COMRAM   BANK0   BANK1   BANK2   BANK3   BANK4   BANK5   BANK6   BANK7   BANK8   BANK9  BANK10  BANK1
      +1  BANK12  BANK13  BANK14  BANK15
  3934 ;;      Params:         6       0       0       0       0       0       0       0       0       0       0       0       
      +0       0       0       0       0
  3935 ;;      Locals:         4       0       0       0       0       0       0       0       0       0       0       0       
      +0       0       0       0       0
  3936 ;;      Temps:          1       0       0       0       0       0       0       0       0       0       0       0       
      +0       0       0       0       0
  3937 ;;      Totals:        11       0       0       0       0       0       0       0       0       0       0       0       
      +0       0       0       0       0
  3938 ;;Total ram usage:       11 bytes
  3939 ;; Hardware stack levels used: 1
  3940 ;; Hardware stack levels required when called: 8
  3941 ;; This function calls:
  3942 ;;		_fputc
  3943 ;;		_fputs
  3944 ;;		_strlen
  3945 ;; This function is called by:
  3946 ;;		_efgtoa
  3947 ;; This function uses a non-reentrant model
  3948 ;;
  3949                           
  3950                           	psect	text9
  3951  00349A                     __ptext9:
  3952                           	callstack 0
  3953  00349A                     _pad:
  3954                           	callstack 18
  3955  00349A                     
  3956                           ;C:\Program Files\Microchip\xc8\v2.32\pic\sources\c99\common\doprnt.c: 72: static int pa
      +                          d(FILE *fp, char *buf, int p);C:\Program Files\Microchip\xc8\v2.32\pic\sources\c99\commo
      +                          n\doprnt.c: 73: {;C:\Program Files\Microchip\xc8\v2.32\pic\sources\c99\common\doprnt.c: 
      +                          74:     int i, w;;C:\Program Files\Microchip\xc8\v2.32\pic\sources\c99\common\doprnt.c: 
      +                          77:     if (flags & (1 << 0)) {
  3957  00349A  0100               	movlb	0	; () banked
  3958  00349C  A1B1               	btfss	_flags& (0+255),0,b
  3959  00349E  EF53  F01A         	goto	u6791
  3960  0034A2  EF55  F01A         	goto	u6790
  3961  0034A6                     u6791:
  3962  0034A6  EF5F  F01A         	goto	l6508
  3963  0034AA                     u6790:
  3964  0034AA                     
  3965                           ; BSR set to: 0
  3966                           ;C:\Program Files\Microchip\xc8\v2.32\pic\sources\c99\common\doprnt.c: 78:         fputs
      +                          ((const char *)buf, fp);
  3967  0034AA  C019  F010         	movff	pad@buf,fputs@s
  3968  0034AE  C01A  F011         	movff	pad@buf+1,fputs@s+1
  3969  0034B2  C017  F012         	movff	pad@fp,fputs@fp
  3970  0034B6  C018  F013         	movff	pad@fp+1,fputs@fp+1
  3971  0034BA  EC6B  F020         	call	_fputs	;wreg free
  3972  0034BE                     l6508:
  3973                           
  3974                           ;C:\Program Files\Microchip\xc8\v2.32\pic\sources\c99\common\doprnt.c: 82:     w = (p < 
      +                          0) ? 0 : p;
  3975  0034BE  BE1C               	btfsc	(pad@p+1)^0,7,c
  3976  0034C0  EF64  F01A         	goto	u6801
  3977  0034C4  EF66  F01A         	goto	u6800
  3978  0034C8                     u6801:
  3979  0034C8  EF6C  F01A         	goto	l6512
  3980  0034CC                     u6800:
  3981  0034CC  C01B  F020         	movff	pad@p,pad@w
  3982  0034D0  C01C  F021         	movff	pad@p+1,pad@w+1
  3983  0034D4  EF70  F01A         	goto	l1433
  3984  0034D8                     l6512:
  3985  0034D8  0E00               	movlw	0
  3986  0034DA  6E21               	movwf	(pad@w+1)^0,c
  3987  0034DC  0E00               	movlw	0
  3988  0034DE  6E20               	movwf	pad@w^0,c
  3989  0034E0                     l1433:
  3990                           
  3991                           ;C:\Program Files\Microchip\xc8\v2.32\pic\sources\c99\common\doprnt.c: 83:     i = 0;
  3992  0034E0  0E00               	movlw	0
  3993  0034E2  6E1F               	movwf	(pad@i+1)^0,c
  3994  0034E4  0E00               	movlw	0
  3995  0034E6  6E1E               	movwf	pad@i^0,c
  3996                           
  3997                           ;C:\Program Files\Microchip\xc8\v2.32\pic\sources\c99\common\doprnt.c: 84:     while (i 
      +                          < w) {
  3998  0034E8  EF82  F01A         	goto	l6518
  3999  0034EC                     l6514:
  4000                           
  4001                           ;C:\Program Files\Microchip\xc8\v2.32\pic\sources\c99\common\doprnt.c: 85:         fputc
      +                          (' ', fp);
  4002  0034EC  0E00               	movlw	0
  4003  0034EE  6E08               	movwf	(fputc@c+1)^0,c
  4004  0034F0  0E20               	movlw	32
  4005  0034F2  6E07               	movwf	fputc@c^0,c
  4006  0034F4  C017  F009         	movff	pad@fp,fputc@fp
  4007  0034F8  C018  F00A         	movff	pad@fp+1,fputc@fp+1
  4008  0034FC  ECD3  F01C         	call	_fputc	;wreg free
  4009  003500                     
  4010                           ;C:\Program Files\Microchip\xc8\v2.32\pic\sources\c99\common\doprnt.c: 86:         ++i;
  4011  003500  4A1E               	infsnz	pad@i^0,f,c
  4012  003502  2A1F               	incf	(pad@i+1)^0,f,c
  4013  003504                     l6518:
  4014                           
  4015                           ;C:\Program Files\Microchip\xc8\v2.32\pic\sources\c99\common\doprnt.c: 84:     while (i 
      +                          < w) {
  4016  003504  5020               	movf	pad@w^0,w,c
  4017  003506  5C1E               	subwf	pad@i^0,w,c
  4018  003508  501F               	movf	(pad@i+1)^0,w,c
  4019  00350A  0A80               	xorlw	128
  4020  00350C  6E1D               	movwf	??_pad^0,c
  4021  00350E  5021               	movf	(pad@w+1)^0,w,c
  4022  003510  0A80               	xorlw	128
  4023  003512  581D               	subwfb	??_pad^0,w,c
  4024  003514  A0D8               	btfss	status,0,c
  4025  003516  EF8F  F01A         	goto	u6811
  4026  00351A  EF91  F01A         	goto	u6810
  4027  00351E                     u6811:
  4028  00351E  EF76  F01A         	goto	l6514
  4029  003522                     u6810:
  4030  003522                     
  4031                           ;C:\Program Files\Microchip\xc8\v2.32\pic\sources\c99\common\doprnt.c: 90:     if (!(fla
      +                          gs & (1 << 0))) {
  4032  003522  0100               	movlb	0	; () banked
  4033  003524  B1B1               	btfsc	_flags& (0+255),0,b
  4034  003526  EF97  F01A         	goto	u6821
  4035  00352A  EF99  F01A         	goto	u6820
  4036  00352E                     u6821:
  4037  00352E  EFA3  F01A         	goto	l6522
  4038  003532                     u6820:
  4039  003532                     
  4040                           ; BSR set to: 0
  4041                           ;C:\Program Files\Microchip\xc8\v2.32\pic\sources\c99\common\doprnt.c: 91:         fputs
      +                          ((const char *)buf, fp);
  4042  003532  C019  F010         	movff	pad@buf,fputs@s
  4043  003536  C01A  F011         	movff	pad@buf+1,fputs@s+1
  4044  00353A  C017  F012         	movff	pad@fp,fputs@fp
  4045  00353E  C018  F013         	movff	pad@fp+1,fputs@fp+1
  4046  003542  EC6B  F020         	call	_fputs	;wreg free
  4047  003546                     l6522:
  4048                           
  4049                           ;C:\Program Files\Microchip\xc8\v2.32\pic\sources\c99\common\doprnt.c: 94:     return (i
      +                          nt)(strlen(buf) + (size_t)w);
  4050  003546  C019  F005         	movff	pad@buf,strlen@s
  4051  00354A  C01A  F006         	movff	pad@buf+1,strlen@s+1
  4052  00354E  EC28  F021         	call	_strlen	;wreg free
  4053  003552  5020               	movf	pad@w^0,w,c
  4054  003554  2405               	addwf	?_strlen^0,w,c
  4055  003556  6E17               	movwf	?_pad^0,c
  4056  003558  5021               	movf	(pad@w+1)^0,w,c
  4057  00355A  2006               	addwfc	(?_strlen+1)^0,w,c
  4058  00355C  6E18               	movwf	(?_pad+1)^0,c
  4059  00355E  0012               	return		;funcret
  4060  003560                     __end_of_pad:
  4061                           	callstack 0
  4062                           
  4063 ;; *************** function _strlen *****************
  4064 ;; Defined at:
  4065 ;;		line 5 in file "C:\Program Files\Microchip\xc8\v2.32\pic\sources\c99\common\strlen.c"
  4066 ;; Parameters:    Size  Location     Type
  4067 ;;  s               2    4[COMRAM] PTR const unsigned char 
  4068 ;;		 -> dbuf(80), 
  4069 ;; Auto vars:     Size  Location     Type
  4070 ;;  a               2    6[COMRAM] PTR const unsigned char 
  4071 ;;		 -> dbuf(80), 
  4072 ;; Return value:  Size  Location     Type
  4073 ;;                  2    4[COMRAM] unsigned int 
  4074 ;; Registers used:
  4075 ;;		wreg, fsr2l, fsr2h, status,2, status,0
  4076 ;; Tracked objects:
  4077 ;;		On entry : 0/0
  4078 ;;		On exit  : 0/0
  4079 ;;		Unchanged: 0/0
  4080 ;; Data sizes:     COMRAM   BANK0   BANK1   BANK2   BANK3   BANK4   BANK5   BANK6   BANK7   BANK8   BANK9  BANK10  BANK1
      +1  BANK12  BANK13  BANK14  BANK15
  4081 ;;      Params:         2       0       0       0       0       0       0       0       0       0       0       0       
      +0       0       0       0       0
  4082 ;;      Locals:         2       0       0       0       0       0       0       0       0       0       0       0       
      +0       0       0       0       0
  4083 ;;      Temps:          0       0       0       0       0       0       0       0       0       0       0       0       
      +0       0       0       0       0
  4084 ;;      Totals:         4       0       0       0       0       0       0       0       0       0       0       0       
      +0       0       0       0       0
  4085 ;;Total ram usage:        4 bytes
  4086 ;; Hardware stack levels used: 1
  4087 ;; Hardware stack levels required when called: 4
  4088 ;; This function calls:
  4089 ;;		Nothing
  4090 ;; This function is called by:
  4091 ;;		_pad
  4092 ;; This function uses a non-reentrant model
  4093 ;;
  4094                           
  4095                           	psect	text10
  4096  004250                     __ptext10:
  4097                           	callstack 0
  4098  004250                     _strlen:
  4099                           	callstack 21
  4100  004250  C005  F007         	movff	strlen@s,strlen@a
  4101  004254  C006  F008         	movff	strlen@s+1,strlen@a+1
  4102  004258  EF30  F021         	goto	l6050
  4103  00425C                     l6048:
  4104  00425C  4A05               	infsnz	strlen@s^0,f,c
  4105  00425E  2A06               	incf	(strlen@s+1)^0,f,c
  4106  004260                     l6050:
  4107  004260  C005  FFD9         	movff	strlen@s,fsr2l
  4108  004264  C006  FFDA         	movff	strlen@s+1,fsr2h
  4109  004268  50DF               	movf	indf2,w,c
  4110  00426A  A4D8               	btfss	status,2,c
  4111  00426C  EF3A  F021         	goto	u6061
  4112  004270  EF3C  F021         	goto	u6060
  4113  004274                     u6061:
  4114  004274  EF2E  F021         	goto	l6048
  4115  004278                     u6060:
  4116  004278  5007               	movf	strlen@a^0,w,c
  4117  00427A  5C05               	subwf	strlen@s^0,w,c
  4118  00427C  6E05               	movwf	?_strlen^0,c
  4119  00427E  5008               	movf	(strlen@a+1)^0,w,c
  4120  004280  5806               	subwfb	(strlen@s+1)^0,w,c
  4121  004282  6E06               	movwf	(?_strlen+1)^0,c
  4122  004284  0012               	return		;funcret
  4123  004286                     __end_of_strlen:
  4124                           	callstack 0
  4125                           
  4126 ;; *************** function _fputs *****************
  4127 ;; Defined at:
  4128 ;;		line 8 in file "C:\Program Files\Microchip\xc8\v2.32\pic\sources\c99\common\nf_fputs.c"
  4129 ;; Parameters:    Size  Location     Type
  4130 ;;  s               2   15[COMRAM] PTR const unsigned char 
  4131 ;;		 -> dbuf(80), 
  4132 ;;  fp              2   17[COMRAM] PTR struct _IO_FILE
  4133 ;;		 -> NULL(0), 
  4134 ;; Auto vars:     Size  Location     Type
  4135 ;;  i               2   20[COMRAM] int 
  4136 ;;  c               1   19[COMRAM] unsigned char 
  4137 ;; Return value:  Size  Location     Type
  4138 ;;                  2   15[COMRAM] int 
  4139 ;; Registers used:
  4140 ;;		wreg, fsr1l, fsr1h, fsr2l, fsr2h, status,2, status,0, cstack
  4141 ;; Tracked objects:
  4142 ;;		On entry : 0/0
  4143 ;;		On exit  : 0/0
  4144 ;;		Unchanged: 0/0
  4145 ;; Data sizes:     COMRAM   BANK0   BANK1   BANK2   BANK3   BANK4   BANK5   BANK6   BANK7   BANK8   BANK9  BANK10  BANK1
      +1  BANK12  BANK13  BANK14  BANK15
  4146 ;;      Params:         4       0       0       0       0       0       0       0       0       0       0       0       
      +0       0       0       0       0
  4147 ;;      Locals:         3       0       0       0       0       0       0       0       0       0       0       0       
      +0       0       0       0       0
  4148 ;;      Temps:          0       0       0       0       0       0       0       0       0       0       0       0       
      +0       0       0       0       0
  4149 ;;      Totals:         7       0       0       0       0       0       0       0       0       0       0       0       
      +0       0       0       0       0
  4150 ;;Total ram usage:        7 bytes
  4151 ;; Hardware stack levels used: 1
  4152 ;; Hardware stack levels required when called: 7
  4153 ;; This function calls:
  4154 ;;		_fputc
  4155 ;; This function is called by:
  4156 ;;		_pad
  4157 ;; This function uses a non-reentrant model
  4158 ;;
  4159                           
  4160                           	psect	text11
  4161  0040D6                     __ptext11:
  4162                           	callstack 0
  4163  0040D6                     _fputs:
  4164                           	callstack 18
  4165  0040D6  0E00               	movlw	0
  4166  0040D8  6E16               	movwf	(fputs@i+1)^0,c
  4167  0040DA  0E00               	movlw	0
  4168  0040DC  6E15               	movwf	fputs@i^0,c
  4169  0040DE  EF7C  F020         	goto	l6044
  4170  0040E2                     l6040:
  4171  0040E2  C014  F007         	movff	fputs@c,fputc@c
  4172  0040E6  6A08               	clrf	(fputc@c+1)^0,c
  4173  0040E8  C012  F009         	movff	fputs@fp,fputc@fp
  4174  0040EC  C013  F00A         	movff	fputs@fp+1,fputc@fp+1
  4175  0040F0  ECD3  F01C         	call	_fputc	;wreg free
  4176  0040F4  4A15               	infsnz	fputs@i^0,f,c
  4177  0040F6  2A16               	incf	(fputs@i+1)^0,f,c
  4178  0040F8                     l6044:
  4179  0040F8  5015               	movf	fputs@i^0,w,c
  4180  0040FA  2410               	addwf	fputs@s^0,w,c
  4181  0040FC  6ED9               	movwf	fsr2l,c
  4182  0040FE  5016               	movf	(fputs@i+1)^0,w,c
  4183  004100  2011               	addwfc	(fputs@s+1)^0,w,c
  4184  004102  6EDA               	movwf	fsr2h,c
  4185  004104  50DF               	movf	indf2,w,c
  4186  004106  6E14               	movwf	fputs@c^0,c
  4187  004108  5014               	movf	fputs@c^0,w,c
  4188  00410A  A4D8               	btfss	status,2,c
  4189  00410C  EF8A  F020         	goto	u6051
  4190  004110  EF8C  F020         	goto	u6050
  4191  004114                     u6051:
  4192  004114  EF71  F020         	goto	l6040
  4193  004118                     u6050:
  4194  004118  0012               	return		;funcret
  4195  00411A                     __end_of_fputs:
  4196                           	callstack 0
  4197                           
  4198 ;; *************** function _fputc *****************
  4199 ;; Defined at:
  4200 ;;		line 8 in file "C:\Program Files\Microchip\xc8\v2.32\pic\sources\c99\common\nf_fputc.c"
  4201 ;; Parameters:    Size  Location     Type
  4202 ;;  c               2    6[COMRAM] int 
  4203 ;;  fp              2    8[COMRAM] PTR struct _IO_FILE
  4204 ;;		 -> NULL(0), 
  4205 ;; Auto vars:     Size  Location     Type
  4206 ;;		None
  4207 ;; Return value:  Size  Location     Type
  4208 ;;                  2    6[COMRAM] int 
  4209 ;; Registers used:
  4210 ;;		wreg, fsr1l, fsr1h, fsr2l, fsr2h, status,2, status,0, cstack
  4211 ;; Tracked objects:
  4212 ;;		On entry : 0/0
  4213 ;;		On exit  : 0/0
  4214 ;;		Unchanged: 0/0
  4215 ;; Data sizes:     COMRAM   BANK0   BANK1   BANK2   BANK3   BANK4   BANK5   BANK6   BANK7   BANK8   BANK9  BANK10  BANK1
      +1  BANK12  BANK13  BANK14  BANK15
  4216 ;;      Params:         4       0       0       0       0       0       0       0       0       0       0       0       
      +0       0       0       0       0
  4217 ;;      Locals:         0       0       0       0       0       0       0       0       0       0       0       0       
      +0       0       0       0       0
  4218 ;;      Temps:          5       0       0       0       0       0       0       0       0       0       0       0       
      +0       0       0       0       0
  4219 ;;      Totals:         9       0       0       0       0       0       0       0       0       0       0       0       
      +0       0       0       0       0
  4220 ;;Total ram usage:        9 bytes
  4221 ;; Hardware stack levels used: 1
  4222 ;; Hardware stack levels required when called: 6
  4223 ;; This function calls:
  4224 ;;		_putch
  4225 ;; This function is called by:
  4226 ;;		_pad
  4227 ;;		_vfpfcnvrt
  4228 ;;		_fputs
  4229 ;; This function uses a non-reentrant model
  4230 ;;
  4231                           
  4232                           	psect	text12
  4233  0039A6                     __ptext12:
  4234                           	callstack 0
  4235  0039A6                     _fputc:
  4236                           	callstack 21
  4237  0039A6  5009               	movf	fputc@fp^0,w,c
  4238  0039A8  100A               	iorwf	(fputc@fp+1)^0,w,c
  4239  0039AA  B4D8               	btfsc	status,2,c
  4240  0039AC  EFDA  F01C         	goto	u5621
  4241  0039B0  EFDC  F01C         	goto	u5620
  4242  0039B4                     u5621:
  4243  0039B4  EFE5  F01C         	goto	l5826
  4244  0039B8                     u5620:
  4245  0039B8  5009               	movf	fputc@fp^0,w,c
  4246  0039BA  100A               	iorwf	(fputc@fp+1)^0,w,c
  4247  0039BC  A4D8               	btfss	status,2,c
  4248  0039BE  EFE3  F01C         	goto	u5631
  4249  0039C2  EFE5  F01C         	goto	u5630
  4250  0039C6                     u5631:
  4251  0039C6  EFEA  F01C         	goto	l5828
  4252  0039CA                     u5630:
  4253  0039CA                     l5826:
  4254  0039CA  5007               	movf	fputc@c^0,w,c
  4255  0039CC  ECB6  F022         	call	_putch
  4256  0039D0  EF1D  F01D         	goto	l1594
  4257  0039D4                     l5828:
  4258  0039D4  EE20 F004          	lfsr	2,4
  4259  0039D8  5009               	movf	fputc@fp^0,w,c
  4260  0039DA  26D9               	addwf	fsr2l,f,c
  4261  0039DC  500A               	movf	(fputc@fp+1)^0,w,c
  4262  0039DE  22DA               	addwfc	fsr2h,f,c
  4263  0039E0  50DE               	movf	postinc2,w,c
  4264  0039E2  10DE               	iorwf	postinc2,w,c
  4265  0039E4  B4D8               	btfsc	status,2,c
  4266  0039E6  EFF7  F01C         	goto	u5641
  4267  0039EA  EFF9  F01C         	goto	u5640
  4268  0039EE                     u5641:
  4269  0039EE  EF14  F01D         	goto	l5832
  4270  0039F2                     u5640:
  4271  0039F2  EE20 F004          	lfsr	2,4
  4272  0039F6  5009               	movf	fputc@fp^0,w,c
  4273  0039F8  26D9               	addwf	fsr2l,f,c
  4274  0039FA  500A               	movf	(fputc@fp+1)^0,w,c
  4275  0039FC  22DA               	addwfc	fsr2h,f,c
  4276  0039FE  EE10 F002          	lfsr	1,2
  4277  003A02  5009               	movf	fputc@fp^0,w,c
  4278  003A04  26E1               	addwf	fsr1l,f,c
  4279  003A06  500A               	movf	(fputc@fp+1)^0,w,c
  4280  003A08  22E2               	addwfc	fsr1h,f,c
  4281  003A0A  50DE               	movf	postinc2,w,c
  4282  003A0C  5CE6               	subwf	postinc1,w,c
  4283  003A0E  50E6               	movf	postinc1,w,c
  4284  003A10  0A80               	xorlw	128
  4285  003A12  6E0F               	movwf	(??_fputc+4)^0,c
  4286  003A14  50DE               	movf	postinc2,w,c
  4287  003A16  0A80               	xorlw	128
  4288  003A18  580F               	subwfb	(??_fputc+4)^0,w,c
  4289  003A1A  B0D8               	btfsc	status,0,c
  4290  003A1C  EF12  F01D         	goto	u5651
  4291  003A20  EF14  F01D         	goto	u5650
  4292  003A24                     u5651:
  4293  003A24  EF1D  F01D         	goto	l1594
  4294  003A28                     u5650:
  4295  003A28                     l5832:
  4296  003A28  EE20 F002          	lfsr	2,2
  4297  003A2C  5009               	movf	fputc@fp^0,w,c
  4298  003A2E  26D9               	addwf	fsr2l,f,c
  4299  003A30  500A               	movf	(fputc@fp+1)^0,w,c
  4300  003A32  22DA               	addwfc	fsr2h,f,c
  4301  003A34  2ADE               	incf	postinc2,f,c
  4302  003A36  0E00               	movlw	0
  4303  003A38  22DD               	addwfc	postdec2,f,c
  4304  003A3A                     l1594:
  4305  003A3A  0012               	return		;funcret
  4306  003A3C                     __end_of_fputc:
  4307                           	callstack 0
  4308                           
  4309 ;; *************** function _putch *****************
  4310 ;; Defined at:
  4311 ;;		line 201 in file "mcc_generated_files/eusart.c"
  4312 ;; Parameters:    Size  Location     Type
  4313 ;;  txData          1    wreg     unsigned char 
  4314 ;; Auto vars:     Size  Location     Type
  4315 ;;  txData          1    5[COMRAM] unsigned char 
  4316 ;; Return value:  Size  Location     Type
  4317 ;;                  1    wreg      void 
  4318 ;; Registers used:
  4319 ;;		wreg, fsr2l, fsr2h, status,2, status,0, cstack
  4320 ;; Tracked objects:
  4321 ;;		On entry : 0/0
  4322 ;;		On exit  : 0/0
  4323 ;;		Unchanged: 0/0
  4324 ;; Data sizes:     COMRAM   BANK0   BANK1   BANK2   BANK3   BANK4   BANK5   BANK6   BANK7   BANK8   BANK9  BANK10  BANK1
      +1  BANK12  BANK13  BANK14  BANK15
  4325 ;;      Params:         0       0       0       0       0       0       0       0       0       0       0       0       
      +0       0       0       0       0
  4326 ;;      Locals:         1       0       0       0       0       0       0       0       0       0       0       0       
      +0       0       0       0       0
  4327 ;;      Temps:          0       0       0       0       0       0       0       0       0       0       0       0       
      +0       0       0       0       0
  4328 ;;      Totals:         1       0       0       0       0       0       0       0       0       0       0       0       
      +0       0       0       0       0
  4329 ;;Total ram usage:        1 bytes
  4330 ;; Hardware stack levels used: 1
  4331 ;; Hardware stack levels required when called: 5
  4332 ;; This function calls:
  4333 ;;		_EUSART_Write
  4334 ;; This function is called by:
  4335 ;;		_fputc
  4336 ;; This function uses a non-reentrant model
  4337 ;;
  4338                           
  4339                           	psect	text13
  4340  00456C                     __ptext13:
  4341                           	callstack 0
  4342  00456C                     _putch:
  4343                           	callstack 21
  4344                           
  4345                           ;incstack = 0
  4346                           ;putch@txData stored from wreg
  4347  00456C  6E06               	movwf	putch@txData^0,c
  4348  00456E                     
  4349                           ;mcc_generated_files/eusart.c: 201: void putch(char txData);mcc_generated_files/eusart.c
      +                          : 202: {;mcc_generated_files/eusart.c: 203:     EUSART_Write(txData);
  4350  00456E  5006               	movf	putch@txData^0,w,c
  4351  004570  ECF9  F01F         	call	_EUSART_Write
  4352  004574  0012               	return		;funcret
  4353  004576                     __end_of_putch:
  4354                           	callstack 0
  4355                           
  4356 ;; *************** function _EUSART_Write *****************
  4357 ;; Defined at:
  4358 ;;		line 173 in file "mcc_generated_files/eusart.c"
  4359 ;; Parameters:    Size  Location     Type
  4360 ;;  txData          1    wreg     unsigned char 
  4361 ;; Auto vars:     Size  Location     Type
  4362 ;;  txData          1    4[COMRAM] unsigned char 
  4363 ;; Return value:  Size  Location     Type
  4364 ;;                  1    wreg      void 
  4365 ;; Registers used:
  4366 ;;		wreg, fsr2l, fsr2h, status,2, status,0
  4367 ;; Tracked objects:
  4368 ;;		On entry : 0/0
  4369 ;;		On exit  : 0/0
  4370 ;;		Unchanged: 0/0
  4371 ;; Data sizes:     COMRAM   BANK0   BANK1   BANK2   BANK3   BANK4   BANK5   BANK6   BANK7   BANK8   BANK9  BANK10  BANK1
      +1  BANK12  BANK13  BANK14  BANK15
  4372 ;;      Params:         0       0       0       0       0       0       0       0       0       0       0       0       
      +0       0       0       0       0
  4373 ;;      Locals:         1       0       0       0       0       0       0       0       0       0       0       0       
      +0       0       0       0       0
  4374 ;;      Temps:          0       0       0       0       0       0       0       0       0       0       0       0       
      +0       0       0       0       0
  4375 ;;      Totals:         1       0       0       0       0       0       0       0       0       0       0       0       
      +0       0       0       0       0
  4376 ;;Total ram usage:        1 bytes
  4377 ;; Hardware stack levels used: 1
  4378 ;; Hardware stack levels required when called: 4
  4379 ;; This function calls:
  4380 ;;		Nothing
  4381 ;; This function is called by:
  4382 ;;		_putch
  4383 ;; This function uses a non-reentrant model
  4384 ;;
  4385                           
  4386                           	psect	text14
  4387  003FF2                     __ptext14:
  4388                           	callstack 0
  4389  003FF2                     _EUSART_Write:
  4390                           	callstack 21
  4391                           
  4392                           ;incstack = 0
  4393                           ;EUSART_Write@txData stored from wreg
  4394  003FF2  6E05               	movwf	EUSART_Write@txData^0,c
  4395  003FF4                     l5804:
  4396                           
  4397                           ;mcc_generated_files/eusart.c: 175:     while(0 == eusartTxBufferRemaining)
  4398  003FF4  0100               	movlb	0	; () banked
  4399  003FF6  51FC               	movf	_eusartTxBufferRemaining& (0+255),w,b	;volatile
  4400  003FF8  B4D8               	btfsc	status,2,c
  4401  003FFA  EF01  F020         	goto	u5591
  4402  003FFE  EF03  F020         	goto	u5590
  4403  004002                     u5591:
  4404  004002  EFFA  F01F         	goto	l5804
  4405  004006                     u5590:
  4406  004006                     
  4407                           ; BSR set to: 0
  4408                           ;mcc_generated_files/eusart.c: 179:     if(0 == PIE1bits.TX1IE)
  4409  004006  B89D               	btfsc	157,4,c	;volatile
  4410  004008  EF08  F020         	goto	u5601
  4411  00400C  EF0A  F020         	goto	u5600
  4412  004010                     u5601:
  4413  004010  EF0E  F020         	goto	l595
  4414  004014                     u5600:
  4415  004014                     
  4416                           ; BSR set to: 0
  4417                           ;mcc_generated_files/eusart.c: 180:     {;mcc_generated_files/eusart.c: 181:         TXR
      +                          EG = txData;
  4418  004014  C005  FFAD         	movff	EUSART_Write@txData,4013	;volatile
  4419                           
  4420                           ;mcc_generated_files/eusart.c: 182:     }
  4421  004018  EF23  F020         	goto	l5818
  4422  00401C                     l595:
  4423                           
  4424                           ; BSR set to: 0
  4425                           ;mcc_generated_files/eusart.c: 184:     {;mcc_generated_files/eusart.c: 185:         PIE
      +                          1bits.TX1IE = 0;
  4426  00401C  989D               	bcf	157,4,c	;volatile
  4427  00401E                     
  4428                           ; BSR set to: 0
  4429                           ;mcc_generated_files/eusart.c: 186:         eusartTxBuffer[eusartTxHead++] = txData;
  4430  00401E  0E94               	movlw	low _eusartTxBuffer
  4431  004020  245A               	addwf	_eusartTxHead^0,w,c	;volatile
  4432  004022  6ED9               	movwf	fsr2l,c
  4433  004024  6ADA               	clrf	fsr2h,c
  4434  004026  0E00               	movlw	high _eusartTxBuffer
  4435  004028  22DA               	addwfc	fsr2h,f,c
  4436  00402A  C005  FFDF         	movff	EUSART_Write@txData,indf2
  4437  00402E                     
  4438                           ; BSR set to: 0
  4439  00402E  2A5A               	incf	_eusartTxHead^0,f,c	;volatile
  4440  004030                     
  4441                           ; BSR set to: 0
  4442                           ;mcc_generated_files/eusart.c: 187:         if(sizeof(eusartTxBuffer) <= eusartTxHead)
  4443  004030  0E07               	movlw	7
  4444  004032  645A               	cpfsgt	_eusartTxHead^0,c	;volatile
  4445  004034  EF1E  F020         	goto	u5611
  4446  004038  EF20  F020         	goto	u5610
  4447  00403C                     u5611:
  4448  00403C  EF22  F020         	goto	l5816
  4449  004040                     u5610:
  4450  004040                     
  4451                           ; BSR set to: 0
  4452                           ;mcc_generated_files/eusart.c: 188:         {;mcc_generated_files/eusart.c: 189:        
      +                               eusartTxHead = 0;
  4453  004040  0E00               	movlw	0
  4454  004042  6E5A               	movwf	_eusartTxHead^0,c	;volatile
  4455  004044                     l5816:
  4456                           
  4457                           ; BSR set to: 0
  4458                           ;mcc_generated_files/eusart.c: 191:         eusartTxBufferRemaining--;
  4459  004044  07FC               	decf	_eusartTxBufferRemaining& (0+255),f,b	;volatile
  4460  004046                     l5818:
  4461                           
  4462                           ; BSR set to: 0
  4463                           ;mcc_generated_files/eusart.c: 193:     PIE1bits.TX1IE = 1;
  4464  004046  889D               	bsf	157,4,c	;volatile
  4465  004048                     
  4466                           ; BSR set to: 0
  4467  004048  0012               	return		;funcret
  4468  00404A                     __end_of_EUSART_Write:
  4469                           	callstack 0
  4470                           
  4471 ;; *************** function _floorf *****************
  4472 ;; Defined at:
  4473 ;;		line 3 in file "C:\Program Files\Microchip\xc8\v2.32\pic\sources\c99\common\floorf.c"
  4474 ;; Parameters:    Size  Location     Type
  4475 ;;  x               4   29[COMRAM] float 
  4476 ;; Auto vars:     Size  Location     Type
  4477 ;;  u               4   45[COMRAM] struct .
  4478 ;;  m               4   39[COMRAM] unsigned long 
  4479 ;;  e               2   43[COMRAM] int 
  4480 ;; Return value:  Size  Location     Type
  4481 ;;                  4   29[COMRAM] float 
  4482 ;; Registers used:
  4483 ;;		wreg, status,2, status,0
  4484 ;; Tracked objects:
  4485 ;;		On entry : 0/0
  4486 ;;		On exit  : 0/0
  4487 ;;		Unchanged: 0/0
  4488 ;; Data sizes:     COMRAM   BANK0   BANK1   BANK2   BANK3   BANK4   BANK5   BANK6   BANK7   BANK8   BANK9  BANK10  BANK1
      +1  BANK12  BANK13  BANK14  BANK15
  4489 ;;      Params:         4       0       0       0       0       0       0       0       0       0       0       0       
      +0       0       0       0       0
  4490 ;;      Locals:        10       0       0       0       0       0       0       0       0       0       0       0       
      +0       0       0       0       0
  4491 ;;      Temps:          6       0       0       0       0       0       0       0       0       0       0       0       
      +0       0       0       0       0
  4492 ;;      Totals:        20       0       0       0       0       0       0       0       0       0       0       0       
      +0       0       0       0       0
  4493 ;;Total ram usage:       20 bytes
  4494 ;; Hardware stack levels used: 1
  4495 ;; Hardware stack levels required when called: 4
  4496 ;; This function calls:
  4497 ;;		Nothing
  4498 ;; This function is called by:
  4499 ;;		_efgtoa
  4500 ;; This function uses a non-reentrant model
  4501 ;;
  4502                           
  4503                           	psect	text15
  4504  002CF0                     __ptext15:
  4505                           	callstack 0
  4506  002CF0                     _floorf:
  4507                           	callstack 22
  4508  002CF0  C09C  F02E         	movff	floorf@F527,floorf@u
  4509  002CF4  C09D  F02F         	movff	floorf@F527+1,floorf@u+1
  4510  002CF8  C09E  F030         	movff	floorf@F527+2,floorf@u+2
  4511  002CFC  C09F  F031         	movff	floorf@F527+3,floorf@u+3
  4512  002D00  C01E  F02E         	movff	floorf@x,floorf@u
  4513  002D04  C01F  F02F         	movff	floorf@x+1,floorf@u+1
  4514  002D08  C020  F030         	movff	floorf@x+2,floorf@u+2
  4515  002D0C  C021  F031         	movff	floorf@x+3,floorf@u+3
  4516  002D10  0E81               	movlw	129
  4517  002D12  6E22               	movwf	??_floorf^0,c
  4518  002D14  0EFF               	movlw	255
  4519  002D16  6E23               	movwf	(??_floorf+1)^0,c
  4520  002D18  C02E  F024         	movff	floorf@u,??_floorf+2
  4521  002D1C  C02F  F025         	movff	floorf@u+1,??_floorf+3
  4522  002D20  C030  F026         	movff	floorf@u+2,??_floorf+4
  4523  002D24  C031  F027         	movff	floorf@u+3,??_floorf+5
  4524  002D28  0E18               	movlw	24
  4525  002D2A  EF9C  F016         	goto	u6950
  4526  002D2E                     u6955:
  4527  002D2E  90D8               	bcf	status,0,c
  4528  002D30  3227               	rrcf	(??_floorf+5)^0,f,c
  4529  002D32  3226               	rrcf	(??_floorf+4)^0,f,c
  4530  002D34  3225               	rrcf	(??_floorf+3)^0,f,c
  4531  002D36  3224               	rrcf	(??_floorf+2)^0,f,c
  4532  002D38                     u6950:
  4533  002D38  2EE8               	decfsz	wreg,f,c
  4534  002D3A  EF97  F016         	goto	u6955
  4535  002D3E  5024               	movf	(??_floorf+2)^0,w,c
  4536  002D40  2422               	addwf	??_floorf^0,w,c
  4537  002D42  6E2C               	movwf	floorf@e^0,c
  4538  002D44  0E00               	movlw	0
  4539  002D46  2023               	addwfc	(??_floorf+1)^0,w,c
  4540  002D48  6E2D               	movwf	(floorf@e+1)^0,c
  4541  002D4A  BE2D               	btfsc	(floorf@e+1)^0,7,c
  4542  002D4C  EFB1  F016         	goto	u6961
  4543  002D50  502D               	movf	(floorf@e+1)^0,w,c
  4544  002D52  E109               	bnz	u6960
  4545  002D54  0E17               	movlw	23
  4546  002D56  5C2C               	subwf	floorf@e^0,w,c
  4547  002D58  A0D8               	btfss	status,0,c
  4548  002D5A  EFB1  F016         	goto	u6961
  4549  002D5E  EFB3  F016         	goto	u6960
  4550  002D62                     u6961:
  4551  002D62  EFBD  F016         	goto	l6568
  4552  002D66                     u6960:
  4553  002D66                     l6566:
  4554  002D66  C01E  F01E         	movff	floorf@x,?_floorf
  4555  002D6A  C01F  F01F         	movff	floorf@x+1,?_floorf+1
  4556  002D6E  C020  F020         	movff	floorf@x+2,?_floorf+2
  4557  002D72  C021  F021         	movff	floorf@x+3,?_floorf+3
  4558  002D76  EF80  F017         	goto	l1569
  4559  002D7A                     l6568:
  4560  002D7A  BE2D               	btfsc	(floorf@e+1)^0,7,c
  4561  002D7C  EFC2  F016         	goto	u6971
  4562  002D80  EFC4  F016         	goto	u6970
  4563  002D84                     u6971:
  4564  002D84  EF34  F017         	goto	l6578
  4565  002D88                     u6970:
  4566  002D88  C02C  F022         	movff	floorf@e,??_floorf
  4567  002D8C  0EFF               	movlw	255
  4568  002D8E  6E23               	movwf	(??_floorf+1)^0,c
  4569  002D90  0EFF               	movlw	255
  4570  002D92  6E24               	movwf	(??_floorf+2)^0,c
  4571  002D94  0E7F               	movlw	127
  4572  002D96  6E25               	movwf	(??_floorf+3)^0,c
  4573  002D98  0E00               	movlw	0
  4574  002D9A  6E26               	movwf	(??_floorf+4)^0,c
  4575  002D9C                     u6985:
  4576  002D9C  6622               	tstfsz	??_floorf^0,c
  4577  002D9E  EFD3  F016         	goto	u6986
  4578  002DA2  EFDB  F016         	goto	u6987
  4579  002DA6                     u6986:
  4580  002DA6  3426               	rlcf	(??_floorf+4)^0,w,c
  4581  002DA8  3226               	rrcf	(??_floorf+4)^0,f,c
  4582  002DAA  3225               	rrcf	(??_floorf+3)^0,f,c
  4583  002DAC  3224               	rrcf	(??_floorf+2)^0,f,c
  4584  002DAE  3223               	rrcf	(??_floorf+1)^0,f,c
  4585  002DB0  2E22               	decfsz	??_floorf^0,f,c
  4586  002DB2  EFCE  F016         	goto	u6985
  4587  002DB6                     u6987:
  4588  002DB6  C023  F028         	movff	??_floorf+1,floorf@m
  4589  002DBA  C024  F029         	movff	??_floorf+2,floorf@m+1
  4590  002DBE  C025  F02A         	movff	??_floorf+3,floorf@m+2
  4591  002DC2  C026  F02B         	movff	??_floorf+4,floorf@m+3
  4592  002DC6  5028               	movf	floorf@m^0,w,c
  4593  002DC8  142E               	andwf	floorf@u^0,w,c
  4594  002DCA  6E22               	movwf	??_floorf^0,c
  4595  002DCC  5029               	movf	(floorf@m+1)^0,w,c
  4596  002DCE  142F               	andwf	(floorf@u+1)^0,w,c
  4597  002DD0  6E23               	movwf	(??_floorf+1)^0,c
  4598  002DD2  502A               	movf	(floorf@m+2)^0,w,c
  4599  002DD4  1430               	andwf	(floorf@u+2)^0,w,c
  4600  002DD6  6E24               	movwf	(??_floorf+2)^0,c
  4601  002DD8  502B               	movf	(floorf@m+3)^0,w,c
  4602  002DDA  1431               	andwf	(floorf@u+3)^0,w,c
  4603  002DDC  6E25               	movwf	(??_floorf+3)^0,c
  4604  002DDE  5022               	movf	??_floorf^0,w,c
  4605  002DE0  1023               	iorwf	(??_floorf+1)^0,w,c
  4606  002DE2  1024               	iorwf	(??_floorf+2)^0,w,c
  4607  002DE4  1025               	iorwf	(??_floorf+3)^0,w,c
  4608  002DE6  A4D8               	btfss	status,2,c
  4609  002DE8  EFF8  F016         	goto	u6991
  4610  002DEC  EFFA  F016         	goto	u6990
  4611  002DF0                     u6991:
  4612  002DF0  EFFC  F016         	goto	l6574
  4613  002DF4                     u6990:
  4614  002DF4  EFB3  F016         	goto	l6566
  4615  002DF8                     l6574:
  4616  002DF8  C02E  F022         	movff	floorf@u,??_floorf
  4617  002DFC  C02F  F023         	movff	floorf@u+1,??_floorf+1
  4618  002E00  C030  F024         	movff	floorf@u+2,??_floorf+2
  4619  002E04  C031  F025         	movff	floorf@u+3,??_floorf+3
  4620  002E08  0E20               	movlw	32
  4621  002E0A  EF0C  F017         	goto	u7000
  4622  002E0E                     u7005:
  4623  002E0E  90D8               	bcf	status,0,c
  4624  002E10  3225               	rrcf	(??_floorf+3)^0,f,c
  4625  002E12  3224               	rrcf	(??_floorf+2)^0,f,c
  4626  002E14  3223               	rrcf	(??_floorf+1)^0,f,c
  4627  002E16  3222               	rrcf	??_floorf^0,f,c
  4628  002E18                     u7000:
  4629  002E18  2EE8               	decfsz	wreg,f,c
  4630  002E1A  EF07  F017         	goto	u7005
  4631  002E1E  5022               	movf	??_floorf^0,w,c
  4632  002E20  1023               	iorwf	(??_floorf+1)^0,w,c
  4633  002E22  1024               	iorwf	(??_floorf+2)^0,w,c
  4634  002E24  1025               	iorwf	(??_floorf+3)^0,w,c
  4635  002E26  B4D8               	btfsc	status,2,c
  4636  002E28  EF18  F017         	goto	u7011
  4637  002E2C  EF1A  F017         	goto	u7010
  4638  002E30                     u7011:
  4639  002E30  EF22  F017         	goto	l1572
  4640  002E34                     u7010:
  4641  002E34  5028               	movf	floorf@m^0,w,c
  4642  002E36  262E               	addwf	floorf@u^0,f,c
  4643  002E38  5029               	movf	(floorf@m+1)^0,w,c
  4644  002E3A  222F               	addwfc	(floorf@u+1)^0,f,c
  4645  002E3C  502A               	movf	(floorf@m+2)^0,w,c
  4646  002E3E  2230               	addwfc	(floorf@u+2)^0,f,c
  4647  002E40  502B               	movf	(floorf@m+3)^0,w,c
  4648  002E42  2231               	addwfc	(floorf@u+3)^0,f,c
  4649  002E44                     l1572:
  4650  002E44  1C28               	comf	floorf@m^0,w,c
  4651  002E46  6E22               	movwf	??_floorf^0,c
  4652  002E48  1C29               	comf	(floorf@m+1)^0,w,c
  4653  002E4A  6E23               	movwf	(??_floorf+1)^0,c
  4654  002E4C  1C2A               	comf	(floorf@m+2)^0,w,c
  4655  002E4E  6E24               	movwf	(??_floorf+2)^0,c
  4656  002E50  1C2B               	comf	(floorf@m+3)^0,w,c
  4657  002E52  6E25               	movwf	(??_floorf+3)^0,c
  4658  002E54  5022               	movf	??_floorf^0,w,c
  4659  002E56  162E               	andwf	floorf@u^0,f,c
  4660  002E58  5023               	movf	(??_floorf+1)^0,w,c
  4661  002E5A  162F               	andwf	(floorf@u+1)^0,f,c
  4662  002E5C  5024               	movf	(??_floorf+2)^0,w,c
  4663  002E5E  1630               	andwf	(floorf@u+2)^0,f,c
  4664  002E60  5025               	movf	(??_floorf+3)^0,w,c
  4665  002E62  1631               	andwf	(floorf@u+3)^0,f,c
  4666  002E64  EF78  F017         	goto	l6586
  4667  002E68                     l6578:
  4668  002E68  C02E  F022         	movff	floorf@u,??_floorf
  4669  002E6C  C02F  F023         	movff	floorf@u+1,??_floorf+1
  4670  002E70  C030  F024         	movff	floorf@u+2,??_floorf+2
  4671  002E74  C031  F025         	movff	floorf@u+3,??_floorf+3
  4672  002E78  0E20               	movlw	32
  4673  002E7A  EF44  F017         	goto	u7020
  4674  002E7E                     u7025:
  4675  002E7E  90D8               	bcf	status,0,c
  4676  002E80  3225               	rrcf	(??_floorf+3)^0,f,c
  4677  002E82  3224               	rrcf	(??_floorf+2)^0,f,c
  4678  002E84  3223               	rrcf	(??_floorf+1)^0,f,c
  4679  002E86  3222               	rrcf	??_floorf^0,f,c
  4680  002E88                     u7020:
  4681  002E88  2EE8               	decfsz	wreg,f,c
  4682  002E8A  EF3F  F017         	goto	u7025
  4683  002E8E  5022               	movf	??_floorf^0,w,c
  4684  002E90  1023               	iorwf	(??_floorf+1)^0,w,c
  4685  002E92  1024               	iorwf	(??_floorf+2)^0,w,c
  4686  002E94  1025               	iorwf	(??_floorf+3)^0,w,c
  4687  002E96  A4D8               	btfss	status,2,c
  4688  002E98  EF50  F017         	goto	u7031
  4689  002E9C  EF52  F017         	goto	u7030
  4690  002EA0                     u7031:
  4691  002EA0  EF5C  F017         	goto	l6582
  4692  002EA4                     u7030:
  4693  002EA4  0E00               	movlw	0
  4694  002EA6  6E2E               	movwf	floorf@u^0,c
  4695  002EA8  0E00               	movlw	0
  4696  002EAA  6E2F               	movwf	(floorf@u+1)^0,c
  4697  002EAC  0E00               	movlw	0
  4698  002EAE  6E30               	movwf	(floorf@u+2)^0,c
  4699  002EB0  0E00               	movlw	0
  4700  002EB2  6E31               	movwf	(floorf@u+3)^0,c
  4701  002EB4  EF78  F017         	goto	l6586
  4702  002EB8                     l6582:
  4703  002EB8  90D8               	bcf	status,0,c
  4704  002EBA  342E               	rlcf	floorf@u^0,w,c
  4705  002EBC  6E22               	movwf	??_floorf^0,c
  4706  002EBE  342F               	rlcf	(floorf@u+1)^0,w,c
  4707  002EC0  6E23               	movwf	(??_floorf+1)^0,c
  4708  002EC2  3430               	rlcf	(floorf@u+2)^0,w,c
  4709  002EC4  6E24               	movwf	(??_floorf+2)^0,c
  4710  002EC6  3431               	rlcf	(floorf@u+3)^0,w,c
  4711  002EC8  6E25               	movwf	(??_floorf+3)^0,c
  4712  002ECA  5022               	movf	??_floorf^0,w,c
  4713  002ECC  1023               	iorwf	(??_floorf+1)^0,w,c
  4714  002ECE  1024               	iorwf	(??_floorf+2)^0,w,c
  4715  002ED0  1025               	iorwf	(??_floorf+3)^0,w,c
  4716  002ED2  B4D8               	btfsc	status,2,c
  4717  002ED4  EF6E  F017         	goto	u7041
  4718  002ED8  EF70  F017         	goto	u7040
  4719  002EDC                     u7041:
  4720  002EDC  EF78  F017         	goto	l6586
  4721  002EE0                     u7040:
  4722  002EE0  0E00               	movlw	0
  4723  002EE2  6E2E               	movwf	floorf@u^0,c
  4724  002EE4  0E00               	movlw	0
  4725  002EE6  6E2F               	movwf	(floorf@u+1)^0,c
  4726  002EE8  0E80               	movlw	128
  4727  002EEA  6E30               	movwf	(floorf@u+2)^0,c
  4728  002EEC  0EBF               	movlw	191
  4729  002EEE  6E31               	movwf	(floorf@u+3)^0,c
  4730  002EF0                     l6586:
  4731  002EF0  C02E  F01E         	movff	floorf@u,?_floorf
  4732  002EF4  C02F  F01F         	movff	floorf@u+1,?_floorf+1
  4733  002EF8  C030  F020         	movff	floorf@u+2,?_floorf+2
  4734  002EFC  C031  F021         	movff	floorf@u+3,?_floorf+3
  4735  002F00                     l1569:
  4736  002F00  0012               	return		;funcret
  4737  002F02                     __end_of_floorf:
  4738                           	callstack 0
  4739                           
  4740 ;; *************** function ___fpclassifyf *****************
  4741 ;; Defined at:
  4742 ;;		line 4 in file "C:\Program Files\Microchip\xc8\v2.32\pic\sources\c99\common\__fpclassifyf.c"
  4743 ;; Parameters:    Size  Location     Type
  4744 ;;  x               4    4[COMRAM] float 
  4745 ;; Auto vars:     Size  Location     Type
  4746 ;;  u               4   14[COMRAM] struct .
  4747 ;;  e               2   12[COMRAM] int 
  4748 ;; Return value:  Size  Location     Type
  4749 ;;                  2    4[COMRAM] int 
  4750 ;; Registers used:
  4751 ;;		wreg, status,2, status,0
  4752 ;; Tracked objects:
  4753 ;;		On entry : 0/0
  4754 ;;		On exit  : 0/0
  4755 ;;		Unchanged: 0/0
  4756 ;; Data sizes:     COMRAM   BANK0   BANK1   BANK2   BANK3   BANK4   BANK5   BANK6   BANK7   BANK8   BANK9  BANK10  BANK1
      +1  BANK12  BANK13  BANK14  BANK15
  4757 ;;      Params:         4       0       0       0       0       0       0       0       0       0       0       0       
      +0       0       0       0       0
  4758 ;;      Locals:         6       0       0       0       0       0       0       0       0       0       0       0       
      +0       0       0       0       0
  4759 ;;      Temps:          4       0       0       0       0       0       0       0       0       0       0       0       
      +0       0       0       0       0
  4760 ;;      Totals:        14       0       0       0       0       0       0       0       0       0       0       0       
      +0       0       0       0       0
  4761 ;;Total ram usage:       14 bytes
  4762 ;; Hardware stack levels used: 1
  4763 ;; Hardware stack levels required when called: 4
  4764 ;; This function calls:
  4765 ;;		Nothing
  4766 ;; This function is called by:
  4767 ;;		_efgtoa
  4768 ;; This function uses a non-reentrant model
  4769 ;;
  4770                           
  4771                           	psect	text16
  4772  0032C0                     __ptext16:
  4773                           	callstack 0
  4774  0032C0                     ___fpclassifyf:
  4775                           	callstack 22
  4776  0032C0  C0A0  F00F         	movff	___fpclassifyf@F465,___fpclassifyf@u
  4777  0032C4  C0A1  F010         	movff	___fpclassifyf@F465+1,___fpclassifyf@u+1
  4778  0032C8  C0A2  F011         	movff	___fpclassifyf@F465+2,___fpclassifyf@u+2
  4779  0032CC  C0A3  F012         	movff	___fpclassifyf@F465+3,___fpclassifyf@u+3
  4780  0032D0  C005  F00F         	movff	___fpclassifyf@x,___fpclassifyf@u
  4781  0032D4  C006  F010         	movff	___fpclassifyf@x+1,___fpclassifyf@u+1
  4782  0032D8  C007  F011         	movff	___fpclassifyf@x+2,___fpclassifyf@u+2
  4783  0032DC  C008  F012         	movff	___fpclassifyf@x+3,___fpclassifyf@u+3
  4784  0032E0  C00F  F009         	movff	___fpclassifyf@u,??___fpclassifyf
  4785  0032E4  C010  F00A         	movff	___fpclassifyf@u+1,??___fpclassifyf+1
  4786  0032E8  C011  F00B         	movff	___fpclassifyf@u+2,??___fpclassifyf+2
  4787  0032EC  C012  F00C         	movff	___fpclassifyf@u+3,??___fpclassifyf+3
  4788  0032F0  0E18               	movlw	24
  4789  0032F2  EF80  F019         	goto	u6830
  4790  0032F6                     u6835:
  4791  0032F6  90D8               	bcf	status,0,c
  4792  0032F8  320C               	rrcf	(??___fpclassifyf+3)^0,f,c
  4793  0032FA  320B               	rrcf	(??___fpclassifyf+2)^0,f,c
  4794  0032FC  320A               	rrcf	(??___fpclassifyf+1)^0,f,c
  4795  0032FE  3209               	rrcf	??___fpclassifyf^0,f,c
  4796  003300                     u6830:
  4797  003300  2EE8               	decfsz	wreg,f,c
  4798  003302  EF7B  F019         	goto	u6835
  4799  003306  5009               	movf	??___fpclassifyf^0,w,c
  4800  003308  6E0D               	movwf	___fpclassifyf@e^0,c
  4801  00330A  6A0E               	clrf	(___fpclassifyf@e+1)^0,c
  4802  00330C  500D               	movf	___fpclassifyf@e^0,w,c
  4803  00330E  100E               	iorwf	(___fpclassifyf@e+1)^0,w,c
  4804  003310  A4D8               	btfss	status,2,c
  4805  003312  EF8D  F019         	goto	u6841
  4806  003316  EF8F  F019         	goto	u6840
  4807  00331A                     u6841:
  4808  00331A  EFAF  F019         	goto	l6538
  4809  00331E                     u6840:
  4810  00331E  90D8               	bcf	status,0,c
  4811  003320  340F               	rlcf	___fpclassifyf@u^0,w,c
  4812  003322  6E09               	movwf	??___fpclassifyf^0,c
  4813  003324  3410               	rlcf	(___fpclassifyf@u+1)^0,w,c
  4814  003326  6E0A               	movwf	(??___fpclassifyf+1)^0,c
  4815  003328  3411               	rlcf	(___fpclassifyf@u+2)^0,w,c
  4816  00332A  6E0B               	movwf	(??___fpclassifyf+2)^0,c
  4817  00332C  3412               	rlcf	(___fpclassifyf@u+3)^0,w,c
  4818  00332E  6E0C               	movwf	(??___fpclassifyf+3)^0,c
  4819  003330  5009               	movf	??___fpclassifyf^0,w,c
  4820  003332  100A               	iorwf	(??___fpclassifyf+1)^0,w,c
  4821  003334  100B               	iorwf	(??___fpclassifyf+2)^0,w,c
  4822  003336  100C               	iorwf	(??___fpclassifyf+3)^0,w,c
  4823  003338  A4D8               	btfss	status,2,c
  4824  00333A  EFA1  F019         	goto	u6851
  4825  00333E  EFA3  F019         	goto	u6850
  4826  003342                     u6851:
  4827  003342  EFA9  F019         	goto	l6534
  4828  003346                     u6850:
  4829  003346  0E00               	movlw	0
  4830  003348  6E06               	movwf	(?___fpclassifyf+1)^0,c
  4831  00334A  0E02               	movlw	2
  4832  00334C  6E05               	movwf	?___fpclassifyf^0,c
  4833  00334E  EFDE  F019         	goto	l1562
  4834  003352                     l6534:
  4835  003352  0E00               	movlw	0
  4836  003354  6E06               	movwf	(?___fpclassifyf+1)^0,c
  4837  003356  0E03               	movlw	3
  4838  003358  6E05               	movwf	?___fpclassifyf^0,c
  4839  00335A  EFDE  F019         	goto	l1562
  4840  00335E                     l6538:
  4841  00335E  280D               	incf	___fpclassifyf@e^0,w,c
  4842  003360  100E               	iorwf	(___fpclassifyf@e+1)^0,w,c
  4843  003362  A4D8               	btfss	status,2,c
  4844  003364  EFB6  F019         	goto	u6861
  4845  003368  EFB8  F019         	goto	u6860
  4846  00336C                     u6861:
  4847  00336C  EFDA  F019         	goto	l6544
  4848  003370                     u6860:
  4849  003370  C00F  F009         	movff	___fpclassifyf@u,??___fpclassifyf
  4850  003374  C010  F00A         	movff	___fpclassifyf@u+1,??___fpclassifyf+1
  4851  003378  C011  F00B         	movff	___fpclassifyf@u+2,??___fpclassifyf+2
  4852  00337C  C012  F00C         	movff	___fpclassifyf@u+3,??___fpclassifyf+3
  4853  003380  0E09               	movlw	9
  4854  003382                     u6875:
  4855  003382  90D8               	bcf	status,0,c
  4856  003384  3609               	rlcf	??___fpclassifyf^0,f,c
  4857  003386  360A               	rlcf	(??___fpclassifyf+1)^0,f,c
  4858  003388  360B               	rlcf	(??___fpclassifyf+2)^0,f,c
  4859  00338A  360C               	rlcf	(??___fpclassifyf+3)^0,f,c
  4860  00338C  2EE8               	decfsz	wreg,f,c
  4861  00338E  EFC1  F019         	goto	u6875
  4862  003392  5009               	movf	??___fpclassifyf^0,w,c
  4863  003394  100A               	iorwf	(??___fpclassifyf+1)^0,w,c
  4864  003396  100B               	iorwf	(??___fpclassifyf+2)^0,w,c
  4865  003398  100C               	iorwf	(??___fpclassifyf+3)^0,w,c
  4866  00339A  B4D8               	btfsc	status,2,c
  4867  00339C  EFD2  F019         	goto	u6881
  4868  0033A0  EFD5  F019         	goto	u6880
  4869  0033A4                     u6881:
  4870  0033A4  0E01               	movlw	1
  4871  0033A6  EFD6  F019         	goto	u6890
  4872  0033AA                     u6880:
  4873  0033AA  0E00               	movlw	0
  4874  0033AC                     u6890:
  4875  0033AC  6E05               	movwf	?___fpclassifyf^0,c
  4876  0033AE  6A06               	clrf	(?___fpclassifyf+1)^0,c
  4877  0033B0  EFDE  F019         	goto	l1562
  4878  0033B4                     l6544:
  4879  0033B4  0E00               	movlw	0
  4880  0033B6  6E06               	movwf	(?___fpclassifyf+1)^0,c
  4881  0033B8  0E04               	movlw	4
  4882  0033BA  6E05               	movwf	?___fpclassifyf^0,c
  4883  0033BC                     l1562:
  4884  0033BC  0012               	return		;funcret
  4885  0033BE                     __end_of___fpclassifyf:
  4886                           	callstack 0
  4887                           
  4888 ;; *************** function ___fltol *****************
  4889 ;; Defined at:
  4890 ;;		line 43 in file "C:\Program Files\Microchip\xc8\v2.32\pic\sources\c99\common\fltol.c"
  4891 ;; Parameters:    Size  Location     Type
  4892 ;;  f1              4    4[COMRAM] int 
  4893 ;; Auto vars:     Size  Location     Type
  4894 ;;  exp1            1   13[COMRAM] unsigned char 
  4895 ;;  sign1           1   12[COMRAM] unsigned char 
  4896 ;; Return value:  Size  Location     Type
  4897 ;;                  4    4[COMRAM] long 
  4898 ;; Registers used:
  4899 ;;		wreg, status,2, status,0
  4900 ;; Tracked objects:
  4901 ;;		On entry : 0/0
  4902 ;;		On exit  : 0/0
  4903 ;;		Unchanged: 0/0
  4904 ;; Data sizes:     COMRAM   BANK0   BANK1   BANK2   BANK3   BANK4   BANK5   BANK6   BANK7   BANK8   BANK9  BANK10  BANK1
      +1  BANK12  BANK13  BANK14  BANK15
  4905 ;;      Params:         4       0       0       0       0       0       0       0       0       0       0       0       
      +0       0       0       0       0
  4906 ;;      Locals:         2       0       0       0       0       0       0       0       0       0       0       0       
      +0       0       0       0       0
  4907 ;;      Temps:          4       0       0       0       0       0       0       0       0       0       0       0       
      +0       0       0       0       0
  4908 ;;      Totals:        10       0       0       0       0       0       0       0       0       0       0       0       
      +0       0       0       0       0
  4909 ;;Total ram usage:       10 bytes
  4910 ;; Hardware stack levels used: 1
  4911 ;; Hardware stack levels required when called: 4
  4912 ;; This function calls:
  4913 ;;		Nothing
  4914 ;; This function is called by:
  4915 ;;		_efgtoa
  4916 ;; This function uses a non-reentrant model
  4917 ;;
  4918                           
  4919                           	psect	text17
  4920  0030B6                     __ptext17:
  4921                           	callstack 0
  4922  0030B6                     ___fltol:
  4923                           	callstack 22
  4924  0030B6  3407               	rlcf	(___fltol@f1+2)^0,w,c
  4925  0030B8  3408               	rlcf	(___fltol@f1+3)^0,w,c
  4926  0030BA  6E0E               	movwf	___fltol@exp1^0,c
  4927  0030BC  500E               	movf	___fltol@exp1^0,w,c
  4928  0030BE  A4D8               	btfss	status,2,c
  4929  0030C0  EF64  F018         	goto	u6721
  4930  0030C4  EF66  F018         	goto	u6720
  4931  0030C8                     u6721:
  4932  0030C8  EF70  F018         	goto	l6466
  4933  0030CC                     u6720:
  4934  0030CC                     l6462:
  4935  0030CC  0E00               	movlw	0
  4936  0030CE  6E05               	movwf	?___fltol^0,c
  4937  0030D0  0E00               	movlw	0
  4938  0030D2  6E06               	movwf	(?___fltol+1)^0,c
  4939  0030D4  0E00               	movlw	0
  4940  0030D6  6E07               	movwf	(?___fltol+2)^0,c
  4941  0030D8  0E00               	movlw	0
  4942  0030DA  6E08               	movwf	(?___fltol+3)^0,c
  4943  0030DC  EFDD  F018         	goto	l1015
  4944  0030E0                     l6466:
  4945  0030E0  C005  F009         	movff	___fltol@f1,??___fltol
  4946  0030E4  C006  F00A         	movff	___fltol@f1+1,??___fltol+1
  4947  0030E8  C007  F00B         	movff	___fltol@f1+2,??___fltol+2
  4948  0030EC  C008  F00C         	movff	___fltol@f1+3,??___fltol+3
  4949  0030F0  0E20               	movlw	32
  4950  0030F2  EF80  F018         	goto	u6730
  4951  0030F6                     u6735:
  4952  0030F6  90D8               	bcf	status,0,c
  4953  0030F8  320C               	rrcf	(??___fltol+3)^0,f,c
  4954  0030FA  320B               	rrcf	(??___fltol+2)^0,f,c
  4955  0030FC  320A               	rrcf	(??___fltol+1)^0,f,c
  4956  0030FE  3209               	rrcf	??___fltol^0,f,c
  4957  003100                     u6730:
  4958  003100  2EE8               	decfsz	wreg,f,c
  4959  003102  EF7B  F018         	goto	u6735
  4960  003106  5009               	movf	??___fltol^0,w,c
  4961  003108  6E0D               	movwf	___fltol@sign1^0,c
  4962  00310A  8E07               	bsf	(___fltol@f1+2)^0,7,c
  4963  00310C  0EFF               	movlw	255
  4964  00310E  1605               	andwf	___fltol@f1^0,f,c
  4965  003110  0EFF               	movlw	255
  4966  003112  1606               	andwf	(___fltol@f1+1)^0,f,c
  4967  003114  0EFF               	movlw	255
  4968  003116  1607               	andwf	(___fltol@f1+2)^0,f,c
  4969  003118  0E00               	movlw	0
  4970  00311A  1608               	andwf	(___fltol@f1+3)^0,f,c
  4971  00311C  0E96               	movlw	150
  4972  00311E  5E0E               	subwf	___fltol@exp1^0,f,c
  4973  003120  BE0E               	btfsc	___fltol@exp1^0,7,c
  4974  003122  EF97  F018         	goto	u6740
  4975  003126  EF95  F018         	goto	u6741
  4976  00312A                     u6741:
  4977  00312A  EFAD  F018         	goto	l6486
  4978  00312E                     u6740:
  4979  00312E  500E               	movf	___fltol@exp1^0,w,c
  4980  003130  0A80               	xorlw	128
  4981  003132  0F97               	addlw	151
  4982  003134  B0D8               	btfsc	status,0,c
  4983  003136  EF9F  F018         	goto	u6751
  4984  00313A  EFA1  F018         	goto	u6750
  4985  00313E                     u6751:
  4986  00313E  EFA3  F018         	goto	l6482
  4987  003142                     u6750:
  4988  003142  EF66  F018         	goto	l6462
  4989  003146                     l6482:
  4990  003146  90D8               	bcf	status,0,c
  4991  003148  3208               	rrcf	(___fltol@f1+3)^0,f,c
  4992  00314A  3207               	rrcf	(___fltol@f1+2)^0,f,c
  4993  00314C  3206               	rrcf	(___fltol@f1+1)^0,f,c
  4994  00314E  3205               	rrcf	___fltol@f1^0,f,c
  4995  003150  3E0E               	incfsz	___fltol@exp1^0,f,c
  4996  003152  EFA3  F018         	goto	l6482
  4997  003156  EFC5  F018         	goto	l6496
  4998  00315A                     l6486:
  4999  00315A  0E1F               	movlw	31
  5000  00315C  640E               	cpfsgt	___fltol@exp1^0,c
  5001  00315E  EFB3  F018         	goto	u6761
  5002  003162  EFB5  F018         	goto	u6760
  5003  003166                     u6761:
  5004  003166  EFBD  F018         	goto	l6494
  5005  00316A                     u6760:
  5006  00316A  EF66  F018         	goto	l6462
  5007  00316E                     l6492:
  5008  00316E  90D8               	bcf	status,0,c
  5009  003170  3605               	rlcf	___fltol@f1^0,f,c
  5010  003172  3606               	rlcf	(___fltol@f1+1)^0,f,c
  5011  003174  3607               	rlcf	(___fltol@f1+2)^0,f,c
  5012  003176  3608               	rlcf	(___fltol@f1+3)^0,f,c
  5013  003178  060E               	decf	___fltol@exp1^0,f,c
  5014  00317A                     l6494:
  5015  00317A  500E               	movf	___fltol@exp1^0,w,c
  5016  00317C  A4D8               	btfss	status,2,c
  5017  00317E  EFC3  F018         	goto	u6771
  5018  003182  EFC5  F018         	goto	u6770
  5019  003186                     u6771:
  5020  003186  EFB7  F018         	goto	l6492
  5021  00318A                     u6770:
  5022  00318A                     l6496:
  5023  00318A  500D               	movf	___fltol@sign1^0,w,c
  5024  00318C  B4D8               	btfsc	status,2,c
  5025  00318E  EFCB  F018         	goto	u6781
  5026  003192  EFCD  F018         	goto	u6780
  5027  003196                     u6781:
  5028  003196  EFD5  F018         	goto	l6500
  5029  00319A                     u6780:
  5030  00319A  1E08               	comf	(___fltol@f1+3)^0,f,c
  5031  00319C  1E07               	comf	(___fltol@f1+2)^0,f,c
  5032  00319E  1E06               	comf	(___fltol@f1+1)^0,f,c
  5033  0031A0  6C05               	negf	___fltol@f1^0,c
  5034  0031A2  0E00               	movlw	0
  5035  0031A4  2206               	addwfc	(___fltol@f1+1)^0,f,c
  5036  0031A6  2207               	addwfc	(___fltol@f1+2)^0,f,c
  5037  0031A8  2208               	addwfc	(___fltol@f1+3)^0,f,c
  5038  0031AA                     l6500:
  5039  0031AA  C005  F005         	movff	___fltol@f1,?___fltol
  5040  0031AE  C006  F006         	movff	___fltol@f1+1,?___fltol+1
  5041  0031B2  C007  F007         	movff	___fltol@f1+2,?___fltol+2
  5042  0031B6  C008  F008         	movff	___fltol@f1+3,?___fltol+3
  5043  0031BA                     l1015:
  5044  0031BA  0012               	return		;funcret
  5045  0031BC                     __end_of___fltol:
  5046                           	callstack 0
  5047                           
  5048 ;; *************** function ___flsub *****************
  5049 ;; Defined at:
  5050 ;;		line 245 in file "C:\Program Files\Microchip\xc8\v2.32\pic\sources\c99\common\sprcadd.c"
  5051 ;; Parameters:    Size  Location     Type
  5052 ;;  b               4   29[COMRAM] long 
  5053 ;;  a               4   33[COMRAM] long 
  5054 ;; Auto vars:     Size  Location     Type
  5055 ;;		None
  5056 ;; Return value:  Size  Location     Type
  5057 ;;                  4   29[COMRAM] long 
  5058 ;; Registers used:
  5059 ;;		wreg, status,2, status,0, cstack
  5060 ;; Tracked objects:
  5061 ;;		On entry : 0/0
  5062 ;;		On exit  : 0/0
  5063 ;;		Unchanged: 0/0
  5064 ;; Data sizes:     COMRAM   BANK0   BANK1   BANK2   BANK3   BANK4   BANK5   BANK6   BANK7   BANK8   BANK9  BANK10  BANK1
      +1  BANK12  BANK13  BANK14  BANK15
  5065 ;;      Params:         8       0       0       0       0       0       0       0       0       0       0       0       
      +0       0       0       0       0
  5066 ;;      Locals:         0       0       0       0       0       0       0       0       0       0       0       0       
      +0       0       0       0       0
  5067 ;;      Temps:          0       0       0       0       0       0       0       0       0       0       0       0       
      +0       0       0       0       0
  5068 ;;      Totals:         8       0       0       0       0       0       0       0       0       0       0       0       
      +0       0       0       0       0
  5069 ;;Total ram usage:        8 bytes
  5070 ;; Hardware stack levels used: 1
  5071 ;; Hardware stack levels required when called: 5
  5072 ;; This function calls:
  5073 ;;		___fladd
  5074 ;; This function is called by:
  5075 ;;		_efgtoa
  5076 ;; This function uses a non-reentrant model
  5077 ;;
  5078                           
  5079                           	psect	text18
  5080  00404A                     __ptext18:
  5081                           	callstack 0
  5082  00404A                     ___flsub:
  5083                           	callstack 21
  5084  00404A  0E00               	movlw	0
  5085  00404C  1A22               	xorwf	___flsub@a^0,f,c
  5086  00404E  0E00               	movlw	0
  5087  004050  1A23               	xorwf	(___flsub@a+1)^0,f,c
  5088  004052  0E00               	movlw	0
  5089  004054  1A24               	xorwf	(___flsub@a+2)^0,f,c
  5090  004056  0E80               	movlw	128
  5091  004058  1A25               	xorwf	(___flsub@a+3)^0,f,c
  5092  00405A  C01E  F005         	movff	___flsub@b,___fladd@b
  5093  00405E  C01F  F006         	movff	___flsub@b+1,___fladd@b+1
  5094  004062  C020  F007         	movff	___flsub@b+2,___fladd@b+2
  5095  004066  C021  F008         	movff	___flsub@b+3,___fladd@b+3
  5096  00406A  C022  F009         	movff	___flsub@a,___fladd@a
  5097  00406E  C023  F00A         	movff	___flsub@a+1,___fladd@a+1
  5098  004072  C024  F00B         	movff	___flsub@a+2,___fladd@a+2
  5099  004076  C025  F00C         	movff	___flsub@a+3,___fladd@a+3
  5100  00407A  EC78  F00E         	call	___fladd	;wreg free
  5101  00407E  C005  F01E         	movff	?___fladd,?___flsub
  5102  004082  C006  F01F         	movff	?___fladd+1,?___flsub+1
  5103  004086  C007  F020         	movff	?___fladd+2,?___flsub+2
  5104  00408A  C008  F021         	movff	?___fladd+3,?___flsub+3
  5105  00408E  0012               	return		;funcret
  5106  004090                     __end_of___flsub:
  5107                           	callstack 0
  5108                           
  5109 ;; *************** function ___fladd *****************
  5110 ;; Defined at:
  5111 ;;		line 10 in file "C:\Program Files\Microchip\xc8\v2.32\pic\sources\c99\common\sprcadd.c"
  5112 ;; Parameters:    Size  Location     Type
  5113 ;;  b               4    4[COMRAM] long 
  5114 ;;  a               4    8[COMRAM] long 
  5115 ;; Auto vars:     Size  Location     Type
  5116 ;;  grs             1   19[COMRAM] unsigned char 
  5117 ;;  bexp            1   18[COMRAM] unsigned char 
  5118 ;;  aexp            1   17[COMRAM] unsigned char 
  5119 ;;  signs           1   16[COMRAM] unsigned char 
  5120 ;; Return value:  Size  Location     Type
  5121 ;;                  4    4[COMRAM] unsigned char 
  5122 ;; Registers used:
  5123 ;;		wreg, status,2, status,0
  5124 ;; Tracked objects:
  5125 ;;		On entry : 0/0
  5126 ;;		On exit  : 0/0
  5127 ;;		Unchanged: 0/0
  5128 ;; Data sizes:     COMRAM   BANK0   BANK1   BANK2   BANK3   BANK4   BANK5   BANK6   BANK7   BANK8   BANK9  BANK10  BANK1
      +1  BANK12  BANK13  BANK14  BANK15
  5129 ;;      Params:         8       0       0       0       0       0       0       0       0       0       0       0       
      +0       0       0       0       0
  5130 ;;      Locals:         4       0       0       0       0       0       0       0       0       0       0       0       
      +0       0       0       0       0
  5131 ;;      Temps:          4       0       0       0       0       0       0       0       0       0       0       0       
      +0       0       0       0       0
  5132 ;;      Totals:        16       0       0       0       0       0       0       0       0       0       0       0       
      +0       0       0       0       0
  5133 ;;Total ram usage:       16 bytes
  5134 ;; Hardware stack levels used: 1
  5135 ;; Hardware stack levels required when called: 4
  5136 ;; This function calls:
  5137 ;;		Nothing
  5138 ;; This function is called by:
  5139 ;;		___flsub
  5140 ;;		_efgtoa
  5141 ;; This function uses a non-reentrant model
  5142 ;;
  5143                           
  5144                           	psect	text19
  5145  001CF0                     __ptext19:
  5146                           	callstack 0
  5147  001CF0                     ___fladd:
  5148                           	callstack 21
  5149  001CF0  5008               	movf	(___fladd@b+3)^0,w,c
  5150  001CF2  0B80               	andlw	128
  5151  001CF4  6E11               	movwf	___fladd@signs^0,c
  5152  001CF6  5008               	movf	(___fladd@b+3)^0,w,c
  5153  001CF8  2408               	addwf	(___fladd@b+3)^0,w,c
  5154  001CFA  6E13               	movwf	___fladd@bexp^0,c
  5155  001CFC  AE07               	btfss	(___fladd@b+2)^0,7,c
  5156  001CFE  EF83  F00E         	goto	u5661
  5157  001D02  EF85  F00E         	goto	u5660
  5158  001D06                     u5661:
  5159  001D06  EF86  F00E         	goto	l5842
  5160  001D0A                     u5660:
  5161  001D0A  8013               	bsf	___fladd@bexp^0,0,c
  5162  001D0C                     l5842:
  5163  001D0C  5013               	movf	___fladd@bexp^0,w,c
  5164  001D0E  B4D8               	btfsc	status,2,c
  5165  001D10  EF8C  F00E         	goto	u5671
  5166  001D14  EF8E  F00E         	goto	u5670
  5167  001D18                     u5671:
  5168  001D18  EFA3  F00E         	goto	l5852
  5169  001D1C                     u5670:
  5170  001D1C  2813               	incf	___fladd@bexp^0,w,c
  5171  001D1E  A4D8               	btfss	status,2,c
  5172  001D20  EF94  F00E         	goto	u5681
  5173  001D24  EF96  F00E         	goto	u5680
  5174  001D28                     u5681:
  5175  001D28  EF9E  F00E         	goto	l5848
  5176  001D2C                     u5680:
  5177  001D2C  0E00               	movlw	0
  5178  001D2E  6E05               	movwf	___fladd@b^0,c
  5179  001D30  0E00               	movlw	0
  5180  001D32  6E06               	movwf	(___fladd@b+1)^0,c
  5181  001D34  0E00               	movlw	0
  5182  001D36  6E07               	movwf	(___fladd@b+2)^0,c
  5183  001D38  0E00               	movlw	0
  5184  001D3A  6E08               	movwf	(___fladd@b+3)^0,c
  5185  001D3C                     l5848:
  5186  001D3C  8E07               	bsf	(___fladd@b+2)^0,7,c
  5187  001D3E  0E00               	movlw	0
  5188  001D40  6E08               	movwf	(___fladd@b+3)^0,c
  5189  001D42  EFAB  F00E         	goto	l5854
  5190  001D46                     l5852:
  5191  001D46  0E00               	movlw	0
  5192  001D48  6E05               	movwf	___fladd@b^0,c
  5193  001D4A  0E00               	movlw	0
  5194  001D4C  6E06               	movwf	(___fladd@b+1)^0,c
  5195  001D4E  0E00               	movlw	0
  5196  001D50  6E07               	movwf	(___fladd@b+2)^0,c
  5197  001D52  0E00               	movlw	0
  5198  001D54  6E08               	movwf	(___fladd@b+3)^0,c
  5199  001D56                     l5854:
  5200  001D56  500C               	movf	(___fladd@a+3)^0,w,c
  5201  001D58  0B80               	andlw	128
  5202  001D5A  6E12               	movwf	___fladd@aexp^0,c
  5203  001D5C  5011               	movf	___fladd@signs^0,w,c
  5204  001D5E  1812               	xorwf	___fladd@aexp^0,w,c
  5205  001D60  B4D8               	btfsc	status,2,c
  5206  001D62  EFB5  F00E         	goto	u5691
  5207  001D66  EFB7  F00E         	goto	u5690
  5208  001D6A                     u5691:
  5209  001D6A  EFB8  F00E         	goto	l5860
  5210  001D6E                     u5690:
  5211  001D6E  8C11               	bsf	___fladd@signs^0,6,c
  5212  001D70                     l5860:
  5213  001D70  500C               	movf	(___fladd@a+3)^0,w,c
  5214  001D72  240C               	addwf	(___fladd@a+3)^0,w,c
  5215  001D74  6E12               	movwf	___fladd@aexp^0,c
  5216  001D76  AE0B               	btfss	(___fladd@a+2)^0,7,c
  5217  001D78  EFC0  F00E         	goto	u5701
  5218  001D7C  EFC2  F00E         	goto	u5700
  5219  001D80                     u5701:
  5220  001D80  EFC3  F00E         	goto	l5866
  5221  001D84                     u5700:
  5222  001D84  8012               	bsf	___fladd@aexp^0,0,c
  5223  001D86                     l5866:
  5224  001D86  5012               	movf	___fladd@aexp^0,w,c
  5225  001D88  B4D8               	btfsc	status,2,c
  5226  001D8A  EFC9  F00E         	goto	u5711
  5227  001D8E  EFCB  F00E         	goto	u5710
  5228  001D92                     u5711:
  5229  001D92  EFE0  F00E         	goto	l5876
  5230  001D96                     u5710:
  5231  001D96  2812               	incf	___fladd@aexp^0,w,c
  5232  001D98  A4D8               	btfss	status,2,c
  5233  001D9A  EFD1  F00E         	goto	u5721
  5234  001D9E  EFD3  F00E         	goto	u5720
  5235  001DA2                     u5721:
  5236  001DA2  EFDB  F00E         	goto	l5872
  5237  001DA6                     u5720:
  5238  001DA6  0E00               	movlw	0
  5239  001DA8  6E09               	movwf	___fladd@a^0,c
  5240  001DAA  0E00               	movlw	0
  5241  001DAC  6E0A               	movwf	(___fladd@a+1)^0,c
  5242  001DAE  0E00               	movlw	0
  5243  001DB0  6E0B               	movwf	(___fladd@a+2)^0,c
  5244  001DB2  0E00               	movlw	0
  5245  001DB4  6E0C               	movwf	(___fladd@a+3)^0,c
  5246  001DB6                     l5872:
  5247  001DB6  8E0B               	bsf	(___fladd@a+2)^0,7,c
  5248  001DB8  0E00               	movlw	0
  5249  001DBA  6E0C               	movwf	(___fladd@a+3)^0,c
  5250  001DBC  EFE8  F00E         	goto	l5878
  5251  001DC0                     l5876:
  5252  001DC0  0E00               	movlw	0
  5253  001DC2  6E09               	movwf	___fladd@a^0,c
  5254  001DC4  0E00               	movlw	0
  5255  001DC6  6E0A               	movwf	(___fladd@a+1)^0,c
  5256  001DC8  0E00               	movlw	0
  5257  001DCA  6E0B               	movwf	(___fladd@a+2)^0,c
  5258  001DCC  0E00               	movlw	0
  5259  001DCE  6E0C               	movwf	(___fladd@a+3)^0,c
  5260  001DD0                     l5878:
  5261  001DD0  5013               	movf	___fladd@bexp^0,w,c
  5262  001DD2  5C12               	subwf	___fladd@aexp^0,w,c
  5263  001DD4  B0D8               	btfsc	status,0,c
  5264  001DD6  EFEF  F00E         	goto	u5731
  5265  001DDA  EFF1  F00E         	goto	u5730
  5266  001DDE                     u5731:
  5267  001DDE  EF18  F00F         	goto	l5914
  5268  001DE2                     u5730:
  5269  001DE2  AC11               	btfss	___fladd@signs^0,6,c
  5270  001DE4  EFF6  F00E         	goto	u5741
  5271  001DE8  EFF8  F00E         	goto	u5740
  5272  001DEC                     u5741:
  5273  001DEC  EFFA  F00E         	goto	l5884
  5274  001DF0                     u5740:
  5275  001DF0  0E80               	movlw	128
  5276  001DF2  1A11               	xorwf	___fladd@signs^0,f,c
  5277  001DF4                     l5884:
  5278  001DF4  C013  F014         	movff	___fladd@bexp,___fladd@grs
  5279  001DF8  C012  F013         	movff	___fladd@aexp,___fladd@bexp
  5280  001DFC  C014  F012         	movff	___fladd@grs,___fladd@aexp
  5281  001E00  C005  F014         	movff	___fladd@b,___fladd@grs
  5282  001E04  C009  F005         	movff	___fladd@a,___fladd@b
  5283  001E08  C014  F009         	movff	___fladd@grs,___fladd@a
  5284  001E0C  C006  F014         	movff	___fladd@b+1,___fladd@grs
  5285  001E10  C00A  F006         	movff	___fladd@a+1,___fladd@b+1
  5286  001E14  C014  F00A         	movff	___fladd@grs,___fladd@a+1
  5287  001E18  C007  F014         	movff	___fladd@b+2,___fladd@grs
  5288  001E1C  C00B  F007         	movff	___fladd@a+2,___fladd@b+2
  5289  001E20  C014  F00B         	movff	___fladd@grs,___fladd@a+2
  5290  001E24  C008  F014         	movff	___fladd@b+3,___fladd@grs
  5291  001E28  C00C  F008         	movff	___fladd@a+3,___fladd@b+3
  5292  001E2C  C014  F00C         	movff	___fladd@grs,___fladd@a+3
  5293  001E30                     l5914:
  5294  001E30  0E00               	movlw	0
  5295  001E32  6E14               	movwf	___fladd@grs^0,c
  5296  001E34  5013               	movf	___fladd@bexp^0,w,c
  5297  001E36  C012  F00D         	movff	___fladd@aexp,??___fladd
  5298  001E3A  6A0E               	clrf	(??___fladd+1)^0,c
  5299  001E3C  5E0D               	subwf	??___fladd^0,f,c
  5300  001E3E  0E00               	movlw	0
  5301  001E40  5A0E               	subwfb	(??___fladd+1)^0,f,c
  5302  001E42  BE0E               	btfsc	(??___fladd+1)^0,7,c
  5303  001E44  EF2D  F00F         	goto	u5751
  5304  001E48  500E               	movf	(??___fladd+1)^0,w,c
  5305  001E4A  E109               	bnz	u5750
  5306  001E4C  0E1A               	movlw	26
  5307  001E4E  5C0D               	subwf	??___fladd^0,w,c
  5308  001E50  A0D8               	btfss	status,0,c
  5309  001E52  EF2D  F00F         	goto	u5751
  5310  001E56  EF2F  F00F         	goto	u5750
  5311  001E5A                     u5751:
  5312  001E5A  EF66  F00F         	goto	l1247
  5313  001E5E                     u5750:
  5314  001E5E  5005               	movf	___fladd@b^0,w,c
  5315  001E60  1006               	iorwf	(___fladd@b+1)^0,w,c
  5316  001E62  1007               	iorwf	(___fladd@b+2)^0,w,c
  5317  001E64  1008               	iorwf	(___fladd@b+3)^0,w,c
  5318  001E66  A4D8               	btfss	status,2,c
  5319  001E68  EF38  F00F         	goto	u5761
  5320  001E6C  EF3B  F00F         	goto	u5760
  5321  001E70                     u5761:
  5322  001E70  0E01               	movlw	1
  5323  001E72  EF3C  F00F         	goto	u5770
  5324  001E76                     u5760:
  5325  001E76  0E00               	movlw	0
  5326  001E78                     u5770:
  5327  001E78  6E14               	movwf	___fladd@grs^0,c
  5328  001E7A  0E00               	movlw	0
  5329  001E7C  6E05               	movwf	___fladd@b^0,c
  5330  001E7E  0E00               	movlw	0
  5331  001E80  6E06               	movwf	(___fladd@b+1)^0,c
  5332  001E82  0E00               	movlw	0
  5333  001E84  6E07               	movwf	(___fladd@b+2)^0,c
  5334  001E86  0E00               	movlw	0
  5335  001E88  6E08               	movwf	(___fladd@b+3)^0,c
  5336  001E8A  C012  F013         	movff	___fladd@aexp,___fladd@bexp
  5337  001E8E  EF6F  F00F         	goto	l1246
  5338  001E92                     l1248:
  5339  001E92  A014               	btfss	___fladd@grs^0,0,c
  5340  001E94  EF4E  F00F         	goto	u5781
  5341  001E98  EF50  F00F         	goto	u5780
  5342  001E9C                     u5781:
  5343  001E9C  EF56  F00F         	goto	l5926
  5344  001EA0                     u5780:
  5345  001EA0  90D8               	bcf	status,0,c
  5346  001EA2  3014               	rrcf	___fladd@grs^0,w,c
  5347  001EA4  0901               	iorlw	1
  5348  001EA6  6E14               	movwf	___fladd@grs^0,c
  5349  001EA8  EF58  F00F         	goto	l5928
  5350  001EAC                     l5926:
  5351  001EAC  90D8               	bcf	status,0,c
  5352  001EAE  3214               	rrcf	___fladd@grs^0,f,c
  5353  001EB0                     l5928:
  5354  001EB0  A005               	btfss	___fladd@b^0,0,c
  5355  001EB2  EF5D  F00F         	goto	u5791
  5356  001EB6  EF5F  F00F         	goto	u5790
  5357  001EBA                     u5791:
  5358  001EBA  EF60  F00F         	goto	l5932
  5359  001EBE                     u5790:
  5360  001EBE  8E14               	bsf	___fladd@grs^0,7,c
  5361  001EC0                     l5932:
  5362  001EC0  3408               	rlcf	(___fladd@b+3)^0,w,c
  5363  001EC2  3208               	rrcf	(___fladd@b+3)^0,f,c
  5364  001EC4  3207               	rrcf	(___fladd@b+2)^0,f,c
  5365  001EC6  3206               	rrcf	(___fladd@b+1)^0,f,c
  5366  001EC8  3205               	rrcf	___fladd@b^0,f,c
  5367  001ECA  2A13               	incf	___fladd@bexp^0,f,c
  5368  001ECC                     l1247:
  5369  001ECC  5012               	movf	___fladd@aexp^0,w,c
  5370  001ECE  5C13               	subwf	___fladd@bexp^0,w,c
  5371  001ED0  A0D8               	btfss	status,0,c
  5372  001ED2  EF6D  F00F         	goto	u5801
  5373  001ED6  EF6F  F00F         	goto	u5800
  5374  001EDA                     u5801:
  5375  001EDA  EF49  F00F         	goto	l1248
  5376  001EDE                     u5800:
  5377  001EDE                     l1246:
  5378  001EDE  BC11               	btfsc	___fladd@signs^0,6,c
  5379  001EE0  EF74  F00F         	goto	u5811
  5380  001EE4  EF76  F00F         	goto	u5810
  5381  001EE8                     u5811:
  5382  001EE8  EFB6  F00F         	goto	l5960
  5383  001EEC                     u5810:
  5384  001EEC  5013               	movf	___fladd@bexp^0,w,c
  5385  001EEE  A4D8               	btfss	status,2,c
  5386  001EF0  EF7C  F00F         	goto	u5821
  5387  001EF4  EF7E  F00F         	goto	u5820
  5388  001EF8                     u5821:
  5389  001EF8  EF88  F00F         	goto	l5942
  5390  001EFC                     u5820:
  5391  001EFC  0E00               	movlw	0
  5392  001EFE  6E05               	movwf	?___fladd^0,c
  5393  001F00  0E00               	movlw	0
  5394  001F02  6E06               	movwf	(?___fladd+1)^0,c
  5395  001F04  0E00               	movlw	0
  5396  001F06  6E07               	movwf	(?___fladd+2)^0,c
  5397  001F08  0E00               	movlw	0
  5398  001F0A  6E08               	movwf	(?___fladd+3)^0,c
  5399  001F0C  EFD7  F010         	goto	l1255
  5400  001F10                     l5942:
  5401  001F10  5009               	movf	___fladd@a^0,w,c
  5402  001F12  2605               	addwf	___fladd@b^0,f,c
  5403  001F14  500A               	movf	(___fladd@a+1)^0,w,c
  5404  001F16  2206               	addwfc	(___fladd@b+1)^0,f,c
  5405  001F18  500B               	movf	(___fladd@a+2)^0,w,c
  5406  001F1A  2207               	addwfc	(___fladd@b+2)^0,f,c
  5407  001F1C  500C               	movf	(___fladd@a+3)^0,w,c
  5408  001F1E  2208               	addwfc	(___fladd@b+3)^0,f,c
  5409  001F20  A008               	btfss	(___fladd@b+3)^0,0,c
  5410  001F22  EF95  F00F         	goto	u5831
  5411  001F26  EF97  F00F         	goto	u5830
  5412  001F2A                     u5831:
  5413  001F2A  EF43  F010         	goto	l5996
  5414  001F2E                     u5830:
  5415  001F2E  A014               	btfss	___fladd@grs^0,0,c
  5416  001F30  EF9C  F00F         	goto	u5841
  5417  001F34  EF9E  F00F         	goto	u5840
  5418  001F38                     u5841:
  5419  001F38  EFA4  F00F         	goto	l5950
  5420  001F3C                     u5840:
  5421  001F3C  90D8               	bcf	status,0,c
  5422  001F3E  3014               	rrcf	___fladd@grs^0,w,c
  5423  001F40  0901               	iorlw	1
  5424  001F42  6E14               	movwf	___fladd@grs^0,c
  5425  001F44  EFA6  F00F         	goto	l5952
  5426  001F48                     l5950:
  5427  001F48  90D8               	bcf	status,0,c
  5428  001F4A  3214               	rrcf	___fladd@grs^0,f,c
  5429  001F4C                     l5952:
  5430  001F4C  A005               	btfss	___fladd@b^0,0,c
  5431  001F4E  EFAB  F00F         	goto	u5851
  5432  001F52  EFAD  F00F         	goto	u5850
  5433  001F56                     u5851:
  5434  001F56  EFAE  F00F         	goto	l5956
  5435  001F5A                     u5850:
  5436  001F5A  8E14               	bsf	___fladd@grs^0,7,c
  5437  001F5C                     l5956:
  5438  001F5C  3408               	rlcf	(___fladd@b+3)^0,w,c
  5439  001F5E  3208               	rrcf	(___fladd@b+3)^0,f,c
  5440  001F60  3207               	rrcf	(___fladd@b+2)^0,f,c
  5441  001F62  3206               	rrcf	(___fladd@b+1)^0,f,c
  5442  001F64  3205               	rrcf	___fladd@b^0,f,c
  5443  001F66  2A13               	incf	___fladd@bexp^0,f,c
  5444  001F68  EF43  F010         	goto	l5996
  5445  001F6C                     l5960:
  5446  001F6C  5009               	movf	___fladd@a^0,w,c
  5447  001F6E  5C05               	subwf	___fladd@b^0,w,c
  5448  001F70  500A               	movf	(___fladd@a+1)^0,w,c
  5449  001F72  5806               	subwfb	(___fladd@b+1)^0,w,c
  5450  001F74  500B               	movf	(___fladd@a+2)^0,w,c
  5451  001F76  5807               	subwfb	(___fladd@b+2)^0,w,c
  5452  001F78  5008               	movf	(___fladd@b+3)^0,w,c
  5453  001F7A  0A80               	xorlw	128
  5454  001F7C  6E0D               	movwf	??___fladd^0,c
  5455  001F7E  500C               	movf	(___fladd@a+3)^0,w,c
  5456  001F80  0A80               	xorlw	128
  5457  001F82  580D               	subwfb	??___fladd^0,w,c
  5458  001F84  B0D8               	btfsc	status,0,c
  5459  001F86  EFC7  F00F         	goto	u5861
  5460  001F8A  EFC9  F00F         	goto	u5860
  5461  001F8E                     u5861:
  5462  001F8E  EFF4  F00F         	goto	l5970
  5463  001F92                     u5860:
  5464  001F92  5005               	movf	___fladd@b^0,w,c
  5465  001F94  5C09               	subwf	___fladd@a^0,w,c
  5466  001F96  6E0D               	movwf	??___fladd^0,c
  5467  001F98  5006               	movf	(___fladd@b+1)^0,w,c
  5468  001F9A  580A               	subwfb	(___fladd@a+1)^0,w,c
  5469  001F9C  6E0E               	movwf	(??___fladd+1)^0,c
  5470  001F9E  5007               	movf	(___fladd@b+2)^0,w,c
  5471  001FA0  580B               	subwfb	(___fladd@a+2)^0,w,c
  5472  001FA2  6E0F               	movwf	(??___fladd+2)^0,c
  5473  001FA4  5008               	movf	(___fladd@b+3)^0,w,c
  5474  001FA6  580C               	subwfb	(___fladd@a+3)^0,w,c
  5475  001FA8  6E10               	movwf	(??___fladd+3)^0,c
  5476  001FAA  0EFF               	movlw	255
  5477  001FAC  240D               	addwf	??___fladd^0,w,c
  5478  001FAE  6E05               	movwf	___fladd@b^0,c
  5479  001FB0  0EFF               	movlw	255
  5480  001FB2  200E               	addwfc	(??___fladd+1)^0,w,c
  5481  001FB4  6E06               	movwf	(___fladd@b+1)^0,c
  5482  001FB6  0EFF               	movlw	255
  5483  001FB8  200F               	addwfc	(??___fladd+2)^0,w,c
  5484  001FBA  6E07               	movwf	(___fladd@b+2)^0,c
  5485  001FBC  0EFF               	movlw	255
  5486  001FBE  2010               	addwfc	(??___fladd+3)^0,w,c
  5487  001FC0  6E08               	movwf	(___fladd@b+3)^0,c
  5488  001FC2  0E80               	movlw	128
  5489  001FC4  1A11               	xorwf	___fladd@signs^0,f,c
  5490  001FC6  6C14               	negf	___fladd@grs^0,c
  5491  001FC8  5014               	movf	___fladd@grs^0,w,c
  5492  001FCA  A4D8               	btfss	status,2,c
  5493  001FCC  EFEA  F00F         	goto	u5871
  5494  001FD0  EFEC  F00F         	goto	u5870
  5495  001FD4                     u5871:
  5496  001FD4  EFFC  F00F         	goto	l1263
  5497  001FD8                     u5870:
  5498  001FD8  0E01               	movlw	1
  5499  001FDA  2605               	addwf	___fladd@b^0,f,c
  5500  001FDC  0E00               	movlw	0
  5501  001FDE  2206               	addwfc	(___fladd@b+1)^0,f,c
  5502  001FE0  2207               	addwfc	(___fladd@b+2)^0,f,c
  5503  001FE2  2208               	addwfc	(___fladd@b+3)^0,f,c
  5504  001FE4  EFFC  F00F         	goto	l1263
  5505  001FE8                     l5970:
  5506  001FE8  5009               	movf	___fladd@a^0,w,c
  5507  001FEA  5E05               	subwf	___fladd@b^0,f,c
  5508  001FEC  500A               	movf	(___fladd@a+1)^0,w,c
  5509  001FEE  5A06               	subwfb	(___fladd@b+1)^0,f,c
  5510  001FF0  500B               	movf	(___fladd@a+2)^0,w,c
  5511  001FF2  5A07               	subwfb	(___fladd@b+2)^0,f,c
  5512  001FF4  500C               	movf	(___fladd@a+3)^0,w,c
  5513  001FF6  5A08               	subwfb	(___fladd@b+3)^0,f,c
  5514  001FF8                     l1263:
  5515  001FF8  5005               	movf	___fladd@b^0,w,c
  5516  001FFA  1006               	iorwf	(___fladd@b+1)^0,w,c
  5517  001FFC  1007               	iorwf	(___fladd@b+2)^0,w,c
  5518  001FFE  1008               	iorwf	(___fladd@b+3)^0,w,c
  5519  002000  A4D8               	btfss	status,2,c
  5520  002002  EF05  F010         	goto	u5881
  5521  002006  EF07  F010         	goto	u5880
  5522  00200A                     u5881:
  5523  00200A  EF3C  F010         	goto	l5994
  5524  00200E                     u5880:
  5525  00200E  5014               	movf	___fladd@grs^0,w,c
  5526  002010  A4D8               	btfss	status,2,c
  5527  002012  EF0D  F010         	goto	u5891
  5528  002016  EF0F  F010         	goto	u5890
  5529  00201A                     u5891:
  5530  00201A  EF3C  F010         	goto	l5994
  5531  00201E                     u5890:
  5532  00201E  0E00               	movlw	0
  5533  002020  6E05               	movwf	?___fladd^0,c
  5534  002022  0E00               	movlw	0
  5535  002024  6E06               	movwf	(?___fladd+1)^0,c
  5536  002026  0E00               	movlw	0
  5537  002028  6E07               	movwf	(?___fladd+2)^0,c
  5538  00202A  0E00               	movlw	0
  5539  00202C  6E08               	movwf	(?___fladd+3)^0,c
  5540  00202E  EFD7  F010         	goto	l1255
  5541  002032                     l5978:
  5542  002032  90D8               	bcf	status,0,c
  5543  002034  3605               	rlcf	___fladd@b^0,f,c
  5544  002036  3606               	rlcf	(___fladd@b+1)^0,f,c
  5545  002038  3607               	rlcf	(___fladd@b+2)^0,f,c
  5546  00203A  3608               	rlcf	(___fladd@b+3)^0,f,c
  5547  00203C  AE14               	btfss	___fladd@grs^0,7,c
  5548  00203E  EF23  F010         	goto	u5901
  5549  002042  EF25  F010         	goto	u5900
  5550  002046                     u5901:
  5551  002046  EF26  F010         	goto	l5984
  5552  00204A                     u5900:
  5553  00204A  8005               	bsf	___fladd@b^0,0,c
  5554  00204C                     l5984:
  5555  00204C  A014               	btfss	___fladd@grs^0,0,c
  5556  00204E  EF2B  F010         	goto	u5911
  5557  002052  EF2D  F010         	goto	u5910
  5558  002056                     u5911:
  5559  002056  EF31  F010         	goto	l5988
  5560  00205A                     u5910:
  5561  00205A  80D8               	bsf	status,0,c
  5562  00205C  3614               	rlcf	___fladd@grs^0,f,c
  5563  00205E  EF33  F010         	goto	l5990
  5564  002062                     l5988:
  5565  002062  90D8               	bcf	status,0,c
  5566  002064  3614               	rlcf	___fladd@grs^0,f,c
  5567  002066                     l5990:
  5568  002066  5013               	movf	___fladd@bexp^0,w,c
  5569  002068  B4D8               	btfsc	status,2,c
  5570  00206A  EF39  F010         	goto	u5921
  5571  00206E  EF3B  F010         	goto	u5920
  5572  002072                     u5921:
  5573  002072  EF3C  F010         	goto	l5994
  5574  002076                     u5920:
  5575  002076  0613               	decf	___fladd@bexp^0,f,c
  5576  002078                     l5994:
  5577  002078  AE07               	btfss	(___fladd@b+2)^0,7,c
  5578  00207A  EF41  F010         	goto	u5931
  5579  00207E  EF43  F010         	goto	u5930
  5580  002082                     u5931:
  5581  002082  EF19  F010         	goto	l5978
  5582  002086                     u5930:
  5583  002086                     l5996:
  5584  002086  0E00               	movlw	0
  5585  002088  6E12               	movwf	___fladd@aexp^0,c
  5586  00208A  AE14               	btfss	___fladd@grs^0,7,c
  5587  00208C  EF4A  F010         	goto	u5941
  5588  002090  EF4C  F010         	goto	u5940
  5589  002094                     u5941:
  5590  002094  EF64  F010         	goto	l1272
  5591  002098                     u5940:
  5592  002098  C014  F00D         	movff	___fladd@grs,??___fladd
  5593  00209C  0E7F               	movlw	127
  5594  00209E  160D               	andwf	??___fladd^0,f,c
  5595  0020A0  B4D8               	btfsc	status,2,c
  5596  0020A2  EF55  F010         	goto	u5951
  5597  0020A6  EF57  F010         	goto	u5950
  5598  0020AA                     u5951:
  5599  0020AA  EF5B  F010         	goto	l1273
  5600  0020AE                     u5950:
  5601  0020AE                     l6002:
  5602  0020AE  0E01               	movlw	1
  5603  0020B0  6E12               	movwf	___fladd@aexp^0,c
  5604  0020B2  EF64  F010         	goto	l1272
  5605  0020B6                     l1273:
  5606  0020B6  A005               	btfss	___fladd@b^0,0,c
  5607  0020B8  EF60  F010         	goto	u5961
  5608  0020BC  EF62  F010         	goto	u5960
  5609  0020C0                     u5961:
  5610  0020C0  EF64  F010         	goto	l1272
  5611  0020C4                     u5960:
  5612  0020C4  EF57  F010         	goto	l6002
  5613  0020C8                     l1272:
  5614  0020C8  5012               	movf	___fladd@aexp^0,w,c
  5615  0020CA  B4D8               	btfsc	status,2,c
  5616  0020CC  EF6A  F010         	goto	u5971
  5617  0020D0  EF6C  F010         	goto	u5970
  5618  0020D4                     u5971:
  5619  0020D4  EF97  F010         	goto	l6014
  5620  0020D8                     u5970:
  5621  0020D8  0E01               	movlw	1
  5622  0020DA  2605               	addwf	___fladd@b^0,f,c
  5623  0020DC  0E00               	movlw	0
  5624  0020DE  2206               	addwfc	(___fladd@b+1)^0,f,c
  5625  0020E0  2207               	addwfc	(___fladd@b+2)^0,f,c
  5626  0020E2  2208               	addwfc	(___fladd@b+3)^0,f,c
  5627  0020E4  A008               	btfss	(___fladd@b+3)^0,0,c
  5628  0020E6  EF77  F010         	goto	u5981
  5629  0020EA  EF79  F010         	goto	u5980
  5630  0020EE                     u5981:
  5631  0020EE  EF97  F010         	goto	l6014
  5632  0020F2                     u5980:
  5633  0020F2  C005  F00D         	movff	___fladd@b,??___fladd
  5634  0020F6  C006  F00E         	movff	___fladd@b+1,??___fladd+1
  5635  0020FA  C007  F00F         	movff	___fladd@b+2,??___fladd+2
  5636  0020FE  C008  F010         	movff	___fladd@b+3,??___fladd+3
  5637  002102  3410               	rlcf	(??___fladd+3)^0,w,c
  5638  002104  3210               	rrcf	(??___fladd+3)^0,f,c
  5639  002106  320F               	rrcf	(??___fladd+2)^0,f,c
  5640  002108  320E               	rrcf	(??___fladd+1)^0,f,c
  5641  00210A  320D               	rrcf	??___fladd^0,f,c
  5642  00210C  C00D  F005         	movff	??___fladd,___fladd@b
  5643  002110  C00E  F006         	movff	??___fladd+1,___fladd@b+1
  5644  002114  C00F  F007         	movff	??___fladd+2,___fladd@b+2
  5645  002118  C010  F008         	movff	??___fladd+3,___fladd@b+3
  5646  00211C  2813               	incf	___fladd@bexp^0,w,c
  5647  00211E  B4D8               	btfsc	status,2,c
  5648  002120  EF94  F010         	goto	u5991
  5649  002124  EF96  F010         	goto	u5990
  5650  002128                     u5991:
  5651  002128  EF97  F010         	goto	l6014
  5652  00212C                     u5990:
  5653  00212C  2A13               	incf	___fladd@bexp^0,f,c
  5654  00212E                     l6014:
  5655  00212E  2813               	incf	___fladd@bexp^0,w,c
  5656  002130  B4D8               	btfsc	status,2,c
  5657  002132  EF9D  F010         	goto	u6001
  5658  002136  EF9F  F010         	goto	u6000
  5659  00213A                     u6001:
  5660  00213A  EFA7  F010         	goto	l6018
  5661  00213E                     u6000:
  5662  00213E  5013               	movf	___fladd@bexp^0,w,c
  5663  002140  A4D8               	btfss	status,2,c
  5664  002142  EFA5  F010         	goto	u6011
  5665  002146  EFA7  F010         	goto	u6010
  5666  00214A                     u6011:
  5667  00214A  EFB9  F010         	goto	l6022
  5668  00214E                     u6010:
  5669  00214E                     l6018:
  5670  00214E  0E00               	movlw	0
  5671  002150  6E05               	movwf	___fladd@b^0,c
  5672  002152  0E00               	movlw	0
  5673  002154  6E06               	movwf	(___fladd@b+1)^0,c
  5674  002156  0E00               	movlw	0
  5675  002158  6E07               	movwf	(___fladd@b+2)^0,c
  5676  00215A  0E00               	movlw	0
  5677  00215C  6E08               	movwf	(___fladd@b+3)^0,c
  5678  00215E  5013               	movf	___fladd@bexp^0,w,c
  5679  002160  A4D8               	btfss	status,2,c
  5680  002162  EFB5  F010         	goto	u6021
  5681  002166  EFB7  F010         	goto	u6020
  5682  00216A                     u6021:
  5683  00216A  EFB9  F010         	goto	l6022
  5684  00216E                     u6020:
  5685  00216E  0E00               	movlw	0
  5686  002170  6E11               	movwf	___fladd@signs^0,c
  5687  002172                     l6022:
  5688  002172  A013               	btfss	___fladd@bexp^0,0,c
  5689  002174  EFBE  F010         	goto	u6031
  5690  002178  EFC0  F010         	goto	u6030
  5691  00217C                     u6031:
  5692  00217C  EFC3  F010         	goto	l6026
  5693  002180                     u6030:
  5694  002180  8E07               	bsf	(___fladd@b+2)^0,7,c
  5695  002182  EFC4  F010         	goto	l6028
  5696  002186                     l6026:
  5697  002186  9E07               	bcf	(___fladd@b+2)^0,7,c
  5698  002188                     l6028:
  5699  002188  90D8               	bcf	status,0,c
  5700  00218A  3013               	rrcf	___fladd@bexp^0,w,c
  5701  00218C  6E08               	movwf	(___fladd@b+3)^0,c
  5702  00218E  AE11               	btfss	___fladd@signs^0,7,c
  5703  002190  EFCC  F010         	goto	u6041
  5704  002194  EFCE  F010         	goto	u6040
  5705  002198                     u6041:
  5706  002198  EFCF  F010         	goto	l6034
  5707  00219C                     u6040:
  5708  00219C  8E08               	bsf	(___fladd@b+3)^0,7,c
  5709  00219E                     l6034:
  5710  00219E  C005  F005         	movff	___fladd@b,?___fladd
  5711  0021A2  C006  F006         	movff	___fladd@b+1,?___fladd+1
  5712  0021A6  C007  F007         	movff	___fladd@b+2,?___fladd+2
  5713  0021AA  C008  F008         	movff	___fladd@b+3,?___fladd+3
  5714  0021AE                     l1255:
  5715  0021AE  0012               	return		;funcret
  5716  0021B0                     __end_of___fladd:
  5717                           	callstack 0
  5718                           
  5719 ;; *************** function ___flneg *****************
  5720 ;; Defined at:
  5721 ;;		line 15 in file "C:\Program Files\Microchip\xc8\v2.32\pic\sources\c99\common\flneg.c"
  5722 ;; Parameters:    Size  Location     Type
  5723 ;;  f1              4    4[COMRAM] unsigned char 
  5724 ;; Auto vars:     Size  Location     Type
  5725 ;;		None
  5726 ;; Return value:  Size  Location     Type
  5727 ;;                  4    4[COMRAM] unsigned char 
  5728 ;; Registers used:
  5729 ;;		wreg, status,2, status,0
  5730 ;; Tracked objects:
  5731 ;;		On entry : 0/0
  5732 ;;		On exit  : 0/0
  5733 ;;		Unchanged: 0/0
  5734 ;; Data sizes:     COMRAM   BANK0   BANK1   BANK2   BANK3   BANK4   BANK5   BANK6   BANK7   BANK8   BANK9  BANK10  BANK1
      +1  BANK12  BANK13  BANK14  BANK15
  5735 ;;      Params:         4       0       0       0       0       0       0       0       0       0       0       0       
      +0       0       0       0       0
  5736 ;;      Locals:         0       0       0       0       0       0       0       0       0       0       0       0       
      +0       0       0       0       0
  5737 ;;      Temps:          0       0       0       0       0       0       0       0       0       0       0       0       
      +0       0       0       0       0
  5738 ;;      Totals:         4       0       0       0       0       0       0       0       0       0       0       0       
      +0       0       0       0       0
  5739 ;;Total ram usage:        4 bytes
  5740 ;; Hardware stack levels used: 1
  5741 ;; Hardware stack levels required when called: 4
  5742 ;; This function calls:
  5743 ;;		Nothing
  5744 ;; This function is called by:
  5745 ;;		_efgtoa
  5746 ;; This function uses a non-reentrant model
  5747 ;;
  5748                           
  5749                           	psect	text20
  5750  004218                     __ptext20:
  5751                           	callstack 0
  5752  004218                     ___flneg:
  5753                           	callstack 22
  5754  004218  5005               	movf	___flneg@f1^0,w,c
  5755  00421A  1006               	iorwf	(___flneg@f1+1)^0,w,c
  5756  00421C  1007               	iorwf	(___flneg@f1+2)^0,w,c
  5757  00421E  1008               	iorwf	(___flneg@f1+3)^0,w,c
  5758  004220  B4D8               	btfsc	status,2,c
  5759  004222  EF15  F021         	goto	u6711
  5760  004226  EF17  F021         	goto	u6710
  5761  00422A                     u6711:
  5762  00422A  EF1F  F021         	goto	l6456
  5763  00422E                     u6710:
  5764  00422E  0E00               	movlw	0
  5765  004230  1A05               	xorwf	___flneg@f1^0,f,c
  5766  004232  0E00               	movlw	0
  5767  004234  1A06               	xorwf	(___flneg@f1+1)^0,f,c
  5768  004236  0E00               	movlw	0
  5769  004238  1A07               	xorwf	(___flneg@f1+2)^0,f,c
  5770  00423A  0E80               	movlw	128
  5771  00423C  1A08               	xorwf	(___flneg@f1+3)^0,f,c
  5772  00423E                     l6456:
  5773  00423E  C005  F005         	movff	___flneg@f1,?___flneg
  5774  004242  C006  F006         	movff	___flneg@f1+1,?___flneg+1
  5775  004246  C007  F007         	movff	___flneg@f1+2,?___flneg+2
  5776  00424A  C008  F008         	movff	___flneg@f1+3,?___flneg+3
  5777  00424E  0012               	return		;funcret
  5778  004250                     __end_of___flneg:
  5779                           	callstack 0
  5780                           
  5781 ;; *************** function ___flmul *****************
  5782 ;; Defined at:
  5783 ;;		line 8 in file "C:\Program Files\Microchip\xc8\v2.32\pic\sources\c99\common\sprcmul.c"
  5784 ;; Parameters:    Size  Location     Type
  5785 ;;  b               4    4[COMRAM] unsigned char 
  5786 ;;  a               4    8[COMRAM] unsigned char 
  5787 ;; Auto vars:     Size  Location     Type
  5788 ;;  prod            4   23[COMRAM] struct .
  5789 ;;  grs             4   18[COMRAM] unsigned long 
  5790 ;;  temp            2   27[COMRAM] struct .
  5791 ;;  bexp            1   22[COMRAM] unsigned char 
  5792 ;;  aexp            1   17[COMRAM] unsigned char 
  5793 ;;  sign            1   16[COMRAM] unsigned char 
  5794 ;; Return value:  Size  Location     Type
  5795 ;;                  4    4[COMRAM] unsigned char 
  5796 ;; Registers used:
  5797 ;;		wreg, status,2, status,0, prodl, prodh
  5798 ;; Tracked objects:
  5799 ;;		On entry : 0/0
  5800 ;;		On exit  : 0/0
  5801 ;;		Unchanged: 0/0
  5802 ;; Data sizes:     COMRAM   BANK0   BANK1   BANK2   BANK3   BANK4   BANK5   BANK6   BANK7   BANK8   BANK9  BANK10  BANK1
      +1  BANK12  BANK13  BANK14  BANK15
  5803 ;;      Params:         8       0       0       0       0       0       0       0       0       0       0       0       
      +0       0       0       0       0
  5804 ;;      Locals:        13       0       0       0       0       0       0       0       0       0       0       0       
      +0       0       0       0       0
  5805 ;;      Temps:          4       0       0       0       0       0       0       0       0       0       0       0       
      +0       0       0       0       0
  5806 ;;      Totals:        25       0       0       0       0       0       0       0       0       0       0       0       
      +0       0       0       0       0
  5807 ;;Total ram usage:       25 bytes
  5808 ;; Hardware stack levels used: 1
  5809 ;; Hardware stack levels required when called: 4
  5810 ;; This function calls:
  5811 ;;		Nothing
  5812 ;; This function is called by:
  5813 ;;		_efgtoa
  5814 ;; This function uses a non-reentrant model
  5815 ;;
  5816                           
  5817                           	psect	text21
  5818  0021B0                     __ptext21:
  5819                           	callstack 0
  5820  0021B0                     ___flmul:
  5821                           	callstack 22
  5822  0021B0  5008               	movf	(___flmul@b+3)^0,w,c
  5823  0021B2  0B80               	andlw	128
  5824  0021B4  6E11               	movwf	___flmul@sign^0,c
  5825  0021B6  5008               	movf	(___flmul@b+3)^0,w,c
  5826  0021B8  2408               	addwf	(___flmul@b+3)^0,w,c
  5827  0021BA  6E17               	movwf	___flmul@bexp^0,c
  5828  0021BC  AE07               	btfss	(___flmul@b+2)^0,7,c
  5829  0021BE  EFE3  F010         	goto	u6321
  5830  0021C2  EFE5  F010         	goto	u6320
  5831  0021C6                     u6321:
  5832  0021C6  EFE6  F010         	goto	l6204
  5833  0021CA                     u6320:
  5834  0021CA  8017               	bsf	___flmul@bexp^0,0,c
  5835  0021CC                     l6204:
  5836  0021CC  5017               	movf	___flmul@bexp^0,w,c
  5837  0021CE  B4D8               	btfsc	status,2,c
  5838  0021D0  EFEC  F010         	goto	u6331
  5839  0021D4  EFEE  F010         	goto	u6330
  5840  0021D8                     u6331:
  5841  0021D8  EF01  F011         	goto	l6212
  5842  0021DC                     u6330:
  5843  0021DC  2817               	incf	___flmul@bexp^0,w,c
  5844  0021DE  A4D8               	btfss	status,2,c
  5845  0021E0  EFF4  F010         	goto	u6341
  5846  0021E4  EFF6  F010         	goto	u6340
  5847  0021E8                     u6341:
  5848  0021E8  EFFE  F010         	goto	l6210
  5849  0021EC                     u6340:
  5850  0021EC  0E00               	movlw	0
  5851  0021EE  6E05               	movwf	___flmul@b^0,c
  5852  0021F0  0E00               	movlw	0
  5853  0021F2  6E06               	movwf	(___flmul@b+1)^0,c
  5854  0021F4  0E00               	movlw	0
  5855  0021F6  6E07               	movwf	(___flmul@b+2)^0,c
  5856  0021F8  0E00               	movlw	0
  5857  0021FA  6E08               	movwf	(___flmul@b+3)^0,c
  5858  0021FC                     l6210:
  5859  0021FC  8E07               	bsf	(___flmul@b+2)^0,7,c
  5860  0021FE  EF09  F011         	goto	l6214
  5861  002202                     l6212:
  5862  002202  0E00               	movlw	0
  5863  002204  6E05               	movwf	___flmul@b^0,c
  5864  002206  0E00               	movlw	0
  5865  002208  6E06               	movwf	(___flmul@b+1)^0,c
  5866  00220A  0E00               	movlw	0
  5867  00220C  6E07               	movwf	(___flmul@b+2)^0,c
  5868  00220E  0E00               	movlw	0
  5869  002210  6E08               	movwf	(___flmul@b+3)^0,c
  5870  002212                     l6214:
  5871  002212  500C               	movf	(___flmul@a+3)^0,w,c
  5872  002214  0B80               	andlw	128
  5873  002216  1A11               	xorwf	___flmul@sign^0,f,c
  5874  002218  500C               	movf	(___flmul@a+3)^0,w,c
  5875  00221A  240C               	addwf	(___flmul@a+3)^0,w,c
  5876  00221C  6E12               	movwf	___flmul@aexp^0,c
  5877  00221E  AE0B               	btfss	(___flmul@a+2)^0,7,c
  5878  002220  EF14  F011         	goto	u6351
  5879  002224  EF16  F011         	goto	u6350
  5880  002228                     u6351:
  5881  002228  EF17  F011         	goto	l6222
  5882  00222C                     u6350:
  5883  00222C  8012               	bsf	___flmul@aexp^0,0,c
  5884  00222E                     l6222:
  5885  00222E  5012               	movf	___flmul@aexp^0,w,c
  5886  002230  B4D8               	btfsc	status,2,c
  5887  002232  EF1D  F011         	goto	u6361
  5888  002236  EF1F  F011         	goto	u6360
  5889  00223A                     u6361:
  5890  00223A  EF32  F011         	goto	l6230
  5891  00223E                     u6360:
  5892  00223E  2812               	incf	___flmul@aexp^0,w,c
  5893  002240  A4D8               	btfss	status,2,c
  5894  002242  EF25  F011         	goto	u6371
  5895  002246  EF27  F011         	goto	u6370
  5896  00224A                     u6371:
  5897  00224A  EF2F  F011         	goto	l6228
  5898  00224E                     u6370:
  5899  00224E  0E00               	movlw	0
  5900  002250  6E09               	movwf	___flmul@a^0,c
  5901  002252  0E00               	movlw	0
  5902  002254  6E0A               	movwf	(___flmul@a+1)^0,c
  5903  002256  0E00               	movlw	0
  5904  002258  6E0B               	movwf	(___flmul@a+2)^0,c
  5905  00225A  0E00               	movlw	0
  5906  00225C  6E0C               	movwf	(___flmul@a+3)^0,c
  5907  00225E                     l6228:
  5908  00225E  8E0B               	bsf	(___flmul@a+2)^0,7,c
  5909  002260  EF3A  F011         	goto	l1332
  5910  002264                     l6230:
  5911  002264  0E00               	movlw	0
  5912  002266  6E09               	movwf	___flmul@a^0,c
  5913  002268  0E00               	movlw	0
  5914  00226A  6E0A               	movwf	(___flmul@a+1)^0,c
  5915  00226C  0E00               	movlw	0
  5916  00226E  6E0B               	movwf	(___flmul@a+2)^0,c
  5917  002270  0E00               	movlw	0
  5918  002272  6E0C               	movwf	(___flmul@a+3)^0,c
  5919  002274                     l1332:
  5920  002274  5012               	movf	___flmul@aexp^0,w,c
  5921  002276  B4D8               	btfsc	status,2,c
  5922  002278  EF40  F011         	goto	u6381
  5923  00227C  EF42  F011         	goto	u6380
  5924  002280                     u6381:
  5925  002280  EF4A  F011         	goto	l6234
  5926  002284                     u6380:
  5927  002284  5017               	movf	___flmul@bexp^0,w,c
  5928  002286  A4D8               	btfss	status,2,c
  5929  002288  EF48  F011         	goto	u6391
  5930  00228C  EF4A  F011         	goto	u6390
  5931  002290                     u6391:
  5932  002290  EF54  F011         	goto	l6238
  5933  002294                     u6390:
  5934  002294                     l6234:
  5935  002294  0E00               	movlw	0
  5936  002296  6E05               	movwf	?___flmul^0,c
  5937  002298  0E00               	movlw	0
  5938  00229A  6E06               	movwf	(?___flmul+1)^0,c
  5939  00229C  0E00               	movlw	0
  5940  00229E  6E07               	movwf	(?___flmul+2)^0,c
  5941  0022A0  0E00               	movlw	0
  5942  0022A2  6E08               	movwf	(?___flmul+3)^0,c
  5943  0022A4  EFEC  F012         	goto	l1336
  5944  0022A8                     l6238:
  5945  0022A8  500B               	movf	(___flmul@a+2)^0,w,c
  5946  0022AA  0205               	mulwf	___flmul@b^0,c
  5947  0022AC  CFF3 F01C          	movff	prodl,___flmul@temp
  5948  0022B0  CFF4 F01D          	movff	prodh,___flmul@temp+1
  5949  0022B4  501C               	movf	___flmul@temp^0,w,c
  5950  0022B6  6E13               	movwf	___flmul@grs^0,c
  5951  0022B8  6A14               	clrf	(___flmul@grs+1)^0,c
  5952  0022BA  6A15               	clrf	(___flmul@grs+2)^0,c
  5953  0022BC  6A16               	clrf	(___flmul@grs+3)^0,c
  5954  0022BE  501D               	movf	(___flmul@temp+1)^0,w,c
  5955  0022C0  6E18               	movwf	___flmul@prod^0,c
  5956  0022C2  6A19               	clrf	(___flmul@prod+1)^0,c
  5957  0022C4  6A1A               	clrf	(___flmul@prod+2)^0,c
  5958  0022C6  6A1B               	clrf	(___flmul@prod+3)^0,c
  5959  0022C8  500A               	movf	(___flmul@a+1)^0,w,c
  5960  0022CA  0206               	mulwf	(___flmul@b+1)^0,c
  5961  0022CC  CFF3 F01C          	movff	prodl,___flmul@temp
  5962  0022D0  CFF4 F01D          	movff	prodh,___flmul@temp+1
  5963  0022D4  501C               	movf	___flmul@temp^0,w,c
  5964  0022D6  2613               	addwf	___flmul@grs^0,f,c
  5965  0022D8  0E00               	movlw	0
  5966  0022DA  2214               	addwfc	(___flmul@grs+1)^0,f,c
  5967  0022DC  2215               	addwfc	(___flmul@grs+2)^0,f,c
  5968  0022DE  2216               	addwfc	(___flmul@grs+3)^0,f,c
  5969  0022E0  501D               	movf	(___flmul@temp+1)^0,w,c
  5970  0022E2  2618               	addwf	___flmul@prod^0,f,c
  5971  0022E4  0E00               	movlw	0
  5972  0022E6  2219               	addwfc	(___flmul@prod+1)^0,f,c
  5973  0022E8  221A               	addwfc	(___flmul@prod+2)^0,f,c
  5974  0022EA  221B               	addwfc	(___flmul@prod+3)^0,f,c
  5975  0022EC  5009               	movf	___flmul@a^0,w,c
  5976  0022EE  0207               	mulwf	(___flmul@b+2)^0,c
  5977  0022F0  CFF3 F01C          	movff	prodl,___flmul@temp
  5978  0022F4  CFF4 F01D          	movff	prodh,___flmul@temp+1
  5979  0022F8  501C               	movf	___flmul@temp^0,w,c
  5980  0022FA  2613               	addwf	___flmul@grs^0,f,c
  5981  0022FC  0E00               	movlw	0
  5982  0022FE  2214               	addwfc	(___flmul@grs+1)^0,f,c
  5983  002300  2215               	addwfc	(___flmul@grs+2)^0,f,c
  5984  002302  2216               	addwfc	(___flmul@grs+3)^0,f,c
  5985  002304  501D               	movf	(___flmul@temp+1)^0,w,c
  5986  002306  2618               	addwf	___flmul@prod^0,f,c
  5987  002308  0E00               	movlw	0
  5988  00230A  2219               	addwfc	(___flmul@prod+1)^0,f,c
  5989  00230C  221A               	addwfc	(___flmul@prod+2)^0,f,c
  5990  00230E  221B               	addwfc	(___flmul@prod+3)^0,f,c
  5991  002310  C015  F016         	movff	___flmul@grs+2,___flmul@grs+3
  5992  002314  C014  F015         	movff	___flmul@grs+1,___flmul@grs+2
  5993  002318  C013  F014         	movff	___flmul@grs,___flmul@grs+1
  5994  00231C  6A13               	clrf	___flmul@grs^0,c
  5995  00231E  5009               	movf	___flmul@a^0,w,c
  5996  002320  0206               	mulwf	(___flmul@b+1)^0,c
  5997  002322  CFF3 F01C          	movff	prodl,___flmul@temp
  5998  002326  CFF4 F01D          	movff	prodh,___flmul@temp+1
  5999  00232A  501C               	movf	___flmul@temp^0,w,c
  6000  00232C  2613               	addwf	___flmul@grs^0,f,c
  6001  00232E  501D               	movf	(___flmul@temp+1)^0,w,c
  6002  002330  2214               	addwfc	(___flmul@grs+1)^0,f,c
  6003  002332  0E00               	movlw	0
  6004  002334  2215               	addwfc	(___flmul@grs+2)^0,f,c
  6005  002336  0E00               	movlw	0
  6006  002338  2216               	addwfc	(___flmul@grs+3)^0,f,c
  6007  00233A  500A               	movf	(___flmul@a+1)^0,w,c
  6008  00233C  0205               	mulwf	___flmul@b^0,c
  6009  00233E  CFF3 F01C          	movff	prodl,___flmul@temp
  6010  002342  CFF4 F01D          	movff	prodh,___flmul@temp+1
  6011  002346  501C               	movf	___flmul@temp^0,w,c
  6012  002348  2613               	addwf	___flmul@grs^0,f,c
  6013  00234A  501D               	movf	(___flmul@temp+1)^0,w,c
  6014  00234C  2214               	addwfc	(___flmul@grs+1)^0,f,c
  6015  00234E  0E00               	movlw	0
  6016  002350  2215               	addwfc	(___flmul@grs+2)^0,f,c
  6017  002352  0E00               	movlw	0
  6018  002354  2216               	addwfc	(___flmul@grs+3)^0,f,c
  6019  002356  C015  F016         	movff	___flmul@grs+2,___flmul@grs+3
  6020  00235A  C014  F015         	movff	___flmul@grs+1,___flmul@grs+2
  6021  00235E  C013  F014         	movff	___flmul@grs,___flmul@grs+1
  6022  002362  6A13               	clrf	___flmul@grs^0,c
  6023  002364  5009               	movf	___flmul@a^0,w,c
  6024  002366  0205               	mulwf	___flmul@b^0,c
  6025  002368  CFF3 F01C          	movff	prodl,___flmul@temp
  6026  00236C  CFF4 F01D          	movff	prodh,___flmul@temp+1
  6027  002370  501C               	movf	___flmul@temp^0,w,c
  6028  002372  2613               	addwf	___flmul@grs^0,f,c
  6029  002374  501D               	movf	(___flmul@temp+1)^0,w,c
  6030  002376  2214               	addwfc	(___flmul@grs+1)^0,f,c
  6031  002378  0E00               	movlw	0
  6032  00237A  2215               	addwfc	(___flmul@grs+2)^0,f,c
  6033  00237C  0E00               	movlw	0
  6034  00237E  2216               	addwfc	(___flmul@grs+3)^0,f,c
  6035  002380  500B               	movf	(___flmul@a+2)^0,w,c
  6036  002382  0206               	mulwf	(___flmul@b+1)^0,c
  6037  002384  CFF3 F01C          	movff	prodl,___flmul@temp
  6038  002388  CFF4 F01D          	movff	prodh,___flmul@temp+1
  6039  00238C  501C               	movf	___flmul@temp^0,w,c
  6040  00238E  2618               	addwf	___flmul@prod^0,f,c
  6041  002390  501D               	movf	(___flmul@temp+1)^0,w,c
  6042  002392  2219               	addwfc	(___flmul@prod+1)^0,f,c
  6043  002394  0E00               	movlw	0
  6044  002396  221A               	addwfc	(___flmul@prod+2)^0,f,c
  6045  002398  0E00               	movlw	0
  6046  00239A  221B               	addwfc	(___flmul@prod+3)^0,f,c
  6047  00239C  500A               	movf	(___flmul@a+1)^0,w,c
  6048  00239E  0207               	mulwf	(___flmul@b+2)^0,c
  6049  0023A0  CFF3 F01C          	movff	prodl,___flmul@temp
  6050  0023A4  CFF4 F01D          	movff	prodh,___flmul@temp+1
  6051  0023A8  501C               	movf	___flmul@temp^0,w,c
  6052  0023AA  2618               	addwf	___flmul@prod^0,f,c
  6053  0023AC  501D               	movf	(___flmul@temp+1)^0,w,c
  6054  0023AE  2219               	addwfc	(___flmul@prod+1)^0,f,c
  6055  0023B0  0E00               	movlw	0
  6056  0023B2  221A               	addwfc	(___flmul@prod+2)^0,f,c
  6057  0023B4  0E00               	movlw	0
  6058  0023B6  221B               	addwfc	(___flmul@prod+3)^0,f,c
  6059  0023B8  500B               	movf	(___flmul@a+2)^0,w,c
  6060  0023BA  0207               	mulwf	(___flmul@b+2)^0,c
  6061  0023BC  CFF3 F01C          	movff	prodl,___flmul@temp
  6062  0023C0  CFF4 F01D          	movff	prodh,___flmul@temp+1
  6063  0023C4  501C               	movf	___flmul@temp^0,w,c
  6064  0023C6  6E0D               	movwf	??___flmul^0,c
  6065  0023C8  501D               	movf	(___flmul@temp+1)^0,w,c
  6066  0023CA  6E0E               	movwf	(??___flmul+1)^0,c
  6067  0023CC  6A0F               	clrf	(??___flmul+2)^0,c
  6068  0023CE  6A10               	clrf	(??___flmul+3)^0,c
  6069  0023D0  C00F  F010         	movff	??___flmul+2,??___flmul+3
  6070  0023D4  C00E  F00F         	movff	??___flmul+1,??___flmul+2
  6071  0023D8  C00D  F00E         	movff	??___flmul,??___flmul+1
  6072  0023DC  6A0D               	clrf	??___flmul^0,c
  6073  0023DE  500D               	movf	??___flmul^0,w,c
  6074  0023E0  2618               	addwf	___flmul@prod^0,f,c
  6075  0023E2  500E               	movf	(??___flmul+1)^0,w,c
  6076  0023E4  2219               	addwfc	(___flmul@prod+1)^0,f,c
  6077  0023E6  500F               	movf	(??___flmul+2)^0,w,c
  6078  0023E8  221A               	addwfc	(___flmul@prod+2)^0,f,c
  6079  0023EA  5010               	movf	(??___flmul+3)^0,w,c
  6080  0023EC  221B               	addwfc	(___flmul@prod+3)^0,f,c
  6081  0023EE  C013  F00D         	movff	___flmul@grs,??___flmul
  6082  0023F2  C014  F00E         	movff	___flmul@grs+1,??___flmul+1
  6083  0023F6  C015  F00F         	movff	___flmul@grs+2,??___flmul+2
  6084  0023FA  C016  F010         	movff	___flmul@grs+3,??___flmul+3
  6085  0023FE  0E19               	movlw	25
  6086  002400  EF07  F012         	goto	u6400
  6087  002404                     u6405:
  6088  002404  90D8               	bcf	status,0,c
  6089  002406  3210               	rrcf	(??___flmul+3)^0,f,c
  6090  002408  320F               	rrcf	(??___flmul+2)^0,f,c
  6091  00240A  320E               	rrcf	(??___flmul+1)^0,f,c
  6092  00240C  320D               	rrcf	??___flmul^0,f,c
  6093  00240E                     u6400:
  6094  00240E  2EE8               	decfsz	wreg,f,c
  6095  002410  EF02  F012         	goto	u6405
  6096  002414  500D               	movf	??___flmul^0,w,c
  6097  002416  2618               	addwf	___flmul@prod^0,f,c
  6098  002418  500E               	movf	(??___flmul+1)^0,w,c
  6099  00241A  2219               	addwfc	(___flmul@prod+1)^0,f,c
  6100  00241C  500F               	movf	(??___flmul+2)^0,w,c
  6101  00241E  221A               	addwfc	(___flmul@prod+2)^0,f,c
  6102  002420  5010               	movf	(??___flmul+3)^0,w,c
  6103  002422  221B               	addwfc	(___flmul@prod+3)^0,f,c
  6104  002424  C015  F016         	movff	___flmul@grs+2,___flmul@grs+3
  6105  002428  C014  F015         	movff	___flmul@grs+1,___flmul@grs+2
  6106  00242C  C013  F014         	movff	___flmul@grs,___flmul@grs+1
  6107  002430  6A13               	clrf	___flmul@grs^0,c
  6108  002432  5012               	movf	___flmul@aexp^0,w,c
  6109  002434  C017  F00D         	movff	___flmul@bexp,??___flmul
  6110  002438  6A0E               	clrf	(??___flmul+1)^0,c
  6111  00243A  260D               	addwf	??___flmul^0,f,c
  6112  00243C  0E00               	movlw	0
  6113  00243E  220E               	addwfc	(??___flmul+1)^0,f,c
  6114  002440  0E82               	movlw	130
  6115  002442  240D               	addwf	??___flmul^0,w,c
  6116  002444  6E1C               	movwf	___flmul@temp^0,c
  6117  002446  0EFF               	movlw	255
  6118  002448  200E               	addwfc	(??___flmul+1)^0,w,c
  6119  00244A  6E1D               	movwf	(___flmul@temp+1)^0,c
  6120  00244C  EF3D  F012         	goto	l6286
  6121  002450                     l6280:
  6122  002450  90D8               	bcf	status,0,c
  6123  002452  3618               	rlcf	___flmul@prod^0,f,c
  6124  002454  3619               	rlcf	(___flmul@prod+1)^0,f,c
  6125  002456  361A               	rlcf	(___flmul@prod+2)^0,f,c
  6126  002458  361B               	rlcf	(___flmul@prod+3)^0,f,c
  6127  00245A  AE16               	btfss	(___flmul@grs+3)^0,7,c
  6128  00245C  EF32  F012         	goto	u6411
  6129  002460  EF34  F012         	goto	u6410
  6130  002464                     u6411:
  6131  002464  EF35  F012         	goto	l1339
  6132  002468                     u6410:
  6133  002468  8018               	bsf	___flmul@prod^0,0,c
  6134  00246A                     l1339:
  6135  00246A  90D8               	bcf	status,0,c
  6136  00246C  3613               	rlcf	___flmul@grs^0,f,c
  6137  00246E  3614               	rlcf	(___flmul@grs+1)^0,f,c
  6138  002470  3615               	rlcf	(___flmul@grs+2)^0,f,c
  6139  002472  3616               	rlcf	(___flmul@grs+3)^0,f,c
  6140  002474  061C               	decf	___flmul@temp^0,f,c
  6141  002476  A0D8               	btfss	status,0,c
  6142  002478  061D               	decf	(___flmul@temp+1)^0,f,c
  6143  00247A                     l6286:
  6144  00247A  AE1A               	btfss	(___flmul@prod+2)^0,7,c
  6145  00247C  EF42  F012         	goto	u6421
  6146  002480  EF44  F012         	goto	u6420
  6147  002484                     u6421:
  6148  002484  EF28  F012         	goto	l6280
  6149  002488                     u6420:
  6150  002488  0E00               	movlw	0
  6151  00248A  6E12               	movwf	___flmul@aexp^0,c
  6152  00248C  AE16               	btfss	(___flmul@grs+3)^0,7,c
  6153  00248E  EF4B  F012         	goto	u6431
  6154  002492  EF4D  F012         	goto	u6430
  6155  002496                     u6431:
  6156  002496  EF71  F012         	goto	l1341
  6157  00249A                     u6430:
  6158  00249A  0EFF               	movlw	255
  6159  00249C  1413               	andwf	___flmul@grs^0,w,c
  6160  00249E  6E0D               	movwf	??___flmul^0,c
  6161  0024A0  0EFF               	movlw	255
  6162  0024A2  1414               	andwf	(___flmul@grs+1)^0,w,c
  6163  0024A4  6E0E               	movwf	(??___flmul+1)^0,c
  6164  0024A6  0EFF               	movlw	255
  6165  0024A8  1415               	andwf	(___flmul@grs+2)^0,w,c
  6166  0024AA  6E0F               	movwf	(??___flmul+2)^0,c
  6167  0024AC  0E7F               	movlw	127
  6168  0024AE  1416               	andwf	(___flmul@grs+3)^0,w,c
  6169  0024B0  6E10               	movwf	(??___flmul+3)^0,c
  6170  0024B2  500D               	movf	??___flmul^0,w,c
  6171  0024B4  100E               	iorwf	(??___flmul+1)^0,w,c
  6172  0024B6  100F               	iorwf	(??___flmul+2)^0,w,c
  6173  0024B8  1010               	iorwf	(??___flmul+3)^0,w,c
  6174  0024BA  B4D8               	btfsc	status,2,c
  6175  0024BC  EF62  F012         	goto	u6441
  6176  0024C0  EF64  F012         	goto	u6440
  6177  0024C4                     u6441:
  6178  0024C4  EF68  F012         	goto	l1342
  6179  0024C8                     u6440:
  6180  0024C8                     l6294:
  6181  0024C8  0E01               	movlw	1
  6182  0024CA  6E12               	movwf	___flmul@aexp^0,c
  6183  0024CC  EF71  F012         	goto	l1341
  6184  0024D0                     l1342:
  6185  0024D0  A018               	btfss	___flmul@prod^0,0,c
  6186  0024D2  EF6D  F012         	goto	u6451
  6187  0024D6  EF6F  F012         	goto	u6450
  6188  0024DA                     u6451:
  6189  0024DA  EF71  F012         	goto	l1341
  6190  0024DE                     u6450:
  6191  0024DE  EF64  F012         	goto	l6294
  6192  0024E2                     l1341:
  6193  0024E2  5012               	movf	___flmul@aexp^0,w,c
  6194  0024E4  B4D8               	btfsc	status,2,c
  6195  0024E6  EF77  F012         	goto	u6461
  6196  0024EA  EF79  F012         	goto	u6460
  6197  0024EE                     u6461:
  6198  0024EE  EF9D  F012         	goto	l6306
  6199  0024F2                     u6460:
  6200  0024F2  0E01               	movlw	1
  6201  0024F4  2618               	addwf	___flmul@prod^0,f,c
  6202  0024F6  0E00               	movlw	0
  6203  0024F8  2219               	addwfc	(___flmul@prod+1)^0,f,c
  6204  0024FA  221A               	addwfc	(___flmul@prod+2)^0,f,c
  6205  0024FC  221B               	addwfc	(___flmul@prod+3)^0,f,c
  6206  0024FE  A01B               	btfss	(___flmul@prod+3)^0,0,c
  6207  002500  EF84  F012         	goto	u6471
  6208  002504  EF86  F012         	goto	u6470
  6209  002508                     u6471:
  6210  002508  EF9D  F012         	goto	l6306
  6211  00250C                     u6470:
  6212  00250C  C018  F00D         	movff	___flmul@prod,??___flmul
  6213  002510  C019  F00E         	movff	___flmul@prod+1,??___flmul+1
  6214  002514  C01A  F00F         	movff	___flmul@prod+2,??___flmul+2
  6215  002518  C01B  F010         	movff	___flmul@prod+3,??___flmul+3
  6216  00251C  3410               	rlcf	(??___flmul+3)^0,w,c
  6217  00251E  3210               	rrcf	(??___flmul+3)^0,f,c
  6218  002520  320F               	rrcf	(??___flmul+2)^0,f,c
  6219  002522  320E               	rrcf	(??___flmul+1)^0,f,c
  6220  002524  320D               	rrcf	??___flmul^0,f,c
  6221  002526  C00D  F018         	movff	??___flmul,___flmul@prod
  6222  00252A  C00E  F019         	movff	??___flmul+1,___flmul@prod+1
  6223  00252E  C00F  F01A         	movff	??___flmul+2,___flmul@prod+2
  6224  002532  C010  F01B         	movff	??___flmul+3,___flmul@prod+3
  6225  002536  4A1C               	infsnz	___flmul@temp^0,f,c
  6226  002538  2A1D               	incf	(___flmul@temp+1)^0,f,c
  6227  00253A                     l6306:
  6228  00253A  BE1D               	btfsc	(___flmul@temp+1)^0,7,c
  6229  00253C  EFA8  F012         	goto	u6481
  6230  002540  501D               	movf	(___flmul@temp+1)^0,w,c
  6231  002542  E108               	bnz	u6480
  6232  002544  281C               	incf	___flmul@temp^0,w,c
  6233  002546  A0D8               	btfss	status,0,c
  6234  002548  EFA8  F012         	goto	u6481
  6235  00254C  EFAA  F012         	goto	u6480
  6236  002550                     u6481:
  6237  002550  EFB4  F012         	goto	l6310
  6238  002554                     u6480:
  6239  002554  0E00               	movlw	0
  6240  002556  6E18               	movwf	___flmul@prod^0,c
  6241  002558  0E00               	movlw	0
  6242  00255A  6E19               	movwf	(___flmul@prod+1)^0,c
  6243  00255C  0E80               	movlw	128
  6244  00255E  6E1A               	movwf	(___flmul@prod+2)^0,c
  6245  002560  0E7F               	movlw	127
  6246  002562  6E1B               	movwf	(___flmul@prod+3)^0,c
  6247  002564  EFE2  F012         	goto	l6322
  6248  002568                     l6310:
  6249  002568  BE1D               	btfsc	(___flmul@temp+1)^0,7,c
  6250  00256A  EFC1  F012         	goto	u6490
  6251  00256E  501D               	movf	(___flmul@temp+1)^0,w,c
  6252  002570  E106               	bnz	u6491
  6253  002572  041C               	decf	___flmul@temp^0,w,c
  6254  002574  B0D8               	btfsc	status,0,c
  6255  002576  EFBF  F012         	goto	u6491
  6256  00257A  EFC1  F012         	goto	u6490
  6257  00257E                     u6491:
  6258  00257E  EFCD  F012         	goto	l1349
  6259  002582                     u6490:
  6260  002582  0E00               	movlw	0
  6261  002584  6E18               	movwf	___flmul@prod^0,c
  6262  002586  0E00               	movlw	0
  6263  002588  6E19               	movwf	(___flmul@prod+1)^0,c
  6264  00258A  0E00               	movlw	0
  6265  00258C  6E1A               	movwf	(___flmul@prod+2)^0,c
  6266  00258E  0E00               	movlw	0
  6267  002590  6E1B               	movwf	(___flmul@prod+3)^0,c
  6268  002592  0E00               	movlw	0
  6269  002594  6E11               	movwf	___flmul@sign^0,c
  6270  002596  EFE2  F012         	goto	l6322
  6271  00259A                     l1349:
  6272  00259A  C01C  F017         	movff	___flmul@temp,___flmul@bexp
  6273  00259E  0EFF               	movlw	255
  6274  0025A0  1618               	andwf	___flmul@prod^0,f,c
  6275  0025A2  0EFF               	movlw	255
  6276  0025A4  1619               	andwf	(___flmul@prod+1)^0,f,c
  6277  0025A6  0E7F               	movlw	127
  6278  0025A8  161A               	andwf	(___flmul@prod+2)^0,f,c
  6279  0025AA  0E00               	movlw	0
  6280  0025AC  161B               	andwf	(___flmul@prod+3)^0,f,c
  6281  0025AE  A017               	btfss	___flmul@bexp^0,0,c
  6282  0025B0  EFDC  F012         	goto	u6501
  6283  0025B4  EFDE  F012         	goto	u6500
  6284  0025B8                     u6501:
  6285  0025B8  EFDF  F012         	goto	l6320
  6286  0025BC                     u6500:
  6287  0025BC  8E1A               	bsf	(___flmul@prod+2)^0,7,c
  6288  0025BE                     l6320:
  6289  0025BE  90D8               	bcf	status,0,c
  6290  0025C0  3017               	rrcf	___flmul@bexp^0,w,c
  6291  0025C2  6E1B               	movwf	(___flmul@prod+3)^0,c
  6292  0025C4                     l6322:
  6293  0025C4  5011               	movf	___flmul@sign^0,w,c
  6294  0025C6  121B               	iorwf	(___flmul@prod+3)^0,f,c
  6295  0025C8  C018  F005         	movff	___flmul@prod,?___flmul
  6296  0025CC  C019  F006         	movff	___flmul@prod+1,?___flmul+1
  6297  0025D0  C01A  F007         	movff	___flmul@prod+2,?___flmul+2
  6298  0025D4  C01B  F008         	movff	___flmul@prod+3,?___flmul+3
  6299  0025D8                     l1336:
  6300  0025D8  0012               	return		;funcret
  6301  0025DA                     __end_of___flmul:
  6302                           	callstack 0
  6303                           
  6304 ;; *************** function ___flge *****************
  6305 ;; Defined at:
  6306 ;;		line 4 in file "C:\Program Files\Microchip\xc8\v2.32\pic\sources\c99\common\flge.c"
  6307 ;; Parameters:    Size  Location     Type
  6308 ;;  ff1             4   29[COMRAM] unsigned char 
  6309 ;;  ff2             4   33[COMRAM] unsigned char 
  6310 ;; Auto vars:     Size  Location     Type
  6311 ;;		None
  6312 ;; Return value:  Size  Location     Type
  6313 ;;		None               void
  6314 ;; Registers used:
  6315 ;;		wreg, status,2, status,0
  6316 ;; Tracked objects:
  6317 ;;		On entry : 0/0
  6318 ;;		On exit  : 0/0
  6319 ;;		Unchanged: 0/0
  6320 ;; Data sizes:     COMRAM   BANK0   BANK1   BANK2   BANK3   BANK4   BANK5   BANK6   BANK7   BANK8   BANK9  BANK10  BANK1
      +1  BANK12  BANK13  BANK14  BANK15
  6321 ;;      Params:         8       0       0       0       0       0       0       0       0       0       0       0       
      +0       0       0       0       0
  6322 ;;      Locals:         0       0       0       0       0       0       0       0       0       0       0       0       
      +0       0       0       0       0
  6323 ;;      Temps:          4       0       0       0       0       0       0       0       0       0       0       0       
      +0       0       0       0       0
  6324 ;;      Totals:        12       0       0       0       0       0       0       0       0       0       0       0       
      +0       0       0       0       0
  6325 ;;Total ram usage:       12 bytes
  6326 ;; Hardware stack levels used: 1
  6327 ;; Hardware stack levels required when called: 4
  6328 ;; This function calls:
  6329 ;;		Nothing
  6330 ;; This function is called by:
  6331 ;;		_efgtoa
  6332 ;; This function uses a non-reentrant model
  6333 ;;
  6334                           
  6335                           	psect	text22
  6336  0031BC                     __ptext22:
  6337                           	callstack 0
  6338  0031BC                     ___flge:
  6339                           	callstack 22
  6340  0031BC  0E00               	movlw	0
  6341  0031BE  141E               	andwf	___flge@ff1^0,w,c
  6342  0031C0  6E26               	movwf	??___flge^0,c
  6343  0031C2  0E00               	movlw	0
  6344  0031C4  141F               	andwf	(___flge@ff1+1)^0,w,c
  6345  0031C6  6E27               	movwf	(??___flge+1)^0,c
  6346  0031C8  0E80               	movlw	128
  6347  0031CA  1420               	andwf	(___flge@ff1+2)^0,w,c
  6348  0031CC  6E28               	movwf	(??___flge+2)^0,c
  6349  0031CE  0E7F               	movlw	127
  6350  0031D0  1421               	andwf	(___flge@ff1+3)^0,w,c
  6351  0031D2  6E29               	movwf	(??___flge+3)^0,c
  6352  0031D4  5026               	movf	??___flge^0,w,c
  6353  0031D6  1027               	iorwf	(??___flge+1)^0,w,c
  6354  0031D8  1028               	iorwf	(??___flge+2)^0,w,c
  6355  0031DA  1029               	iorwf	(??___flge+3)^0,w,c
  6356  0031DC  A4D8               	btfss	status,2,c
  6357  0031DE  EFF3  F018         	goto	u6661
  6358  0031E2  EFF5  F018         	goto	u6660
  6359  0031E6                     u6661:
  6360  0031E6  EFFD  F018         	goto	l6434
  6361  0031EA                     u6660:
  6362  0031EA  0E00               	movlw	0
  6363  0031EC  6E1E               	movwf	___flge@ff1^0,c
  6364  0031EE  0E00               	movlw	0
  6365  0031F0  6E1F               	movwf	(___flge@ff1+1)^0,c
  6366  0031F2  0E00               	movlw	0
  6367  0031F4  6E20               	movwf	(___flge@ff1+2)^0,c
  6368  0031F6  0E00               	movlw	0
  6369  0031F8  6E21               	movwf	(___flge@ff1+3)^0,c
  6370  0031FA                     l6434:
  6371  0031FA  0E00               	movlw	0
  6372  0031FC  1422               	andwf	___flge@ff2^0,w,c
  6373  0031FE  6E26               	movwf	??___flge^0,c
  6374  003200  0E00               	movlw	0
  6375  003202  1423               	andwf	(___flge@ff2+1)^0,w,c
  6376  003204  6E27               	movwf	(??___flge+1)^0,c
  6377  003206  0E80               	movlw	128
  6378  003208  1424               	andwf	(___flge@ff2+2)^0,w,c
  6379  00320A  6E28               	movwf	(??___flge+2)^0,c
  6380  00320C  0E7F               	movlw	127
  6381  00320E  1425               	andwf	(___flge@ff2+3)^0,w,c
  6382  003210  6E29               	movwf	(??___flge+3)^0,c
  6383  003212  5026               	movf	??___flge^0,w,c
  6384  003214  1027               	iorwf	(??___flge+1)^0,w,c
  6385  003216  1028               	iorwf	(??___flge+2)^0,w,c
  6386  003218  1029               	iorwf	(??___flge+3)^0,w,c
  6387  00321A  A4D8               	btfss	status,2,c
  6388  00321C  EF12  F019         	goto	u6671
  6389  003220  EF14  F019         	goto	u6670
  6390  003224                     u6671:
  6391  003224  EF1C  F019         	goto	l6438
  6392  003228                     u6670:
  6393  003228  0E00               	movlw	0
  6394  00322A  6E22               	movwf	___flge@ff2^0,c
  6395  00322C  0E00               	movlw	0
  6396  00322E  6E23               	movwf	(___flge@ff2+1)^0,c
  6397  003230  0E00               	movlw	0
  6398  003232  6E24               	movwf	(___flge@ff2+2)^0,c
  6399  003234  0E00               	movlw	0
  6400  003236  6E25               	movwf	(___flge@ff2+3)^0,c
  6401  003238                     l6438:
  6402  003238  AE21               	btfss	(___flge@ff1+3)^0,7,c
  6403  00323A  EF21  F019         	goto	u6681
  6404  00323E  EF23  F019         	goto	u6680
  6405  003242                     u6681:
  6406  003242  EF2C  F019         	goto	l6442
  6407  003246                     u6680:
  6408  003246  6C1E               	negf	___flge@ff1^0,c
  6409  003248  1E1F               	comf	(___flge@ff1+1)^0,f,c
  6410  00324A  B0D8               	btfsc	status,0,c
  6411  00324C  2A1F               	incf	(___flge@ff1+1)^0,f,c
  6412  00324E  1E20               	comf	(___flge@ff1+2)^0,f,c
  6413  003250  B0D8               	btfsc	status,0,c
  6414  003252  2A20               	incf	(___flge@ff1+2)^0,f,c
  6415  003254  0E80               	movlw	128
  6416  003256  5621               	subfwb	(___flge@ff1+3)^0,f,c
  6417  003258                     l6442:
  6418  003258  AE25               	btfss	(___flge@ff2+3)^0,7,c
  6419  00325A  EF31  F019         	goto	u6691
  6420  00325E  EF33  F019         	goto	u6690
  6421  003262                     u6691:
  6422  003262  EF3C  F019         	goto	l983
  6423  003266                     u6690:
  6424  003266  6C22               	negf	___flge@ff2^0,c
  6425  003268  1E23               	comf	(___flge@ff2+1)^0,f,c
  6426  00326A  B0D8               	btfsc	status,0,c
  6427  00326C  2A23               	incf	(___flge@ff2+1)^0,f,c
  6428  00326E  1E24               	comf	(___flge@ff2+2)^0,f,c
  6429  003270  B0D8               	btfsc	status,0,c
  6430  003272  2A24               	incf	(___flge@ff2+2)^0,f,c
  6431  003274  0E80               	movlw	128
  6432  003276  5625               	subfwb	(___flge@ff2+3)^0,f,c
  6433  003278                     l983:
  6434  003278  0E00               	movlw	0
  6435  00327A  1A1E               	xorwf	___flge@ff1^0,f,c
  6436  00327C  0E00               	movlw	0
  6437  00327E  1A1F               	xorwf	(___flge@ff1+1)^0,f,c
  6438  003280  0E00               	movlw	0
  6439  003282  1A20               	xorwf	(___flge@ff1+2)^0,f,c
  6440  003284  0E80               	movlw	128
  6441  003286  1A21               	xorwf	(___flge@ff1+3)^0,f,c
  6442  003288  0E00               	movlw	0
  6443  00328A  1A22               	xorwf	___flge@ff2^0,f,c
  6444  00328C  0E00               	movlw	0
  6445  00328E  1A23               	xorwf	(___flge@ff2+1)^0,f,c
  6446  003290  0E00               	movlw	0
  6447  003292  1A24               	xorwf	(___flge@ff2+2)^0,f,c
  6448  003294  0E80               	movlw	128
  6449  003296  1A25               	xorwf	(___flge@ff2+3)^0,f,c
  6450  003298  5022               	movf	___flge@ff2^0,w,c
  6451  00329A  5C1E               	subwf	___flge@ff1^0,w,c
  6452  00329C  5023               	movf	(___flge@ff2+1)^0,w,c
  6453  00329E  581F               	subwfb	(___flge@ff1+1)^0,w,c
  6454  0032A0  5024               	movf	(___flge@ff2+2)^0,w,c
  6455  0032A2  5820               	subwfb	(___flge@ff1+2)^0,w,c
  6456  0032A4  5025               	movf	(___flge@ff2+3)^0,w,c
  6457  0032A6  5821               	subwfb	(___flge@ff1+3)^0,w,c
  6458  0032A8  B0D8               	btfsc	status,0,c
  6459  0032AA  EF59  F019         	goto	u6701
  6460  0032AE  EF5B  F019         	goto	u6700
  6461  0032B2                     u6701:
  6462  0032B2  EF5E  F019         	goto	l6448
  6463  0032B6                     u6700:
  6464  0032B6  90D8               	bcf	status,0,c
  6465  0032B8  EF5F  F019         	goto	l988
  6466  0032BC                     l6448:
  6467  0032BC  80D8               	bsf	status,0,c
  6468  0032BE                     l988:
  6469  0032BE  0012               	return		;funcret
  6470  0032C0                     __end_of___flge:
  6471                           	callstack 0
  6472                           
  6473 ;; *************** function ___fleq *****************
  6474 ;; Defined at:
  6475 ;;		line 4 in file "C:\Program Files\Microchip\xc8\v2.32\pic\sources\c99\common\fleq.c"
  6476 ;; Parameters:    Size  Location     Type
  6477 ;;  ff1             4    4[COMRAM] unsigned char 
  6478 ;;  ff2             4    8[COMRAM] unsigned char 
  6479 ;; Auto vars:     Size  Location     Type
  6480 ;;		None
  6481 ;; Return value:  Size  Location     Type
  6482 ;;		None               void
  6483 ;; Registers used:
  6484 ;;		wreg, status,2, status,0
  6485 ;; Tracked objects:
  6486 ;;		On entry : 0/0
  6487 ;;		On exit  : 0/0
  6488 ;;		Unchanged: 0/0
  6489 ;; Data sizes:     COMRAM   BANK0   BANK1   BANK2   BANK3   BANK4   BANK5   BANK6   BANK7   BANK8   BANK9  BANK10  BANK1
      +1  BANK12  BANK13  BANK14  BANK15
  6490 ;;      Params:         8       0       0       0       0       0       0       0       0       0       0       0       
      +0       0       0       0       0
  6491 ;;      Locals:         0       0       0       0       0       0       0       0       0       0       0       0       
      +0       0       0       0       0
  6492 ;;      Temps:          4       0       0       0       0       0       0       0       0       0       0       0       
      +0       0       0       0       0
  6493 ;;      Totals:        12       0       0       0       0       0       0       0       0       0       0       0       
      +0       0       0       0       0
  6494 ;;Total ram usage:       12 bytes
  6495 ;; Hardware stack levels used: 1
  6496 ;; Hardware stack levels required when called: 4
  6497 ;; This function calls:
  6498 ;;		Nothing
  6499 ;; This function is called by:
  6500 ;;		_efgtoa
  6501 ;; This function uses a non-reentrant model
  6502 ;;
  6503                           
  6504                           	psect	text23
  6505  003856                     __ptext23:
  6506                           	callstack 0
  6507  003856                     ___fleq:
  6508                           	callstack 22
  6509  003856  0E00               	movlw	0
  6510  003858  1405               	andwf	___fleq@ff1^0,w,c
  6511  00385A  6E0D               	movwf	??___fleq^0,c
  6512  00385C  0E00               	movlw	0
  6513  00385E  1406               	andwf	(___fleq@ff1+1)^0,w,c
  6514  003860  6E0E               	movwf	(??___fleq+1)^0,c
  6515  003862  0E80               	movlw	128
  6516  003864  1407               	andwf	(___fleq@ff1+2)^0,w,c
  6517  003866  6E0F               	movwf	(??___fleq+2)^0,c
  6518  003868  0E7F               	movlw	127
  6519  00386A  1408               	andwf	(___fleq@ff1+3)^0,w,c
  6520  00386C  6E10               	movwf	(??___fleq+3)^0,c
  6521  00386E  500D               	movf	??___fleq^0,w,c
  6522  003870  100E               	iorwf	(??___fleq+1)^0,w,c
  6523  003872  100F               	iorwf	(??___fleq+2)^0,w,c
  6524  003874  1010               	iorwf	(??___fleq+3)^0,w,c
  6525  003876  A4D8               	btfss	status,2,c
  6526  003878  EF40  F01C         	goto	u6631
  6527  00387C  EF42  F01C         	goto	u6630
  6528  003880                     u6631:
  6529  003880  EF4A  F01C         	goto	l6418
  6530  003884                     u6630:
  6531  003884  0E00               	movlw	0
  6532  003886  6E05               	movwf	___fleq@ff1^0,c
  6533  003888  0E00               	movlw	0
  6534  00388A  6E06               	movwf	(___fleq@ff1+1)^0,c
  6535  00388C  0E00               	movlw	0
  6536  00388E  6E07               	movwf	(___fleq@ff1+2)^0,c
  6537  003890  0E00               	movlw	0
  6538  003892  6E08               	movwf	(___fleq@ff1+3)^0,c
  6539  003894                     l6418:
  6540  003894  0E00               	movlw	0
  6541  003896  1409               	andwf	___fleq@ff2^0,w,c
  6542  003898  6E0D               	movwf	??___fleq^0,c
  6543  00389A  0E00               	movlw	0
  6544  00389C  140A               	andwf	(___fleq@ff2+1)^0,w,c
  6545  00389E  6E0E               	movwf	(??___fleq+1)^0,c
  6546  0038A0  0E80               	movlw	128
  6547  0038A2  140B               	andwf	(___fleq@ff2+2)^0,w,c
  6548  0038A4  6E0F               	movwf	(??___fleq+2)^0,c
  6549  0038A6  0E7F               	movlw	127
  6550  0038A8  140C               	andwf	(___fleq@ff2+3)^0,w,c
  6551  0038AA  6E10               	movwf	(??___fleq+3)^0,c
  6552  0038AC  500D               	movf	??___fleq^0,w,c
  6553  0038AE  100E               	iorwf	(??___fleq+1)^0,w,c
  6554  0038B0  100F               	iorwf	(??___fleq+2)^0,w,c
  6555  0038B2  1010               	iorwf	(??___fleq+3)^0,w,c
  6556  0038B4  A4D8               	btfss	status,2,c
  6557  0038B6  EF5F  F01C         	goto	u6641
  6558  0038BA  EF61  F01C         	goto	u6640
  6559  0038BE                     u6641:
  6560  0038BE  EF69  F01C         	goto	l6422
  6561  0038C2                     u6640:
  6562  0038C2  0E00               	movlw	0
  6563  0038C4  6E09               	movwf	___fleq@ff2^0,c
  6564  0038C6  0E00               	movlw	0
  6565  0038C8  6E0A               	movwf	(___fleq@ff2+1)^0,c
  6566  0038CA  0E00               	movlw	0
  6567  0038CC  6E0B               	movwf	(___fleq@ff2+2)^0,c
  6568  0038CE  0E00               	movlw	0
  6569  0038D0  6E0C               	movwf	(___fleq@ff2+3)^0,c
  6570  0038D2                     l6422:
  6571  0038D2  5009               	movf	___fleq@ff2^0,w,c
  6572  0038D4  1805               	xorwf	___fleq@ff1^0,w,c
  6573  0038D6  E10F               	bnz	u6650
  6574  0038D8  500A               	movf	(___fleq@ff2+1)^0,w,c
  6575  0038DA  1806               	xorwf	(___fleq@ff1+1)^0,w,c
  6576  0038DC  E10C               	bnz	u6650
  6577  0038DE  500B               	movf	(___fleq@ff2+2)^0,w,c
  6578  0038E0  1807               	xorwf	(___fleq@ff1+2)^0,w,c
  6579  0038E2  E109               	bnz	u6650
  6580  0038E4  500C               	movf	(___fleq@ff2+3)^0,w,c
  6581  0038E6  1808               	xorwf	(___fleq@ff1+3)^0,w,c
  6582  0038E8  B4D8               	btfsc	status,2,c
  6583  0038EA  EF79  F01C         	goto	u6651
  6584  0038EE  EF7B  F01C         	goto	u6650
  6585  0038F2                     u6651:
  6586  0038F2  EF7E  F01C         	goto	l6426
  6587  0038F6                     u6650:
  6588  0038F6  90D8               	bcf	status,0,c
  6589  0038F8  EF7F  F01C         	goto	l977
  6590  0038FC                     l6426:
  6591  0038FC  80D8               	bsf	status,0,c
  6592  0038FE                     l977:
  6593  0038FE  0012               	return		;funcret
  6594  003900                     __end_of___fleq:
  6595                           	callstack 0
  6596                           
  6597 ;; *************** function ___fldiv *****************
  6598 ;; Defined at:
  6599 ;;		line 11 in file "C:\Program Files\Microchip\xc8\v2.32\pic\sources\c99\common\sprcdiv.c"
  6600 ;; Parameters:    Size  Location     Type
  6601 ;;  b               4    4[COMRAM] unsigned char 
  6602 ;;  a               4    8[COMRAM] unsigned char 
  6603 ;; Auto vars:     Size  Location     Type
  6604 ;;  grs             4   23[COMRAM] unsigned long 
  6605 ;;  rem             4   16[COMRAM] unsigned long 
  6606 ;;  new_exp         2   21[COMRAM] short 
  6607 ;;  aexp            1   28[COMRAM] unsigned char 
  6608 ;;  bexp            1   27[COMRAM] unsigned char 
  6609 ;;  sign            1   20[COMRAM] unsigned char 
  6610 ;; Return value:  Size  Location     Type
  6611 ;;                  4    4[COMRAM] unsigned char 
  6612 ;; Registers used:
  6613 ;;		wreg, status,2, status,0
  6614 ;; Tracked objects:
  6615 ;;		On entry : 0/0
  6616 ;;		On exit  : 0/0
  6617 ;;		Unchanged: 0/0
  6618 ;; Data sizes:     COMRAM   BANK0   BANK1   BANK2   BANK3   BANK4   BANK5   BANK6   BANK7   BANK8   BANK9  BANK10  BANK1
      +1  BANK12  BANK13  BANK14  BANK15
  6619 ;;      Params:         8       0       0       0       0       0       0       0       0       0       0       0       
      +0       0       0       0       0
  6620 ;;      Locals:        13       0       0       0       0       0       0       0       0       0       0       0       
      +0       0       0       0       0
  6621 ;;      Temps:          4       0       0       0       0       0       0       0       0       0       0       0       
      +0       0       0       0       0
  6622 ;;      Totals:        25       0       0       0       0       0       0       0       0       0       0       0       
      +0       0       0       0       0
  6623 ;;Total ram usage:       25 bytes
  6624 ;; Hardware stack levels used: 1
  6625 ;; Hardware stack levels required when called: 4
  6626 ;; This function calls:
  6627 ;;		Nothing
  6628 ;; This function is called by:
  6629 ;;		_efgtoa
  6630 ;; This function uses a non-reentrant model
  6631 ;;
  6632                           
  6633                           	psect	text24
  6634  0025DA                     __ptext24:
  6635                           	callstack 0
  6636  0025DA                     ___fldiv:
  6637                           	callstack 22
  6638  0025DA  5008               	movf	(___fldiv@b+3)^0,w,c
  6639  0025DC  0B80               	andlw	128
  6640  0025DE  6E15               	movwf	___fldiv@sign^0,c
  6641  0025E0  5008               	movf	(___fldiv@b+3)^0,w,c
  6642  0025E2  2408               	addwf	(___fldiv@b+3)^0,w,c
  6643  0025E4  6E1C               	movwf	___fldiv@bexp^0,c
  6644  0025E6  AE07               	btfss	(___fldiv@b+2)^0,7,c
  6645  0025E8  EFF8  F012         	goto	u6091
  6646  0025EC  EFFA  F012         	goto	u6090
  6647  0025F0                     u6091:
  6648  0025F0  EFFB  F012         	goto	l6066
  6649  0025F4                     u6090:
  6650  0025F4  801C               	bsf	___fldiv@bexp^0,0,c
  6651  0025F6                     l6066:
  6652  0025F6  501C               	movf	___fldiv@bexp^0,w,c
  6653  0025F8  B4D8               	btfsc	status,2,c
  6654  0025FA  EF01  F013         	goto	u6101
  6655  0025FE  EF03  F013         	goto	u6100
  6656  002602                     u6101:
  6657  002602  EF18  F013         	goto	l6076
  6658  002606                     u6100:
  6659  002606  281C               	incf	___fldiv@bexp^0,w,c
  6660  002608  A4D8               	btfss	status,2,c
  6661  00260A  EF09  F013         	goto	u6111
  6662  00260E  EF0B  F013         	goto	u6110
  6663  002612                     u6111:
  6664  002612  EF13  F013         	goto	l6072
  6665  002616                     u6110:
  6666  002616  0E00               	movlw	0
  6667  002618  6E05               	movwf	___fldiv@b^0,c
  6668  00261A  0E00               	movlw	0
  6669  00261C  6E06               	movwf	(___fldiv@b+1)^0,c
  6670  00261E  0E00               	movlw	0
  6671  002620  6E07               	movwf	(___fldiv@b+2)^0,c
  6672  002622  0E00               	movlw	0
  6673  002624  6E08               	movwf	(___fldiv@b+3)^0,c
  6674  002626                     l6072:
  6675  002626  8E07               	bsf	(___fldiv@b+2)^0,7,c
  6676  002628  0E00               	movlw	0
  6677  00262A  6E08               	movwf	(___fldiv@b+3)^0,c
  6678  00262C  EF20  F013         	goto	l6078
  6679  002630                     l6076:
  6680  002630  0E00               	movlw	0
  6681  002632  6E05               	movwf	___fldiv@b^0,c
  6682  002634  0E00               	movlw	0
  6683  002636  6E06               	movwf	(___fldiv@b+1)^0,c
  6684  002638  0E00               	movlw	0
  6685  00263A  6E07               	movwf	(___fldiv@b+2)^0,c
  6686  00263C  0E00               	movlw	0
  6687  00263E  6E08               	movwf	(___fldiv@b+3)^0,c
  6688  002640                     l6078:
  6689  002640  500C               	movf	(___fldiv@a+3)^0,w,c
  6690  002642  0B80               	andlw	128
  6691  002644  1A15               	xorwf	___fldiv@sign^0,f,c
  6692  002646  500C               	movf	(___fldiv@a+3)^0,w,c
  6693  002648  240C               	addwf	(___fldiv@a+3)^0,w,c
  6694  00264A  6E1D               	movwf	___fldiv@aexp^0,c
  6695  00264C  AE0B               	btfss	(___fldiv@a+2)^0,7,c
  6696  00264E  EF2B  F013         	goto	u6121
  6697  002652  EF2D  F013         	goto	u6120
  6698  002656                     u6121:
  6699  002656  EF2E  F013         	goto	l6086
  6700  00265A                     u6120:
  6701  00265A  801D               	bsf	___fldiv@aexp^0,0,c
  6702  00265C                     l6086:
  6703  00265C  501D               	movf	___fldiv@aexp^0,w,c
  6704  00265E  B4D8               	btfsc	status,2,c
  6705  002660  EF34  F013         	goto	u6131
  6706  002664  EF36  F013         	goto	u6130
  6707  002668                     u6131:
  6708  002668  EF4B  F013         	goto	l6096
  6709  00266C                     u6130:
  6710  00266C  281D               	incf	___fldiv@aexp^0,w,c
  6711  00266E  A4D8               	btfss	status,2,c
  6712  002670  EF3C  F013         	goto	u6141
  6713  002674  EF3E  F013         	goto	u6140
  6714  002678                     u6141:
  6715  002678  EF46  F013         	goto	l6092
  6716  00267C                     u6140:
  6717  00267C  0E00               	movlw	0
  6718  00267E  6E09               	movwf	___fldiv@a^0,c
  6719  002680  0E00               	movlw	0
  6720  002682  6E0A               	movwf	(___fldiv@a+1)^0,c
  6721  002684  0E00               	movlw	0
  6722  002686  6E0B               	movwf	(___fldiv@a+2)^0,c
  6723  002688  0E00               	movlw	0
  6724  00268A  6E0C               	movwf	(___fldiv@a+3)^0,c
  6725  00268C                     l6092:
  6726  00268C  8E0B               	bsf	(___fldiv@a+2)^0,7,c
  6727  00268E  0E00               	movlw	0
  6728  002690  6E0C               	movwf	(___fldiv@a+3)^0,c
  6729  002692  EF53  F013         	goto	l6098
  6730  002696                     l6096:
  6731  002696  0E00               	movlw	0
  6732  002698  6E09               	movwf	___fldiv@a^0,c
  6733  00269A  0E00               	movlw	0
  6734  00269C  6E0A               	movwf	(___fldiv@a+1)^0,c
  6735  00269E  0E00               	movlw	0
  6736  0026A0  6E0B               	movwf	(___fldiv@a+2)^0,c
  6737  0026A2  0E00               	movlw	0
  6738  0026A4  6E0C               	movwf	(___fldiv@a+3)^0,c
  6739  0026A6                     l6098:
  6740  0026A6  5009               	movf	___fldiv@a^0,w,c
  6741  0026A8  100A               	iorwf	(___fldiv@a+1)^0,w,c
  6742  0026AA  100B               	iorwf	(___fldiv@a+2)^0,w,c
  6743  0026AC  100C               	iorwf	(___fldiv@a+3)^0,w,c
  6744  0026AE  A4D8               	btfss	status,2,c
  6745  0026B0  EF5C  F013         	goto	u6151
  6746  0026B4  EF5E  F013         	goto	u6150
  6747  0026B8                     u6151:
  6748  0026B8  EF76  F013         	goto	l6110
  6749  0026BC                     u6150:
  6750  0026BC  0E00               	movlw	0
  6751  0026BE  6E05               	movwf	___fldiv@b^0,c
  6752  0026C0  0E00               	movlw	0
  6753  0026C2  6E06               	movwf	(___fldiv@b+1)^0,c
  6754  0026C4  0E00               	movlw	0
  6755  0026C6  6E07               	movwf	(___fldiv@b+2)^0,c
  6756  0026C8  0E00               	movlw	0
  6757  0026CA  6E08               	movwf	(___fldiv@b+3)^0,c
  6758  0026CC  0E80               	movlw	128
  6759  0026CE  1207               	iorwf	(___fldiv@b+2)^0,f,c
  6760  0026D0  0E7F               	movlw	127
  6761  0026D2  1208               	iorwf	(___fldiv@b+3)^0,f,c
  6762  0026D4                     l6104:
  6763  0026D4  5015               	movf	___fldiv@sign^0,w,c
  6764  0026D6  1208               	iorwf	(___fldiv@b+3)^0,f,c
  6765  0026D8  C005  F005         	movff	___fldiv@b,?___fldiv
  6766  0026DC  C006  F006         	movff	___fldiv@b+1,?___fldiv+1
  6767  0026E0  C007  F007         	movff	___fldiv@b+2,?___fldiv+2
  6768  0026E4  C008  F008         	movff	___fldiv@b+3,?___fldiv+3
  6769  0026E8  EFB9  F014         	goto	l1300
  6770  0026EC                     l6110:
  6771  0026EC  501C               	movf	___fldiv@bexp^0,w,c
  6772  0026EE  A4D8               	btfss	status,2,c
  6773  0026F0  EF7C  F013         	goto	u6161
  6774  0026F4  EF7E  F013         	goto	u6160
  6775  0026F8                     u6161:
  6776  0026F8  EF88  F013         	goto	l6118
  6777  0026FC                     u6160:
  6778  0026FC  0E00               	movlw	0
  6779  0026FE  6E05               	movwf	?___fldiv^0,c
  6780  002700  0E00               	movlw	0
  6781  002702  6E06               	movwf	(?___fldiv+1)^0,c
  6782  002704  0E00               	movlw	0
  6783  002706  6E07               	movwf	(?___fldiv+2)^0,c
  6784  002708  0E00               	movlw	0
  6785  00270A  6E08               	movwf	(?___fldiv+3)^0,c
  6786  00270C  EFB9  F014         	goto	l1300
  6787  002710                     l6118:
  6788  002710  501D               	movf	___fldiv@aexp^0,w,c
  6789  002712  C01C  F00D         	movff	___fldiv@bexp,??___fldiv
  6790  002716  6A0E               	clrf	(??___fldiv+1)^0,c
  6791  002718  5E0D               	subwf	??___fldiv^0,f,c
  6792  00271A  0E00               	movlw	0
  6793  00271C  5A0E               	subwfb	(??___fldiv+1)^0,f,c
  6794  00271E  0E7F               	movlw	127
  6795  002720  240D               	addwf	??___fldiv^0,w,c
  6796  002722  6E16               	movwf	___fldiv@new_exp^0,c
  6797  002724  0E00               	movlw	0
  6798  002726  200E               	addwfc	(??___fldiv+1)^0,w,c
  6799  002728  6E17               	movwf	(___fldiv@new_exp+1)^0,c
  6800  00272A  C005  F011         	movff	___fldiv@b,___fldiv@rem
  6801  00272E  C006  F012         	movff	___fldiv@b+1,___fldiv@rem+1
  6802  002732  C007  F013         	movff	___fldiv@b+2,___fldiv@rem+2
  6803  002736  C008  F014         	movff	___fldiv@b+3,___fldiv@rem+3
  6804  00273A  0E00               	movlw	0
  6805  00273C  6E05               	movwf	___fldiv@b^0,c
  6806  00273E  0E00               	movlw	0
  6807  002740  6E06               	movwf	(___fldiv@b+1)^0,c
  6808  002742  0E00               	movlw	0
  6809  002744  6E07               	movwf	(___fldiv@b+2)^0,c
  6810  002746  0E00               	movlw	0
  6811  002748  6E08               	movwf	(___fldiv@b+3)^0,c
  6812  00274A  0E00               	movlw	0
  6813  00274C  6E18               	movwf	___fldiv@grs^0,c
  6814  00274E  0E00               	movlw	0
  6815  002750  6E19               	movwf	(___fldiv@grs+1)^0,c
  6816  002752  0E00               	movlw	0
  6817  002754  6E1A               	movwf	(___fldiv@grs+2)^0,c
  6818  002756  0E00               	movlw	0
  6819  002758  6E1B               	movwf	(___fldiv@grs+3)^0,c
  6820  00275A  0E00               	movlw	0
  6821  00275C  6E1D               	movwf	___fldiv@aexp^0,c
  6822  00275E  EFE9  F013         	goto	l1302
  6823  002762                     l6128:
  6824  002762  501D               	movf	___fldiv@aexp^0,w,c
  6825  002764  B4D8               	btfsc	status,2,c
  6826  002766  EFB7  F013         	goto	u6171
  6827  00276A  EFB9  F013         	goto	u6170
  6828  00276E                     u6171:
  6829  00276E  EFD0  F013         	goto	l6136
  6830  002772                     u6170:
  6831  002772  90D8               	bcf	status,0,c
  6832  002774  3611               	rlcf	___fldiv@rem^0,f,c
  6833  002776  3612               	rlcf	(___fldiv@rem+1)^0,f,c
  6834  002778  3613               	rlcf	(___fldiv@rem+2)^0,f,c
  6835  00277A  3614               	rlcf	(___fldiv@rem+3)^0,f,c
  6836  00277C  90D8               	bcf	status,0,c
  6837  00277E  3605               	rlcf	___fldiv@b^0,f,c
  6838  002780  3606               	rlcf	(___fldiv@b+1)^0,f,c
  6839  002782  3607               	rlcf	(___fldiv@b+2)^0,f,c
  6840  002784  3608               	rlcf	(___fldiv@b+3)^0,f,c
  6841  002786  AE1B               	btfss	(___fldiv@grs+3)^0,7,c
  6842  002788  EFC8  F013         	goto	u6181
  6843  00278C  EFCA  F013         	goto	u6180
  6844  002790                     u6181:
  6845  002790  EFCB  F013         	goto	l1305
  6846  002794                     u6180:
  6847  002794  8005               	bsf	___fldiv@b^0,0,c
  6848  002796                     l1305:
  6849  002796  90D8               	bcf	status,0,c
  6850  002798  3618               	rlcf	___fldiv@grs^0,f,c
  6851  00279A  3619               	rlcf	(___fldiv@grs+1)^0,f,c
  6852  00279C  361A               	rlcf	(___fldiv@grs+2)^0,f,c
  6853  00279E  361B               	rlcf	(___fldiv@grs+3)^0,f,c
  6854  0027A0                     l6136:
  6855  0027A0  5009               	movf	___fldiv@a^0,w,c
  6856  0027A2  5C11               	subwf	___fldiv@rem^0,w,c
  6857  0027A4  500A               	movf	(___fldiv@a+1)^0,w,c
  6858  0027A6  5812               	subwfb	(___fldiv@rem+1)^0,w,c
  6859  0027A8  500B               	movf	(___fldiv@a+2)^0,w,c
  6860  0027AA  5813               	subwfb	(___fldiv@rem+2)^0,w,c
  6861  0027AC  500C               	movf	(___fldiv@a+3)^0,w,c
  6862  0027AE  5814               	subwfb	(___fldiv@rem+3)^0,w,c
  6863  0027B0  A0D8               	btfss	status,0,c
  6864  0027B2  EFDD  F013         	goto	u6191
  6865  0027B6  EFDF  F013         	goto	u6190
  6866  0027BA                     u6191:
  6867  0027BA  EFE8  F013         	goto	l6142
  6868  0027BE                     u6190:
  6869  0027BE  8C1B               	bsf	(___fldiv@grs+3)^0,6,c
  6870  0027C0  5009               	movf	___fldiv@a^0,w,c
  6871  0027C2  5E11               	subwf	___fldiv@rem^0,f,c
  6872  0027C4  500A               	movf	(___fldiv@a+1)^0,w,c
  6873  0027C6  5A12               	subwfb	(___fldiv@rem+1)^0,f,c
  6874  0027C8  500B               	movf	(___fldiv@a+2)^0,w,c
  6875  0027CA  5A13               	subwfb	(___fldiv@rem+2)^0,f,c
  6876  0027CC  500C               	movf	(___fldiv@a+3)^0,w,c
  6877  0027CE  5A14               	subwfb	(___fldiv@rem+3)^0,f,c
  6878  0027D0                     l6142:
  6879  0027D0  2A1D               	incf	___fldiv@aexp^0,f,c
  6880  0027D2                     l1302:
  6881  0027D2  0E19               	movlw	25
  6882  0027D4  641D               	cpfsgt	___fldiv@aexp^0,c
  6883  0027D6  EFEF  F013         	goto	u6201
  6884  0027DA  EFF1  F013         	goto	u6200
  6885  0027DE                     u6201:
  6886  0027DE  EFB1  F013         	goto	l6128
  6887  0027E2                     u6200:
  6888  0027E2  5011               	movf	___fldiv@rem^0,w,c
  6889  0027E4  1012               	iorwf	(___fldiv@rem+1)^0,w,c
  6890  0027E6  1013               	iorwf	(___fldiv@rem+2)^0,w,c
  6891  0027E8  1014               	iorwf	(___fldiv@rem+3)^0,w,c
  6892  0027EA  B4D8               	btfsc	status,2,c
  6893  0027EC  EFFA  F013         	goto	u6211
  6894  0027F0  EFFC  F013         	goto	u6210
  6895  0027F4                     u6211:
  6896  0027F4  EF14  F014         	goto	l6154
  6897  0027F8                     u6210:
  6898  0027F8  8018               	bsf	___fldiv@grs^0,0,c
  6899  0027FA  EF14  F014         	goto	l6154
  6900  0027FE                     l6148:
  6901  0027FE  90D8               	bcf	status,0,c
  6902  002800  3605               	rlcf	___fldiv@b^0,f,c
  6903  002802  3606               	rlcf	(___fldiv@b+1)^0,f,c
  6904  002804  3607               	rlcf	(___fldiv@b+2)^0,f,c
  6905  002806  3608               	rlcf	(___fldiv@b+3)^0,f,c
  6906  002808  AE1B               	btfss	(___fldiv@grs+3)^0,7,c
  6907  00280A  EF09  F014         	goto	u6221
  6908  00280E  EF0B  F014         	goto	u6220
  6909  002812                     u6221:
  6910  002812  EF0C  F014         	goto	l1311
  6911  002816                     u6220:
  6912  002816  8005               	bsf	___fldiv@b^0,0,c
  6913  002818                     l1311:
  6914  002818  90D8               	bcf	status,0,c
  6915  00281A  3618               	rlcf	___fldiv@grs^0,f,c
  6916  00281C  3619               	rlcf	(___fldiv@grs+1)^0,f,c
  6917  00281E  361A               	rlcf	(___fldiv@grs+2)^0,f,c
  6918  002820  361B               	rlcf	(___fldiv@grs+3)^0,f,c
  6919  002822  0616               	decf	___fldiv@new_exp^0,f,c
  6920  002824  A0D8               	btfss	status,0,c
  6921  002826  0617               	decf	(___fldiv@new_exp+1)^0,f,c
  6922  002828                     l6154:
  6923  002828  AE07               	btfss	(___fldiv@b+2)^0,7,c
  6924  00282A  EF19  F014         	goto	u6231
  6925  00282E  EF1B  F014         	goto	u6230
  6926  002832                     u6231:
  6927  002832  EFFF  F013         	goto	l6148
  6928  002836                     u6230:
  6929  002836  0E00               	movlw	0
  6930  002838  6E1D               	movwf	___fldiv@aexp^0,c
  6931  00283A  AE1B               	btfss	(___fldiv@grs+3)^0,7,c
  6932  00283C  EF22  F014         	goto	u6241
  6933  002840  EF24  F014         	goto	u6240
  6934  002844                     u6241:
  6935  002844  EF48  F014         	goto	l1313
  6936  002848                     u6240:
  6937  002848  0EFF               	movlw	255
  6938  00284A  1418               	andwf	___fldiv@grs^0,w,c
  6939  00284C  6E0D               	movwf	??___fldiv^0,c
  6940  00284E  0EFF               	movlw	255
  6941  002850  1419               	andwf	(___fldiv@grs+1)^0,w,c
  6942  002852  6E0E               	movwf	(??___fldiv+1)^0,c
  6943  002854  0EFF               	movlw	255
  6944  002856  141A               	andwf	(___fldiv@grs+2)^0,w,c
  6945  002858  6E0F               	movwf	(??___fldiv+2)^0,c
  6946  00285A  0E7F               	movlw	127
  6947  00285C  141B               	andwf	(___fldiv@grs+3)^0,w,c
  6948  00285E  6E10               	movwf	(??___fldiv+3)^0,c
  6949  002860  500D               	movf	??___fldiv^0,w,c
  6950  002862  100E               	iorwf	(??___fldiv+1)^0,w,c
  6951  002864  100F               	iorwf	(??___fldiv+2)^0,w,c
  6952  002866  1010               	iorwf	(??___fldiv+3)^0,w,c
  6953  002868  B4D8               	btfsc	status,2,c
  6954  00286A  EF39  F014         	goto	u6251
  6955  00286E  EF3B  F014         	goto	u6250
  6956  002872                     u6251:
  6957  002872  EF3F  F014         	goto	l1314
  6958  002876                     u6250:
  6959  002876                     l6162:
  6960  002876  0E01               	movlw	1
  6961  002878  6E1D               	movwf	___fldiv@aexp^0,c
  6962  00287A  EF48  F014         	goto	l1313
  6963  00287E                     l1314:
  6964  00287E  A005               	btfss	___fldiv@b^0,0,c
  6965  002880  EF44  F014         	goto	u6261
  6966  002884  EF46  F014         	goto	u6260
  6967  002888                     u6261:
  6968  002888  EF48  F014         	goto	l1313
  6969  00288C                     u6260:
  6970  00288C  EF3B  F014         	goto	l6162
  6971  002890                     l1313:
  6972  002890  501D               	movf	___fldiv@aexp^0,w,c
  6973  002892  B4D8               	btfsc	status,2,c
  6974  002894  EF4E  F014         	goto	u6271
  6975  002898  EF50  F014         	goto	u6270
  6976  00289C                     u6271:
  6977  00289C  EF74  F014         	goto	l6174
  6978  0028A0                     u6270:
  6979  0028A0  0E01               	movlw	1
  6980  0028A2  2605               	addwf	___fldiv@b^0,f,c
  6981  0028A4  0E00               	movlw	0
  6982  0028A6  2206               	addwfc	(___fldiv@b+1)^0,f,c
  6983  0028A8  2207               	addwfc	(___fldiv@b+2)^0,f,c
  6984  0028AA  2208               	addwfc	(___fldiv@b+3)^0,f,c
  6985  0028AC  A008               	btfss	(___fldiv@b+3)^0,0,c
  6986  0028AE  EF5B  F014         	goto	u6281
  6987  0028B2  EF5D  F014         	goto	u6280
  6988  0028B6                     u6281:
  6989  0028B6  EF74  F014         	goto	l6174
  6990  0028BA                     u6280:
  6991  0028BA  C005  F00D         	movff	___fldiv@b,??___fldiv
  6992  0028BE  C006  F00E         	movff	___fldiv@b+1,??___fldiv+1
  6993  0028C2  C007  F00F         	movff	___fldiv@b+2,??___fldiv+2
  6994  0028C6  C008  F010         	movff	___fldiv@b+3,??___fldiv+3
  6995  0028CA  3410               	rlcf	(??___fldiv+3)^0,w,c
  6996  0028CC  3210               	rrcf	(??___fldiv+3)^0,f,c
  6997  0028CE  320F               	rrcf	(??___fldiv+2)^0,f,c
  6998  0028D0  320E               	rrcf	(??___fldiv+1)^0,f,c
  6999  0028D2  320D               	rrcf	??___fldiv^0,f,c
  7000  0028D4  C00D  F005         	movff	??___fldiv,___fldiv@b
  7001  0028D8  C00E  F006         	movff	??___fldiv+1,___fldiv@b+1
  7002  0028DC  C00F  F007         	movff	??___fldiv+2,___fldiv@b+2
  7003  0028E0  C010  F008         	movff	??___fldiv+3,___fldiv@b+3
  7004  0028E4  4A16               	infsnz	___fldiv@new_exp^0,f,c
  7005  0028E6  2A17               	incf	(___fldiv@new_exp+1)^0,f,c
  7006  0028E8                     l6174:
  7007  0028E8  BE17               	btfsc	(___fldiv@new_exp+1)^0,7,c
  7008  0028EA  EF7F  F014         	goto	u6291
  7009  0028EE  5017               	movf	(___fldiv@new_exp+1)^0,w,c
  7010  0028F0  E108               	bnz	u6290
  7011  0028F2  2816               	incf	___fldiv@new_exp^0,w,c
  7012  0028F4  A0D8               	btfss	status,0,c
  7013  0028F6  EF7F  F014         	goto	u6291
  7014  0028FA  EF81  F014         	goto	u6290
  7015  0028FE                     u6291:
  7016  0028FE  EF8C  F014         	goto	l6178
  7017  002902                     u6290:
  7018  002902  0E00               	movlw	0
  7019  002904  6E17               	movwf	(___fldiv@new_exp+1)^0,c
  7020  002906  6816               	setf	___fldiv@new_exp^0,c
  7021  002908  0E00               	movlw	0
  7022  00290A  6E05               	movwf	___fldiv@b^0,c
  7023  00290C  0E00               	movlw	0
  7024  00290E  6E06               	movwf	(___fldiv@b+1)^0,c
  7025  002910  0E00               	movlw	0
  7026  002912  6E07               	movwf	(___fldiv@b+2)^0,c
  7027  002914  0E00               	movlw	0
  7028  002916  6E08               	movwf	(___fldiv@b+3)^0,c
  7029  002918                     l6178:
  7030  002918  BE17               	btfsc	(___fldiv@new_exp+1)^0,7,c
  7031  00291A  EF99  F014         	goto	u6300
  7032  00291E  5017               	movf	(___fldiv@new_exp+1)^0,w,c
  7033  002920  E106               	bnz	u6301
  7034  002922  0416               	decf	___fldiv@new_exp^0,w,c
  7035  002924  B0D8               	btfsc	status,0,c
  7036  002926  EF97  F014         	goto	u6301
  7037  00292A  EF99  F014         	goto	u6300
  7038  00292E                     u6301:
  7039  00292E  EFA7  F014         	goto	l6182
  7040  002932                     u6300:
  7041  002932  0E00               	movlw	0
  7042  002934  6E17               	movwf	(___fldiv@new_exp+1)^0,c
  7043  002936  0E00               	movlw	0
  7044  002938  6E16               	movwf	___fldiv@new_exp^0,c
  7045  00293A  0E00               	movlw	0
  7046  00293C  6E05               	movwf	___fldiv@b^0,c
  7047  00293E  0E00               	movlw	0
  7048  002940  6E06               	movwf	(___fldiv@b+1)^0,c
  7049  002942  0E00               	movlw	0
  7050  002944  6E07               	movwf	(___fldiv@b+2)^0,c
  7051  002946  0E00               	movlw	0
  7052  002948  6E08               	movwf	(___fldiv@b+3)^0,c
  7053  00294A  0E00               	movlw	0
  7054  00294C  6E15               	movwf	___fldiv@sign^0,c
  7055  00294E                     l6182:
  7056  00294E  C016  F01C         	movff	___fldiv@new_exp,___fldiv@bexp
  7057  002952  A01C               	btfss	___fldiv@bexp^0,0,c
  7058  002954  EFAE  F014         	goto	u6311
  7059  002958  EFB0  F014         	goto	u6310
  7060  00295C                     u6311:
  7061  00295C  EFB3  F014         	goto	l6188
  7062  002960                     u6310:
  7063  002960  8E07               	bsf	(___fldiv@b+2)^0,7,c
  7064  002962  EFB4  F014         	goto	l6190
  7065  002966                     l6188:
  7066  002966  9E07               	bcf	(___fldiv@b+2)^0,7,c
  7067  002968                     l6190:
  7068  002968  90D8               	bcf	status,0,c
  7069  00296A  301C               	rrcf	___fldiv@bexp^0,w,c
  7070  00296C  6E08               	movwf	(___fldiv@b+3)^0,c
  7071  00296E  EF6A  F013         	goto	l6104
  7072  002972                     l1300:
  7073  002972  0012               	return		;funcret
  7074  002974                     __end_of___fldiv:
  7075                           	callstack 0
  7076                           
  7077 ;; *************** function ___awmod *****************
  7078 ;; Defined at:
  7079 ;;		line 7 in file "C:\Program Files\Microchip\xc8\v2.32\pic\sources\c99\common\awmod.c"
  7080 ;; Parameters:    Size  Location     Type
  7081 ;;  dividend        2    4[COMRAM] int 
  7082 ;;  divisor         2    6[COMRAM] int 
  7083 ;; Auto vars:     Size  Location     Type
  7084 ;;  sign            1    9[COMRAM] unsigned char 
  7085 ;;  counter         1    8[COMRAM] unsigned char 
  7086 ;; Return value:  Size  Location     Type
  7087 ;;                  2    4[COMRAM] int 
  7088 ;; Registers used:
  7089 ;;		wreg, status,2, status,0
  7090 ;; Tracked objects:
  7091 ;;		On entry : 0/0
  7092 ;;		On exit  : 0/0
  7093 ;;		Unchanged: 0/0
  7094 ;; Data sizes:     COMRAM   BANK0   BANK1   BANK2   BANK3   BANK4   BANK5   BANK6   BANK7   BANK8   BANK9  BANK10  BANK1
      +1  BANK12  BANK13  BANK14  BANK15
  7095 ;;      Params:         4       0       0       0       0       0       0       0       0       0       0       0       
      +0       0       0       0       0
  7096 ;;      Locals:         2       0       0       0       0       0       0       0       0       0       0       0       
      +0       0       0       0       0
  7097 ;;      Temps:          0       0       0       0       0       0       0       0       0       0       0       0       
      +0       0       0       0       0
  7098 ;;      Totals:         6       0       0       0       0       0       0       0       0       0       0       0       
      +0       0       0       0       0
  7099 ;;Total ram usage:        6 bytes
  7100 ;; Hardware stack levels used: 1
  7101 ;; Hardware stack levels required when called: 4
  7102 ;; This function calls:
  7103 ;;		Nothing
  7104 ;; This function is called by:
  7105 ;;		_efgtoa
  7106 ;; This function uses a non-reentrant model
  7107 ;;
  7108                           
  7109                           	psect	text25
  7110  0037A6                     __ptext25:
  7111                           	callstack 0
  7112  0037A6                     ___awmod:
  7113                           	callstack 22
  7114  0037A6  0E00               	movlw	0
  7115  0037A8  6E0A               	movwf	___awmod@sign^0,c
  7116  0037AA  BE06               	btfsc	(___awmod@dividend+1)^0,7,c
  7117  0037AC  EFDC  F01B         	goto	u6570
  7118  0037B0  EFDA  F01B         	goto	u6571
  7119  0037B4                     u6571:
  7120  0037B4  EFE2  F01B         	goto	l6386
  7121  0037B8                     u6570:
  7122  0037B8  6C05               	negf	___awmod@dividend^0,c
  7123  0037BA  1E06               	comf	(___awmod@dividend+1)^0,f,c
  7124  0037BC  B0D8               	btfsc	status,0,c
  7125  0037BE  2A06               	incf	(___awmod@dividend+1)^0,f,c
  7126  0037C0  0E01               	movlw	1
  7127  0037C2  6E0A               	movwf	___awmod@sign^0,c
  7128  0037C4                     l6386:
  7129  0037C4  BE08               	btfsc	(___awmod@divisor+1)^0,7,c
  7130  0037C6  EFE9  F01B         	goto	u6580
  7131  0037CA  EFE7  F01B         	goto	u6581
  7132  0037CE                     u6581:
  7133  0037CE  EFED  F01B         	goto	l6390
  7134  0037D2                     u6580:
  7135  0037D2  6C07               	negf	___awmod@divisor^0,c
  7136  0037D4  1E08               	comf	(___awmod@divisor+1)^0,f,c
  7137  0037D6  B0D8               	btfsc	status,0,c
  7138  0037D8  2A08               	incf	(___awmod@divisor+1)^0,f,c
  7139  0037DA                     l6390:
  7140  0037DA  5007               	movf	___awmod@divisor^0,w,c
  7141  0037DC  1008               	iorwf	(___awmod@divisor+1)^0,w,c
  7142  0037DE  B4D8               	btfsc	status,2,c
  7143  0037E0  EFF4  F01B         	goto	u6591
  7144  0037E4  EFF6  F01B         	goto	u6590
  7145  0037E8                     u6591:
  7146  0037E8  EF1A  F01C         	goto	l6406
  7147  0037EC                     u6590:
  7148  0037EC  0E01               	movlw	1
  7149  0037EE  6E09               	movwf	___awmod@counter^0,c
  7150  0037F0  EFFE  F01B         	goto	l6396
  7151  0037F4                     l6394:
  7152  0037F4  90D8               	bcf	status,0,c
  7153  0037F6  3607               	rlcf	___awmod@divisor^0,f,c
  7154  0037F8  3608               	rlcf	(___awmod@divisor+1)^0,f,c
  7155  0037FA  2A09               	incf	___awmod@counter^0,f,c
  7156  0037FC                     l6396:
  7157  0037FC  AE08               	btfss	(___awmod@divisor+1)^0,7,c
  7158  0037FE  EF03  F01C         	goto	u6601
  7159  003802  EF05  F01C         	goto	u6600
  7160  003806                     u6601:
  7161  003806  EFFA  F01B         	goto	l6394
  7162  00380A                     u6600:
  7163  00380A                     l6398:
  7164  00380A  5007               	movf	___awmod@divisor^0,w,c
  7165  00380C  5C05               	subwf	___awmod@dividend^0,w,c
  7166  00380E  5008               	movf	(___awmod@divisor+1)^0,w,c
  7167  003810  5806               	subwfb	(___awmod@dividend+1)^0,w,c
  7168  003812  A0D8               	btfss	status,0,c
  7169  003814  EF0E  F01C         	goto	u6611
  7170  003818  EF10  F01C         	goto	u6610
  7171  00381C                     u6611:
  7172  00381C  EF14  F01C         	goto	l6402
  7173  003820                     u6610:
  7174  003820  5007               	movf	___awmod@divisor^0,w,c
  7175  003822  5E05               	subwf	___awmod@dividend^0,f,c
  7176  003824  5008               	movf	(___awmod@divisor+1)^0,w,c
  7177  003826  5A06               	subwfb	(___awmod@dividend+1)^0,f,c
  7178  003828                     l6402:
  7179  003828  90D8               	bcf	status,0,c
  7180  00382A  3208               	rrcf	(___awmod@divisor+1)^0,f,c
  7181  00382C  3207               	rrcf	___awmod@divisor^0,f,c
  7182  00382E  2E09               	decfsz	___awmod@counter^0,f,c
  7183  003830  EF05  F01C         	goto	l6398
  7184  003834                     l6406:
  7185  003834  500A               	movf	___awmod@sign^0,w,c
  7186  003836  B4D8               	btfsc	status,2,c
  7187  003838  EF20  F01C         	goto	u6621
  7188  00383C  EF22  F01C         	goto	u6620
  7189  003840                     u6621:
  7190  003840  EF26  F01C         	goto	l6410
  7191  003844                     u6620:
  7192  003844  6C05               	negf	___awmod@dividend^0,c
  7193  003846  1E06               	comf	(___awmod@dividend+1)^0,f,c
  7194  003848  B0D8               	btfsc	status,0,c
  7195  00384A  2A06               	incf	(___awmod@dividend+1)^0,f,c
  7196  00384C                     l6410:
  7197  00384C  C005  F005         	movff	___awmod@dividend,?___awmod
  7198  003850  C006  F006         	movff	___awmod@dividend+1,?___awmod+1
  7199  003854  0012               	return		;funcret
  7200  003856                     __end_of___awmod:
  7201                           	callstack 0
  7202                           
  7203 ;; *************** function ___awdiv *****************
  7204 ;; Defined at:
  7205 ;;		line 7 in file "C:\Program Files\Microchip\xc8\v2.32\pic\sources\c99\common\awdiv.c"
  7206 ;; Parameters:    Size  Location     Type
  7207 ;;  dividend        2    4[COMRAM] int 
  7208 ;;  divisor         2    6[COMRAM] int 
  7209 ;; Auto vars:     Size  Location     Type
  7210 ;;  quotient        2   10[COMRAM] int 
  7211 ;;  sign            1    9[COMRAM] unsigned char 
  7212 ;;  counter         1    8[COMRAM] unsigned char 
  7213 ;; Return value:  Size  Location     Type
  7214 ;;                  2    4[COMRAM] int 
  7215 ;; Registers used:
  7216 ;;		wreg, status,2, status,0
  7217 ;; Tracked objects:
  7218 ;;		On entry : 0/0
  7219 ;;		On exit  : 0/0
  7220 ;;		Unchanged: 0/0
  7221 ;; Data sizes:     COMRAM   BANK0   BANK1   BANK2   BANK3   BANK4   BANK5   BANK6   BANK7   BANK8   BANK9  BANK10  BANK1
      +1  BANK12  BANK13  BANK14  BANK15
  7222 ;;      Params:         4       0       0       0       0       0       0       0       0       0       0       0       
      +0       0       0       0       0
  7223 ;;      Locals:         4       0       0       0       0       0       0       0       0       0       0       0       
      +0       0       0       0       0
  7224 ;;      Temps:          0       0       0       0       0       0       0       0       0       0       0       0       
      +0       0       0       0       0
  7225 ;;      Totals:         8       0       0       0       0       0       0       0       0       0       0       0       
      +0       0       0       0       0
  7226 ;;Total ram usage:        8 bytes
  7227 ;; Hardware stack levels used: 1
  7228 ;; Hardware stack levels required when called: 4
  7229 ;; This function calls:
  7230 ;;		Nothing
  7231 ;; This function is called by:
  7232 ;;		_efgtoa
  7233 ;; This function uses a non-reentrant model
  7234 ;;
  7235                           
  7236                           	psect	text26
  7237  003560                     __ptext26:
  7238                           	callstack 0
  7239  003560                     ___awdiv:
  7240                           	callstack 22
  7241  003560  0E00               	movlw	0
  7242  003562  6E0A               	movwf	___awdiv@sign^0,c
  7243  003564  BE08               	btfsc	(___awdiv@divisor+1)^0,7,c
  7244  003566  EFB9  F01A         	goto	u6510
  7245  00356A  EFB7  F01A         	goto	u6511
  7246  00356E                     u6511:
  7247  00356E  EFBF  F01A         	goto	l6342
  7248  003572                     u6510:
  7249  003572  6C07               	negf	___awdiv@divisor^0,c
  7250  003574  1E08               	comf	(___awdiv@divisor+1)^0,f,c
  7251  003576  B0D8               	btfsc	status,0,c
  7252  003578  2A08               	incf	(___awdiv@divisor+1)^0,f,c
  7253  00357A  0E01               	movlw	1
  7254  00357C  6E0A               	movwf	___awdiv@sign^0,c
  7255  00357E                     l6342:
  7256  00357E  BE06               	btfsc	(___awdiv@dividend+1)^0,7,c
  7257  003580  EFC6  F01A         	goto	u6520
  7258  003584  EFC4  F01A         	goto	u6521
  7259  003588                     u6521:
  7260  003588  EFCC  F01A         	goto	l6348
  7261  00358C                     u6520:
  7262  00358C  6C05               	negf	___awdiv@dividend^0,c
  7263  00358E  1E06               	comf	(___awdiv@dividend+1)^0,f,c
  7264  003590  B0D8               	btfsc	status,0,c
  7265  003592  2A06               	incf	(___awdiv@dividend+1)^0,f,c
  7266  003594  0E01               	movlw	1
  7267  003596  1A0A               	xorwf	___awdiv@sign^0,f,c
  7268  003598                     l6348:
  7269  003598  0E00               	movlw	0
  7270  00359A  6E0C               	movwf	(___awdiv@quotient+1)^0,c
  7271  00359C  0E00               	movlw	0
  7272  00359E  6E0B               	movwf	___awdiv@quotient^0,c
  7273  0035A0  5007               	movf	___awdiv@divisor^0,w,c
  7274  0035A2  1008               	iorwf	(___awdiv@divisor+1)^0,w,c
  7275  0035A4  B4D8               	btfsc	status,2,c
  7276  0035A6  EFD7  F01A         	goto	u6531
  7277  0035AA  EFD9  F01A         	goto	u6530
  7278  0035AE                     u6531:
  7279  0035AE  EF01  F01B         	goto	l6370
  7280  0035B2                     u6530:
  7281  0035B2  0E01               	movlw	1
  7282  0035B4  6E09               	movwf	___awdiv@counter^0,c
  7283  0035B6  EFE1  F01A         	goto	l6356
  7284  0035BA                     l6354:
  7285  0035BA  90D8               	bcf	status,0,c
  7286  0035BC  3607               	rlcf	___awdiv@divisor^0,f,c
  7287  0035BE  3608               	rlcf	(___awdiv@divisor+1)^0,f,c
  7288  0035C0  2A09               	incf	___awdiv@counter^0,f,c
  7289  0035C2                     l6356:
  7290  0035C2  AE08               	btfss	(___awdiv@divisor+1)^0,7,c
  7291  0035C4  EFE6  F01A         	goto	u6541
  7292  0035C8  EFE8  F01A         	goto	u6540
  7293  0035CC                     u6541:
  7294  0035CC  EFDD  F01A         	goto	l6354
  7295  0035D0                     u6540:
  7296  0035D0                     l6358:
  7297  0035D0  90D8               	bcf	status,0,c
  7298  0035D2  360B               	rlcf	___awdiv@quotient^0,f,c
  7299  0035D4  360C               	rlcf	(___awdiv@quotient+1)^0,f,c
  7300  0035D6  5007               	movf	___awdiv@divisor^0,w,c
  7301  0035D8  5C05               	subwf	___awdiv@dividend^0,w,c
  7302  0035DA  5008               	movf	(___awdiv@divisor+1)^0,w,c
  7303  0035DC  5806               	subwfb	(___awdiv@dividend+1)^0,w,c
  7304  0035DE  A0D8               	btfss	status,0,c
  7305  0035E0  EFF4  F01A         	goto	u6551
  7306  0035E4  EFF6  F01A         	goto	u6550
  7307  0035E8                     u6551:
  7308  0035E8  EFFB  F01A         	goto	l6366
  7309  0035EC                     u6550:
  7310  0035EC  5007               	movf	___awdiv@divisor^0,w,c
  7311  0035EE  5E05               	subwf	___awdiv@dividend^0,f,c
  7312  0035F0  5008               	movf	(___awdiv@divisor+1)^0,w,c
  7313  0035F2  5A06               	subwfb	(___awdiv@dividend+1)^0,f,c
  7314  0035F4  800B               	bsf	___awdiv@quotient^0,0,c
  7315  0035F6                     l6366:
  7316  0035F6  90D8               	bcf	status,0,c
  7317  0035F8  3208               	rrcf	(___awdiv@divisor+1)^0,f,c
  7318  0035FA  3207               	rrcf	___awdiv@divisor^0,f,c
  7319  0035FC  2E09               	decfsz	___awdiv@counter^0,f,c
  7320  0035FE  EFE8  F01A         	goto	l6358
  7321  003602                     l6370:
  7322  003602  500A               	movf	___awdiv@sign^0,w,c
  7323  003604  B4D8               	btfsc	status,2,c
  7324  003606  EF07  F01B         	goto	u6561
  7325  00360A  EF09  F01B         	goto	u6560
  7326  00360E                     u6561:
  7327  00360E  EF0D  F01B         	goto	l6374
  7328  003612                     u6560:
  7329  003612  6C0B               	negf	___awdiv@quotient^0,c
  7330  003614  1E0C               	comf	(___awdiv@quotient+1)^0,f,c
  7331  003616  B0D8               	btfsc	status,0,c
  7332  003618  2A0C               	incf	(___awdiv@quotient+1)^0,f,c
  7333  00361A                     l6374:
  7334  00361A  C00B  F005         	movff	___awdiv@quotient,?___awdiv
  7335  00361E  C00C  F006         	movff	___awdiv@quotient+1,?___awdiv+1
  7336  003622  0012               	return		;funcret
  7337  003624                     __end_of___awdiv:
  7338                           	callstack 0
  7339                           
  7340 ;; *************** function _VEML6030_Init *****************
  7341 ;; Defined at:
  7342 ;;		line 61 in file "veml6030.c"
  7343 ;; Parameters:    Size  Location     Type
  7344 ;;		None
  7345 ;; Auto vars:     Size  Location     Type
  7346 ;;  config          2   29[COMRAM] unsigned short 
  7347 ;; Return value:  Size  Location     Type
  7348 ;;                  1    wreg      void 
  7349 ;; Registers used:
  7350 ;;		wreg, fsr2l, fsr2h, status,2, status,0, pclath, tosl, tblptrl, tblptrh, tblptru, prodl, prodh, cstack
  7351 ;; Tracked objects:
  7352 ;;		On entry : 0/0
  7353 ;;		On exit  : 0/0
  7354 ;;		Unchanged: 0/0
  7355 ;; Data sizes:     COMRAM   BANK0   BANK1   BANK2   BANK3   BANK4   BANK5   BANK6   BANK7   BANK8   BANK9  BANK10  BANK1
      +1  BANK12  BANK13  BANK14  BANK15
  7356 ;;      Params:         0       0       0       0       0       0       0       0       0       0       0       0       
      +0       0       0       0       0
  7357 ;;      Locals:         2       0       0       0       0       0       0       0       0       0       0       0       
      +0       0       0       0       0
  7358 ;;      Temps:          0       0       0       0       0       0       0       0       0       0       0       0       
      +0       0       0       0       0
  7359 ;;      Totals:         2       0       0       0       0       0       0       0       0       0       0       0       
      +0       0       0       0       0
  7360 ;;Total ram usage:        2 bytes
  7361 ;; Hardware stack levels used: 1
  7362 ;; Hardware stack levels required when called: 13
  7363 ;; This function calls:
  7364 ;;		_I2C_Read2ByteRegister
  7365 ;;		_I2C_Write1ByteRegister
  7366 ;;		_I2C_Write2ByteRegister
  7367 ;; This function is called by:
  7368 ;;		_main
  7369 ;; This function uses a non-reentrant model
  7370 ;;
  7371                           
  7372                           	psect	text27
  7373  004286                     __ptext27:
  7374                           	callstack 0
  7375  004286                     _VEML6030_Init:
  7376                           	callstack 17
  7377  004286                     
  7378                           ;veml6030.c: 62:     uint16_t config;;veml6030.c: 64:     I2C_Write1ByteRegister(0x10,0x
      +                          00,0x00);
  7379  004286  0E00               	movlw	0
  7380  004288  6E16               	movwf	I2C_Write1ByteRegister@reg^0,c
  7381  00428A  0E00               	movlw	0
  7382  00428C  6E17               	movwf	I2C_Write1ByteRegister@data^0,c
  7383  00428E  0E10               	movlw	16
  7384  004290  ECCD  F01E         	call	_I2C_Write1ByteRegister
  7385                           
  7386                           ;veml6030.c: 66:     config = I2C_Read2ByteRegister(0x10,0x00);
  7387  004294  0E00               	movlw	0
  7388  004296  6E16               	movwf	I2C_Read2ByteRegister@reg^0,c
  7389  004298  0E10               	movlw	16
  7390  00429A  EC65  F01D         	call	_I2C_Read2ByteRegister
  7391  00429E  C016  F01E         	movff	?_I2C_Read2ByteRegister,VEML6030_Init@config
  7392  0042A2  C017  F01F         	movff	?_I2C_Read2ByteRegister+1,VEML6030_Init@config+1
  7393  0042A6                     
  7394                           ;veml6030.c: 67:     config &= ~0x01;
  7395  0042A6  901E               	bcf	VEML6030_Init@config^0,0,c
  7396  0042A8                     
  7397                           ;veml6030.c: 68:     I2C_Write2ByteRegister(0x10,0x00,config);
  7398  0042A8  0E00               	movlw	0
  7399  0042AA  6E16               	movwf	I2C_Write2ByteRegister@reg^0,c
  7400  0042AC  C01E  F017         	movff	VEML6030_Init@config,I2C_Write2ByteRegister@data
  7401  0042B0  C01F  F018         	movff	VEML6030_Init@config+1,I2C_Write2ByteRegister@data+1
  7402  0042B4  0E10               	movlw	16
  7403  0042B6  EC96  F01E         	call	_I2C_Write2ByteRegister
  7404  0042BA  0012               	return		;funcret
  7405  0042BC                     __end_of_VEML6030_Init:
  7406                           	callstack 0
  7407                           
  7408 ;; *************** function _I2C_Write2ByteRegister *****************
  7409 ;; Defined at:
  7410 ;;		line 101 in file "mcc_generated_files/examples/i2c_master_example.c"
  7411 ;; Parameters:    Size  Location     Type
  7412 ;;  address         1    wreg     unsigned char 
  7413 ;;  reg             1   21[COMRAM] unsigned char 
  7414 ;;  data            2   22[COMRAM] unsigned short 
  7415 ;; Auto vars:     Size  Location     Type
  7416 ;;  address         1   24[COMRAM] unsigned char 
  7417 ;; Return value:  Size  Location     Type
  7418 ;;                  1    wreg      void 
  7419 ;; Registers used:
  7420 ;;		wreg, fsr2l, fsr2h, status,2, status,0, pclath, tosl, tblptrl, tblptrh, tblptru, prodl, prodh, cstack
  7421 ;; Tracked objects:
  7422 ;;		On entry : 0/0
  7423 ;;		On exit  : 0/0
  7424 ;;		Unchanged: 0/0
  7425 ;; Data sizes:     COMRAM   BANK0   BANK1   BANK2   BANK3   BANK4   BANK5   BANK6   BANK7   BANK8   BANK9  BANK10  BANK1
      +1  BANK12  BANK13  BANK14  BANK15
  7426 ;;      Params:         3       0       0       0       0       0       0       0       0       0       0       0       
      +0       0       0       0       0
  7427 ;;      Locals:         1       0       0       0       0       0       0       0       0       0       0       0       
      +0       0       0       0       0
  7428 ;;      Temps:          0       0       0       0       0       0       0       0       0       0       0       0       
      +0       0       0       0       0
  7429 ;;      Totals:         4       0       0       0       0       0       0       0       0       0       0       0       
      +0       0       0       0       0
  7430 ;;Total ram usage:        4 bytes
  7431 ;; Hardware stack levels used: 1
  7432 ;; Hardware stack levels required when called: 12
  7433 ;; This function calls:
  7434 ;;		_I2C_Close
  7435 ;;		_I2C_MasterWrite
  7436 ;;		_I2C_Open
  7437 ;;		_I2C_SetAddressNackCallback
  7438 ;;		_I2C_SetBuffer
  7439 ;;		_I2C_SetDataCompleteCallback
  7440 ;; This function is called by:
  7441 ;;		_VEML6030_Init
  7442 ;;		_veml6030_set_als_integration_time
  7443 ;;		_veml6030_set_als_gain
  7444 ;; This function uses a non-reentrant model
  7445 ;;
  7446                           
  7447                           	psect	text28
  7448  003D2C                     __ptext28:
  7449                           	callstack 0
  7450  003D2C                     _I2C_Write2ByteRegister:
  7451                           	callstack 17
  7452                           
  7453                           ;incstack = 0
  7454                           ;I2C_Write2ByteRegister@address stored from wreg
  7455  003D2C  6E19               	movwf	I2C_Write2ByteRegister@address^0,c
  7456  003D2E                     l5374:
  7457  003D2E  5019               	movf	I2C_Write2ByteRegister@address^0,w,c
  7458  003D30  EC1E  F01D         	call	_I2C_Open
  7459  003D34  0900               	iorlw	0
  7460  003D36  B4D8               	btfsc	status,2,c
  7461  003D38  EFA0  F01E         	goto	u5191
  7462  003D3C  EFA2  F01E         	goto	u5190
  7463  003D40                     u5191:
  7464  003D40  EF97  F01E         	goto	l5374
  7465  003D44                     u5190:
  7466  003D44                     
  7467                           ;mcc_generated_files/examples/i2c_master_example.c: 104:     I2C_SetDataCompleteCallback
      +                          (wr2RegCompleteHandler,&data);
  7468  003D44  0E9C               	movlw	low _wr2RegCompleteHandler
  7469  003D46  6E0A               	movwf	I2C_SetDataCompleteCallback@cb^0,c
  7470  003D48  0E43               	movlw	high _wr2RegCompleteHandler
  7471  003D4A  6E0B               	movwf	(I2C_SetDataCompleteCallback@cb+1)^0,c
  7472  003D4C  0E17               	movlw	low I2C_Write2ByteRegister@data
  7473  003D4E  6E0C               	movwf	I2C_SetDataCompleteCallback@ptr^0,c
  7474  003D50  0E00               	movlw	high I2C_Write2ByteRegister@data
  7475  003D52  6E0D               	movwf	(I2C_SetDataCompleteCallback@ptr+1)^0,c
  7476  003D54  EC61  F022         	call	_I2C_SetDataCompleteCallback	;wreg free
  7477  003D58                     
  7478                           ;mcc_generated_files/examples/i2c_master_example.c: 105:     I2C_SetBuffer(&reg,1);
  7479  003D58  0E16               	movlw	low I2C_Write2ByteRegister@reg
  7480  003D5A  6E05               	movwf	I2C_SetBuffer@buffer^0,c
  7481  003D5C  0E00               	movlw	high I2C_Write2ByteRegister@reg
  7482  003D5E  6E06               	movwf	(I2C_SetBuffer@buffer+1)^0,c
  7483  003D60  0E00               	movlw	0
  7484  003D62  6E08               	movwf	(I2C_SetBuffer@bufferSize+1)^0,c
  7485  003D64  0E01               	movlw	1
  7486  003D66  6E07               	movwf	I2C_SetBuffer@bufferSize^0,c
  7487  003D68  EC23  F022         	call	_I2C_SetBuffer	;wreg free
  7488  003D6C                     
  7489                           ;mcc_generated_files/examples/i2c_master_example.c: 106:     I2C_SetAddressNackCallback(
      +                          ((void*)0),((void*)0));
  7490  003D6C  0E00               	movlw	0
  7491  003D6E  6E0A               	movwf	I2C_SetAddressNackCallback@cb^0,c
  7492  003D70  0E00               	movlw	0
  7493  003D72  6E0B               	movwf	(I2C_SetAddressNackCallback@cb+1)^0,c
  7494  003D74  0E00               	movlw	0
  7495  003D76  6E0C               	movwf	I2C_SetAddressNackCallback@ptr^0,c
  7496  003D78  0E00               	movlw	0
  7497  003D7A  6E0D               	movwf	(I2C_SetAddressNackCallback@ptr+1)^0,c
  7498  003D7C  EC55  F022         	call	_I2C_SetAddressNackCallback	;wreg free
  7499  003D80                     
  7500                           ;mcc_generated_files/examples/i2c_master_example.c: 107:     I2C_MasterWrite();
  7501  003D80  ECD9  F022         	call	_I2C_MasterWrite	;wreg free
  7502  003D84                     l5384:
  7503  003D84  ECE4  F021         	call	_I2C_Close	;wreg free
  7504  003D88  06E8               	decf	wreg,f,c
  7505  003D8A  B4D8               	btfsc	status,2,c
  7506  003D8C  EFCA  F01E         	goto	u5201
  7507  003D90  EFCC  F01E         	goto	u5200
  7508  003D94                     u5201:
  7509  003D94  EFC2  F01E         	goto	l5384
  7510  003D98                     u5200:
  7511  003D98  0012               	return		;funcret
  7512  003D9A                     __end_of_I2C_Write2ByteRegister:
  7513                           	callstack 0
  7514                           
  7515 ;; *************** function _I2C_Write1ByteRegister *****************
  7516 ;; Defined at:
  7517 ;;		line 91 in file "mcc_generated_files/examples/i2c_master_example.c"
  7518 ;; Parameters:    Size  Location     Type
  7519 ;;  address         1    wreg     unsigned char 
  7520 ;;  reg             1   21[COMRAM] unsigned char 
  7521 ;;  data            1   22[COMRAM] unsigned char 
  7522 ;; Auto vars:     Size  Location     Type
  7523 ;;  address         1   23[COMRAM] unsigned char 
  7524 ;; Return value:  Size  Location     Type
  7525 ;;                  1    wreg      void 
  7526 ;; Registers used:
  7527 ;;		wreg, fsr2l, fsr2h, status,2, status,0, pclath, tosl, tblptrl, tblptrh, tblptru, prodl, prodh, cstack
  7528 ;; Tracked objects:
  7529 ;;		On entry : 0/0
  7530 ;;		On exit  : 0/0
  7531 ;;		Unchanged: 0/0
  7532 ;; Data sizes:     COMRAM   BANK0   BANK1   BANK2   BANK3   BANK4   BANK5   BANK6   BANK7   BANK8   BANK9  BANK10  BANK1
      +1  BANK12  BANK13  BANK14  BANK15
  7533 ;;      Params:         2       0       0       0       0       0       0       0       0       0       0       0       
      +0       0       0       0       0
  7534 ;;      Locals:         1       0       0       0       0       0       0       0       0       0       0       0       
      +0       0       0       0       0
  7535 ;;      Temps:          0       0       0       0       0       0       0       0       0       0       0       0       
      +0       0       0       0       0
  7536 ;;      Totals:         3       0       0       0       0       0       0       0       0       0       0       0       
      +0       0       0       0       0
  7537 ;;Total ram usage:        3 bytes
  7538 ;; Hardware stack levels used: 1
  7539 ;; Hardware stack levels required when called: 12
  7540 ;; This function calls:
  7541 ;;		_I2C_Close
  7542 ;;		_I2C_MasterWrite
  7543 ;;		_I2C_Open
  7544 ;;		_I2C_SetAddressNackCallback
  7545 ;;		_I2C_SetBuffer
  7546 ;;		_I2C_SetDataCompleteCallback
  7547 ;; This function is called by:
  7548 ;;		_VEML6030_Init
  7549 ;; This function uses a non-reentrant model
  7550 ;;
  7551                           
  7552                           	psect	text29
  7553  003D9A                     __ptext29:
  7554                           	callstack 0
  7555  003D9A                     _I2C_Write1ByteRegister:
  7556                           	callstack 17
  7557                           
  7558                           ;incstack = 0
  7559                           ;I2C_Write1ByteRegister@address stored from wreg
  7560  003D9A  6E18               	movwf	I2C_Write1ByteRegister@address^0,c
  7561  003D9C                     l5360:
  7562  003D9C  5018               	movf	I2C_Write1ByteRegister@address^0,w,c
  7563  003D9E  EC1E  F01D         	call	_I2C_Open
  7564  003DA2  0900               	iorlw	0
  7565  003DA4  B4D8               	btfsc	status,2,c
  7566  003DA6  EFD7  F01E         	goto	u5171
  7567  003DAA  EFD9  F01E         	goto	u5170
  7568  003DAE                     u5171:
  7569  003DAE  EFCE  F01E         	goto	l5360
  7570  003DB2                     u5170:
  7571  003DB2                     
  7572                           ;mcc_generated_files/examples/i2c_master_example.c: 94:     I2C_SetDataCompleteCallback(
      +                          wr1RegCompleteHandler,&data);
  7573  003DB2  0E18               	movlw	low _wr1RegCompleteHandler
  7574  003DB4  6E0A               	movwf	I2C_SetDataCompleteCallback@cb^0,c
  7575  003DB6  0E43               	movlw	high _wr1RegCompleteHandler
  7576  003DB8  6E0B               	movwf	(I2C_SetDataCompleteCallback@cb+1)^0,c
  7577  003DBA  0E17               	movlw	low I2C_Write1ByteRegister@data
  7578  003DBC  6E0C               	movwf	I2C_SetDataCompleteCallback@ptr^0,c
  7579  003DBE  0E00               	movlw	high I2C_Write1ByteRegister@data
  7580  003DC0  6E0D               	movwf	(I2C_SetDataCompleteCallback@ptr+1)^0,c
  7581  003DC2  EC61  F022         	call	_I2C_SetDataCompleteCallback	;wreg free
  7582  003DC6                     
  7583                           ;mcc_generated_files/examples/i2c_master_example.c: 95:     I2C_SetBuffer(&reg,1);
  7584  003DC6  0E16               	movlw	low I2C_Write1ByteRegister@reg
  7585  003DC8  6E05               	movwf	I2C_SetBuffer@buffer^0,c
  7586  003DCA  0E00               	movlw	high I2C_Write1ByteRegister@reg
  7587  003DCC  6E06               	movwf	(I2C_SetBuffer@buffer+1)^0,c
  7588  003DCE  0E00               	movlw	0
  7589  003DD0  6E08               	movwf	(I2C_SetBuffer@bufferSize+1)^0,c
  7590  003DD2  0E01               	movlw	1
  7591  003DD4  6E07               	movwf	I2C_SetBuffer@bufferSize^0,c
  7592  003DD6  EC23  F022         	call	_I2C_SetBuffer	;wreg free
  7593  003DDA                     
  7594                           ;mcc_generated_files/examples/i2c_master_example.c: 96:     I2C_SetAddressNackCallback((
      +                          (void*)0),((void*)0));
  7595  003DDA  0E00               	movlw	0
  7596  003DDC  6E0A               	movwf	I2C_SetAddressNackCallback@cb^0,c
  7597  003DDE  0E00               	movlw	0
  7598  003DE0  6E0B               	movwf	(I2C_SetAddressNackCallback@cb+1)^0,c
  7599  003DE2  0E00               	movlw	0
  7600  003DE4  6E0C               	movwf	I2C_SetAddressNackCallback@ptr^0,c
  7601  003DE6  0E00               	movlw	0
  7602  003DE8  6E0D               	movwf	(I2C_SetAddressNackCallback@ptr+1)^0,c
  7603  003DEA  EC55  F022         	call	_I2C_SetAddressNackCallback	;wreg free
  7604  003DEE                     
  7605                           ;mcc_generated_files/examples/i2c_master_example.c: 97:     I2C_MasterWrite();
  7606  003DEE  ECD9  F022         	call	_I2C_MasterWrite	;wreg free
  7607  003DF2                     l5370:
  7608  003DF2  ECE4  F021         	call	_I2C_Close	;wreg free
  7609  003DF6  06E8               	decf	wreg,f,c
  7610  003DF8  B4D8               	btfsc	status,2,c
  7611  003DFA  EF01  F01F         	goto	u5181
  7612  003DFE  EF03  F01F         	goto	u5180
  7613  003E02                     u5181:
  7614  003E02  EFF9  F01E         	goto	l5370
  7615  003E06                     u5180:
  7616  003E06  0012               	return		;funcret
  7617  003E08                     __end_of_I2C_Write1ByteRegister:
  7618                           	callstack 0
  7619                           
  7620 ;; *************** function _VEML6030_GetValue *****************
  7621 ;; Defined at:
  7622 ;;		line 72 in file "veml6030.c"
  7623 ;; Parameters:    Size  Location     Type
  7624 ;;		None
  7625 ;; Auto vars:     Size  Location     Type
  7626 ;;  lightDataAnz    4   33[COMRAM] float 
  7627 ;;  data            2   37[COMRAM] unsigned short 
  7628 ;; Return value:  Size  Location     Type
  7629 ;;                  4   29[COMRAM] float 
  7630 ;; Registers used:
  7631 ;;		wreg, fsr2l, fsr2h, status,2, status,0, pclath, tosl, tblptrl, tblptrh, tblptru, prodl, prodh, cstack
  7632 ;; Tracked objects:
  7633 ;;		On entry : 0/0
  7634 ;;		On exit  : 0/0
  7635 ;;		Unchanged: 0/0
  7636 ;; Data sizes:     COMRAM   BANK0   BANK1   BANK2   BANK3   BANK4   BANK5   BANK6   BANK7   BANK8   BANK9  BANK10  BANK1
      +1  BANK12  BANK13  BANK14  BANK15
  7637 ;;      Params:         4       0       0       0       0       0       0       0       0       0       0       0       
      +0       0       0       0       0
  7638 ;;      Locals:         6       0       0       0       0       0       0       0       0       0       0       0       
      +0       0       0       0       0
  7639 ;;      Temps:          0       0       0       0       0       0       0       0       0       0       0       0       
      +0       0       0       0       0
  7640 ;;      Totals:        10       0       0       0       0       0       0       0       0       0       0       0       
      +0       0       0       0       0
  7641 ;;Total ram usage:       10 bytes
  7642 ;; Hardware stack levels used: 1
  7643 ;; Hardware stack levels required when called: 13
  7644 ;; This function calls:
  7645 ;;		_I2C_Read2ByteRegister
  7646 ;;		___xxtofl
  7647 ;; This function is called by:
  7648 ;;		_main
  7649 ;; This function uses a non-reentrant model
  7650 ;;
  7651                           
  7652                           	psect	text30
  7653  004090                     __ptext30:
  7654                           	callstack 0
  7655  004090                     _VEML6030_GetValue:
  7656                           	callstack 17
  7657  004090                     
  7658                           ;veml6030.c: 73:     float lightDataAnz;;veml6030.c: 74:     uint16_t data;;veml6030.c: 
      +                          76:     data = I2C_Read2ByteRegister(0x10,0x05);
  7659  004090  0E05               	movlw	5
  7660  004092  6E16               	movwf	I2C_Read2ByteRegister@reg^0,c
  7661  004094  0E10               	movlw	16
  7662  004096  EC65  F01D         	call	_I2C_Read2ByteRegister
  7663  00409A  C016  F026         	movff	?_I2C_Read2ByteRegister,VEML6030_GetValue@data
  7664  00409E  C017  F027         	movff	?_I2C_Read2ByteRegister+1,VEML6030_GetValue@data+1
  7665  0040A2                     
  7666                           ;veml6030.c: 77:     lightDataAnz = data;
  7667  0040A2  C026  F005         	movff	VEML6030_GetValue@data,___xxtofl@val
  7668  0040A6  C027  F006         	movff	VEML6030_GetValue@data+1,___xxtofl@val+1
  7669  0040AA  6A07               	clrf	(___xxtofl@val+2)^0,c
  7670  0040AC  6A08               	clrf	(___xxtofl@val+3)^0,c
  7671  0040AE  0E00               	movlw	0
  7672  0040B0  EC81  F017         	call	___xxtofl
  7673  0040B4  C005  F022         	movff	?___xxtofl,VEML6030_GetValue@lightDataAnz
  7674  0040B8  C006  F023         	movff	?___xxtofl+1,VEML6030_GetValue@lightDataAnz+1
  7675  0040BC  C007  F024         	movff	?___xxtofl+2,VEML6030_GetValue@lightDataAnz+2
  7676  0040C0  C008  F025         	movff	?___xxtofl+3,VEML6030_GetValue@lightDataAnz+3
  7677  0040C4                     
  7678                           ;veml6030.c: 79:     return lightDataAnz;
  7679  0040C4  C022  F01E         	movff	VEML6030_GetValue@lightDataAnz,?_VEML6030_GetValue
  7680  0040C8  C023  F01F         	movff	VEML6030_GetValue@lightDataAnz+1,?_VEML6030_GetValue+1
  7681  0040CC  C024  F020         	movff	VEML6030_GetValue@lightDataAnz+2,?_VEML6030_GetValue+2
  7682  0040D0  C025  F021         	movff	VEML6030_GetValue@lightDataAnz+3,?_VEML6030_GetValue+3
  7683  0040D4  0012               	return		;funcret
  7684  0040D6                     __end_of_VEML6030_GetValue:
  7685                           	callstack 0
  7686                           
  7687 ;; *************** function ___xxtofl *****************
  7688 ;; Defined at:
  7689 ;;		line 10 in file "C:\Program Files\Microchip\xc8\v2.32\pic\sources\c99\common\xxtofl.c"
  7690 ;; Parameters:    Size  Location     Type
  7691 ;;  sign            1    wreg     unsigned char 
  7692 ;;  val             4    4[COMRAM] long 
  7693 ;; Auto vars:     Size  Location     Type
  7694 ;;  sign            1   12[COMRAM] unsigned char 
  7695 ;;  arg             4   14[COMRAM] unsigned long 
  7696 ;;  exp             1   13[COMRAM] unsigned char 
  7697 ;; Return value:  Size  Location     Type
  7698 ;;                  4    4[COMRAM] unsigned char 
  7699 ;; Registers used:
  7700 ;;		wreg, status,2, status,0
  7701 ;; Tracked objects:
  7702 ;;		On entry : 0/0
  7703 ;;		On exit  : 0/0
  7704 ;;		Unchanged: 0/0
  7705 ;; Data sizes:     COMRAM   BANK0   BANK1   BANK2   BANK3   BANK4   BANK5   BANK6   BANK7   BANK8   BANK9  BANK10  BANK1
      +1  BANK12  BANK13  BANK14  BANK15
  7706 ;;      Params:         4       0       0       0       0       0       0       0       0       0       0       0       
      +0       0       0       0       0
  7707 ;;      Locals:         6       0       0       0       0       0       0       0       0       0       0       0       
      +0       0       0       0       0
  7708 ;;      Temps:          4       0       0       0       0       0       0       0       0       0       0       0       
      +0       0       0       0       0
  7709 ;;      Totals:        14       0       0       0       0       0       0       0       0       0       0       0       
      +0       0       0       0       0
  7710 ;;Total ram usage:       14 bytes
  7711 ;; Hardware stack levels used: 1
  7712 ;; Hardware stack levels required when called: 4
  7713 ;; This function calls:
  7714 ;;		Nothing
  7715 ;; This function is called by:
  7716 ;;		_VEML6030_GetValue
  7717 ;; This function uses a non-reentrant model
  7718 ;;
  7719                           
  7720                           	psect	text31
  7721  002F02                     __ptext31:
  7722                           	callstack 0
  7723  002F02                     ___xxtofl:
  7724                           	callstack 25
  7725                           
  7726                           ;incstack = 0
  7727                           ;___xxtofl@sign stored from wreg
  7728  002F02  6E0D               	movwf	___xxtofl@sign^0,c
  7729  002F04  500D               	movf	___xxtofl@sign^0,w,c
  7730  002F06  B4D8               	btfsc	status,2,c
  7731  002F08  EF88  F017         	goto	u5211
  7732  002F0C  EF8A  F017         	goto	u5210
  7733  002F10                     u5211:
  7734  002F10  EFAC  F017         	goto	l1373
  7735  002F14                     u5210:
  7736  002F14  BE08               	btfsc	(___xxtofl@val+3)^0,7,c
  7737  002F16  EF91  F017         	goto	u5220
  7738  002F1A  EF8F  F017         	goto	u5221
  7739  002F1E                     u5221:
  7740  002F1E  EFAC  F017         	goto	l1373
  7741  002F22                     u5220:
  7742  002F22  C005  F009         	movff	___xxtofl@val,??___xxtofl
  7743  002F26  C006  F00A         	movff	___xxtofl@val+1,??___xxtofl+1
  7744  002F2A  C007  F00B         	movff	___xxtofl@val+2,??___xxtofl+2
  7745  002F2E  C008  F00C         	movff	___xxtofl@val+3,??___xxtofl+3
  7746  002F32  1E09               	comf	??___xxtofl^0,f,c
  7747  002F34  1E0A               	comf	(??___xxtofl+1)^0,f,c
  7748  002F36  1E0B               	comf	(??___xxtofl+2)^0,f,c
  7749  002F38  1E0C               	comf	(??___xxtofl+3)^0,f,c
  7750  002F3A  2A09               	incf	??___xxtofl^0,f,c
  7751  002F3C  0E00               	movlw	0
  7752  002F3E  220A               	addwfc	(??___xxtofl+1)^0,f,c
  7753  002F40  220B               	addwfc	(??___xxtofl+2)^0,f,c
  7754  002F42  220C               	addwfc	(??___xxtofl+3)^0,f,c
  7755  002F44  C009  F00F         	movff	??___xxtofl,___xxtofl@arg
  7756  002F48  C00A  F010         	movff	??___xxtofl+1,___xxtofl@arg+1
  7757  002F4C  C00B  F011         	movff	??___xxtofl+2,___xxtofl@arg+2
  7758  002F50  C00C  F012         	movff	??___xxtofl+3,___xxtofl@arg+3
  7759  002F54  EFB4  F017         	goto	l5440
  7760  002F58                     l1373:
  7761  002F58  C005  F00F         	movff	___xxtofl@val,___xxtofl@arg
  7762  002F5C  C006  F010         	movff	___xxtofl@val+1,___xxtofl@arg+1
  7763  002F60  C007  F011         	movff	___xxtofl@val+2,___xxtofl@arg+2
  7764  002F64  C008  F012         	movff	___xxtofl@val+3,___xxtofl@arg+3
  7765  002F68                     l5440:
  7766  002F68  5005               	movf	___xxtofl@val^0,w,c
  7767  002F6A  1006               	iorwf	(___xxtofl@val+1)^0,w,c
  7768  002F6C  1007               	iorwf	(___xxtofl@val+2)^0,w,c
  7769  002F6E  1008               	iorwf	(___xxtofl@val+3)^0,w,c
  7770  002F70  A4D8               	btfss	status,2,c
  7771  002F72  EFBD  F017         	goto	u5231
  7772  002F76  EFBF  F017         	goto	u5230
  7773  002F7A                     u5231:
  7774  002F7A  EFC9  F017         	goto	l5446
  7775  002F7E                     u5230:
  7776  002F7E  0E00               	movlw	0
  7777  002F80  6E05               	movwf	?___xxtofl^0,c
  7778  002F82  0E00               	movlw	0
  7779  002F84  6E06               	movwf	(?___xxtofl+1)^0,c
  7780  002F86  0E00               	movlw	0
  7781  002F88  6E07               	movwf	(?___xxtofl+2)^0,c
  7782  002F8A  0E00               	movlw	0
  7783  002F8C  6E08               	movwf	(?___xxtofl+3)^0,c
  7784  002F8E  EF5A  F018         	goto	l1376
  7785  002F92                     l5446:
  7786  002F92  0E96               	movlw	150
  7787  002F94  6E0E               	movwf	___xxtofl@exp^0,c
  7788  002F96  EFD3  F017         	goto	l5450
  7789  002F9A                     l5448:
  7790  002F9A  2A0E               	incf	___xxtofl@exp^0,f,c
  7791  002F9C  90D8               	bcf	status,0,c
  7792  002F9E  3212               	rrcf	(___xxtofl@arg+3)^0,f,c
  7793  002FA0  3211               	rrcf	(___xxtofl@arg+2)^0,f,c
  7794  002FA2  3210               	rrcf	(___xxtofl@arg+1)^0,f,c
  7795  002FA4  320F               	rrcf	___xxtofl@arg^0,f,c
  7796  002FA6                     l5450:
  7797  002FA6  0E00               	movlw	0
  7798  002FA8  140F               	andwf	___xxtofl@arg^0,w,c
  7799  002FAA  6E09               	movwf	??___xxtofl^0,c
  7800  002FAC  0E00               	movlw	0
  7801  002FAE  1410               	andwf	(___xxtofl@arg+1)^0,w,c
  7802  002FB0  6E0A               	movwf	(??___xxtofl+1)^0,c
  7803  002FB2  0E00               	movlw	0
  7804  002FB4  1411               	andwf	(___xxtofl@arg+2)^0,w,c
  7805  002FB6  6E0B               	movwf	(??___xxtofl+2)^0,c
  7806  002FB8  0EFE               	movlw	254
  7807  002FBA  1412               	andwf	(___xxtofl@arg+3)^0,w,c
  7808  002FBC  6E0C               	movwf	(??___xxtofl+3)^0,c
  7809  002FBE  5009               	movf	??___xxtofl^0,w,c
  7810  002FC0  100A               	iorwf	(??___xxtofl+1)^0,w,c
  7811  002FC2  100B               	iorwf	(??___xxtofl+2)^0,w,c
  7812  002FC4  100C               	iorwf	(??___xxtofl+3)^0,w,c
  7813  002FC6  A4D8               	btfss	status,2,c
  7814  002FC8  EFE8  F017         	goto	u5241
  7815  002FCC  EFEA  F017         	goto	u5240
  7816  002FD0                     u5241:
  7817  002FD0  EFCD  F017         	goto	l5448
  7818  002FD4                     u5240:
  7819  002FD4  EFF8  F017         	goto	l1380
  7820  002FD8                     l5452:
  7821  002FD8  2A0E               	incf	___xxtofl@exp^0,f,c
  7822  002FDA  0E01               	movlw	1
  7823  002FDC  260F               	addwf	___xxtofl@arg^0,f,c
  7824  002FDE  0E00               	movlw	0
  7825  002FE0  2210               	addwfc	(___xxtofl@arg+1)^0,f,c
  7826  002FE2  2211               	addwfc	(___xxtofl@arg+2)^0,f,c
  7827  002FE4  2212               	addwfc	(___xxtofl@arg+3)^0,f,c
  7828  002FE6  90D8               	bcf	status,0,c
  7829  002FE8  3212               	rrcf	(___xxtofl@arg+3)^0,f,c
  7830  002FEA  3211               	rrcf	(___xxtofl@arg+2)^0,f,c
  7831  002FEC  3210               	rrcf	(___xxtofl@arg+1)^0,f,c
  7832  002FEE  320F               	rrcf	___xxtofl@arg^0,f,c
  7833  002FF0                     l1380:
  7834  002FF0  0E00               	movlw	0
  7835  002FF2  140F               	andwf	___xxtofl@arg^0,w,c
  7836  002FF4  6E09               	movwf	??___xxtofl^0,c
  7837  002FF6  0E00               	movlw	0
  7838  002FF8  1410               	andwf	(___xxtofl@arg+1)^0,w,c
  7839  002FFA  6E0A               	movwf	(??___xxtofl+1)^0,c
  7840  002FFC  0E00               	movlw	0
  7841  002FFE  1411               	andwf	(___xxtofl@arg+2)^0,w,c
  7842  003000  6E0B               	movwf	(??___xxtofl+2)^0,c
  7843  003002  0EFF               	movlw	255
  7844  003004  1412               	andwf	(___xxtofl@arg+3)^0,w,c
  7845  003006  6E0C               	movwf	(??___xxtofl+3)^0,c
  7846  003008  5009               	movf	??___xxtofl^0,w,c
  7847  00300A  100A               	iorwf	(??___xxtofl+1)^0,w,c
  7848  00300C  100B               	iorwf	(??___xxtofl+2)^0,w,c
  7849  00300E  100C               	iorwf	(??___xxtofl+3)^0,w,c
  7850  003010  A4D8               	btfss	status,2,c
  7851  003012  EF0D  F018         	goto	u5251
  7852  003016  EF0F  F018         	goto	u5250
  7853  00301A                     u5251:
  7854  00301A  EFEC  F017         	goto	l5452
  7855  00301E                     u5250:
  7856  00301E  EF17  F018         	goto	l5460
  7857  003022                     l5458:
  7858  003022  060E               	decf	___xxtofl@exp^0,f,c
  7859  003024  90D8               	bcf	status,0,c
  7860  003026  360F               	rlcf	___xxtofl@arg^0,f,c
  7861  003028  3610               	rlcf	(___xxtofl@arg+1)^0,f,c
  7862  00302A  3611               	rlcf	(___xxtofl@arg+2)^0,f,c
  7863  00302C  3612               	rlcf	(___xxtofl@arg+3)^0,f,c
  7864  00302E                     l5460:
  7865  00302E  BE11               	btfsc	(___xxtofl@arg+2)^0,7,c
  7866  003030  EF1C  F018         	goto	u5261
  7867  003034  EF1E  F018         	goto	u5260
  7868  003038                     u5261:
  7869  003038  EF26  F018         	goto	l1387
  7870  00303C                     u5260:
  7871  00303C  0E02               	movlw	2
  7872  00303E  600E               	cpfslt	___xxtofl@exp^0,c
  7873  003040  EF24  F018         	goto	u5271
  7874  003044  EF26  F018         	goto	u5270
  7875  003048                     u5271:
  7876  003048  EF11  F018         	goto	l5458
  7877  00304C                     u5270:
  7878  00304C                     l1387:
  7879  00304C  B00E               	btfsc	___xxtofl@exp^0,0,c
  7880  00304E  EF2B  F018         	goto	u5281
  7881  003052  EF2D  F018         	goto	u5280
  7882  003056                     u5281:
  7883  003056  EF2E  F018         	goto	l5466
  7884  00305A                     u5280:
  7885  00305A  9E11               	bcf	(___xxtofl@arg+2)^0,7,c
  7886  00305C                     l5466:
  7887  00305C  90D8               	bcf	status,0,c
  7888  00305E  320E               	rrcf	___xxtofl@exp^0,f,c
  7889  003060  C00E  F009         	movff	___xxtofl@exp,??___xxtofl
  7890  003064  6A0A               	clrf	(??___xxtofl+1)^0,c
  7891  003066  6A0B               	clrf	(??___xxtofl+2)^0,c
  7892  003068  6A0C               	clrf	(??___xxtofl+3)^0,c
  7893  00306A  C009  F00C         	movff	??___xxtofl,??___xxtofl+3
  7894  00306E  6A0B               	clrf	(??___xxtofl+2)^0,c
  7895  003070  6A0A               	clrf	(??___xxtofl+1)^0,c
  7896  003072  6A09               	clrf	??___xxtofl^0,c
  7897  003074  5009               	movf	??___xxtofl^0,w,c
  7898  003076  120F               	iorwf	___xxtofl@arg^0,f,c
  7899  003078  500A               	movf	(??___xxtofl+1)^0,w,c
  7900  00307A  1210               	iorwf	(___xxtofl@arg+1)^0,f,c
  7901  00307C  500B               	movf	(??___xxtofl+2)^0,w,c
  7902  00307E  1211               	iorwf	(___xxtofl@arg+2)^0,f,c
  7903  003080  500C               	movf	(??___xxtofl+3)^0,w,c
  7904  003082  1212               	iorwf	(___xxtofl@arg+3)^0,f,c
  7905  003084  500D               	movf	___xxtofl@sign^0,w,c
  7906  003086  B4D8               	btfsc	status,2,c
  7907  003088  EF48  F018         	goto	u5291
  7908  00308C  EF4A  F018         	goto	u5290
  7909  003090                     u5291:
  7910  003090  EF52  F018         	goto	l5476
  7911  003094                     u5290:
  7912  003094  BE08               	btfsc	(___xxtofl@val+3)^0,7,c
  7913  003096  EF51  F018         	goto	u5300
  7914  00309A  EF4F  F018         	goto	u5301
  7915  00309E                     u5301:
  7916  00309E  EF52  F018         	goto	l5476
  7917  0030A2                     u5300:
  7918  0030A2  8E12               	bsf	(___xxtofl@arg+3)^0,7,c
  7919  0030A4                     l5476:
  7920  0030A4  C00F  F005         	movff	___xxtofl@arg,?___xxtofl
  7921  0030A8  C010  F006         	movff	___xxtofl@arg+1,?___xxtofl+1
  7922  0030AC  C011  F007         	movff	___xxtofl@arg+2,?___xxtofl+2
  7923  0030B0  C012  F008         	movff	___xxtofl@arg+3,?___xxtofl+3
  7924  0030B4                     l1376:
  7925  0030B4  0012               	return		;funcret
  7926  0030B6                     __end_of___xxtofl:
  7927                           	callstack 0
  7928                           
  7929 ;; *************** function _I2C_Read2ByteRegister *****************
  7930 ;; Defined at:
  7931 ;;		line 77 in file "mcc_generated_files/examples/i2c_master_example.c"
  7932 ;; Parameters:    Size  Location     Type
  7933 ;;  address         1    wreg     unsigned char 
  7934 ;;  reg             1   21[COMRAM] unsigned char 
  7935 ;; Auto vars:     Size  Location     Type
  7936 ;;  address         1   26[COMRAM] unsigned char 
  7937 ;;  returnValue     2   27[COMRAM] unsigned short 
  7938 ;; Return value:  Size  Location     Type
  7939 ;;                  2   21[COMRAM] unsigned short 
  7940 ;; Registers used:
  7941 ;;		wreg, fsr2l, fsr2h, status,2, status,0, pclath, tosl, tblptrl, tblptrh, tblptru, prodl, prodh, cstack
  7942 ;; Tracked objects:
  7943 ;;		On entry : 0/0
  7944 ;;		On exit  : 0/0
  7945 ;;		Unchanged: 0/0
  7946 ;; Data sizes:     COMRAM   BANK0   BANK1   BANK2   BANK3   BANK4   BANK5   BANK6   BANK7   BANK8   BANK9  BANK10  BANK1
      +1  BANK12  BANK13  BANK14  BANK15
  7947 ;;      Params:         2       0       0       0       0       0       0       0       0       0       0       0       
      +0       0       0       0       0
  7948 ;;      Locals:         3       0       0       0       0       0       0       0       0       0       0       0       
      +0       0       0       0       0
  7949 ;;      Temps:          3       0       0       0       0       0       0       0       0       0       0       0       
      +0       0       0       0       0
  7950 ;;      Totals:         8       0       0       0       0       0       0       0       0       0       0       0       
      +0       0       0       0       0
  7951 ;;Total ram usage:        8 bytes
  7952 ;; Hardware stack levels used: 1
  7953 ;; Hardware stack levels required when called: 12
  7954 ;; This function calls:
  7955 ;;		_I2C_Close
  7956 ;;		_I2C_MasterWrite
  7957 ;;		_I2C_Open
  7958 ;;		_I2C_SetAddressNackCallback
  7959 ;;		_I2C_SetBuffer
  7960 ;;		_I2C_SetDataCompleteCallback
  7961 ;; This function is called by:
  7962 ;;		_VEML6030_Init
  7963 ;;		_VEML6030_GetValue
  7964 ;;		_veml6030_set_als_integration_time
  7965 ;;		_veml6030_set_als_gain
  7966 ;; This function uses a non-reentrant model
  7967 ;;
  7968                           
  7969                           	psect	text32
  7970  003ACA                     __ptext32:
  7971                           	callstack 0
  7972  003ACA                     _I2C_Read2ByteRegister:
  7973                           	callstack 17
  7974                           
  7975                           ;incstack = 0
  7976                           ;I2C_Read2ByteRegister@address stored from wreg
  7977  003ACA  6E1B               	movwf	I2C_Read2ByteRegister@address^0,c
  7978  003ACC                     
  7979                           ;mcc_generated_files/examples/i2c_master_example.c: 77: uint16_t I2C_Read2ByteRegister(i
      +                          2c_address_t address, uint8_t reg);mcc_generated_files/examples/i2c_master_example.c: 78
      +                          : {;mcc_generated_files/examples/i2c_master_example.c: 79:     uint16_t returnValue =0x0
      +                          0;
  7980  003ACC  0E00               	movlw	0
  7981  003ACE  6E1D               	movwf	(I2C_Read2ByteRegister@returnValue+1)^0,c
  7982  003AD0  0E00               	movlw	0
  7983  003AD2  6E1C               	movwf	I2C_Read2ByteRegister@returnValue^0,c
  7984  003AD4                     l5342:
  7985  003AD4  501B               	movf	I2C_Read2ByteRegister@address^0,w,c
  7986  003AD6  EC1E  F01D         	call	_I2C_Open
  7987  003ADA  0900               	iorlw	0
  7988  003ADC  B4D8               	btfsc	status,2,c
  7989  003ADE  EF73  F01D         	goto	u5151
  7990  003AE2  EF75  F01D         	goto	u5150
  7991  003AE6                     u5151:
  7992  003AE6  EF6A  F01D         	goto	l5342
  7993  003AEA                     u5150:
  7994  003AEA                     
  7995                           ;mcc_generated_files/examples/i2c_master_example.c: 82:     I2C_SetDataCompleteCallback(
      +                          rd2RegCompleteHandler,&returnValue);
  7996  003AEA  0E44               	movlw	low _rd2RegCompleteHandler
  7997  003AEC  6E0A               	movwf	I2C_SetDataCompleteCallback@cb^0,c
  7998  003AEE  0E43               	movlw	high _rd2RegCompleteHandler
  7999  003AF0  6E0B               	movwf	(I2C_SetDataCompleteCallback@cb+1)^0,c
  8000  003AF2  0E1C               	movlw	low I2C_Read2ByteRegister@returnValue
  8001  003AF4  6E0C               	movwf	I2C_SetDataCompleteCallback@ptr^0,c
  8002  003AF6  0E00               	movlw	high I2C_Read2ByteRegister@returnValue
  8003  003AF8  6E0D               	movwf	(I2C_SetDataCompleteCallback@ptr+1)^0,c
  8004  003AFA  EC61  F022         	call	_I2C_SetDataCompleteCallback	;wreg free
  8005  003AFE                     
  8006                           ;mcc_generated_files/examples/i2c_master_example.c: 83:     I2C_SetBuffer(&reg,1);
  8007  003AFE  0E16               	movlw	low I2C_Read2ByteRegister@reg
  8008  003B00  6E05               	movwf	I2C_SetBuffer@buffer^0,c
  8009  003B02  0E00               	movlw	high I2C_Read2ByteRegister@reg
  8010  003B04  6E06               	movwf	(I2C_SetBuffer@buffer+1)^0,c
  8011  003B06  0E00               	movlw	0
  8012  003B08  6E08               	movwf	(I2C_SetBuffer@bufferSize+1)^0,c
  8013  003B0A  0E01               	movlw	1
  8014  003B0C  6E07               	movwf	I2C_SetBuffer@bufferSize^0,c
  8015  003B0E  EC23  F022         	call	_I2C_SetBuffer	;wreg free
  8016  003B12                     
  8017                           ;mcc_generated_files/examples/i2c_master_example.c: 84:     I2C_SetAddressNackCallback((
      +                          (void*)0),((void*)0));
  8018  003B12  0E00               	movlw	0
  8019  003B14  6E0A               	movwf	I2C_SetAddressNackCallback@cb^0,c
  8020  003B16  0E00               	movlw	0
  8021  003B18  6E0B               	movwf	(I2C_SetAddressNackCallback@cb+1)^0,c
  8022  003B1A  0E00               	movlw	0
  8023  003B1C  6E0C               	movwf	I2C_SetAddressNackCallback@ptr^0,c
  8024  003B1E  0E00               	movlw	0
  8025  003B20  6E0D               	movwf	(I2C_SetAddressNackCallback@ptr+1)^0,c
  8026  003B22  EC55  F022         	call	_I2C_SetAddressNackCallback	;wreg free
  8027  003B26                     
  8028                           ;mcc_generated_files/examples/i2c_master_example.c: 85:     I2C_MasterWrite();
  8029  003B26  ECD9  F022         	call	_I2C_MasterWrite	;wreg free
  8030  003B2A                     l5352:
  8031  003B2A  ECE4  F021         	call	_I2C_Close	;wreg free
  8032  003B2E  06E8               	decf	wreg,f,c
  8033  003B30  B4D8               	btfsc	status,2,c
  8034  003B32  EF9D  F01D         	goto	u5161
  8035  003B36  EF9F  F01D         	goto	u5160
  8036  003B3A                     u5161:
  8037  003B3A  EF95  F01D         	goto	l5352
  8038  003B3E                     u5160:
  8039  003B3E                     
  8040                           ;mcc_generated_files/examples/i2c_master_example.c: 88:     return (returnValue << 8 | r
      +                          eturnValue >> 8);
  8041  003B3E  C01D  F018         	movff	I2C_Read2ByteRegister@returnValue+1,??_I2C_Read2ByteRegister
  8042  003B42  501C               	movf	I2C_Read2ByteRegister@returnValue^0,w,c
  8043  003B44  6E19               	movwf	(??_I2C_Read2ByteRegister+1)^0,c
  8044  003B46  5018               	movf	??_I2C_Read2ByteRegister^0,w,c
  8045  003B48  6E16               	movwf	?_I2C_Read2ByteRegister^0,c
  8046  003B4A  C019  F017         	movff	??_I2C_Read2ByteRegister+1,?_I2C_Read2ByteRegister+1
  8047  003B4E  0012               	return		;funcret
  8048  003B50                     __end_of_I2C_Read2ByteRegister:
  8049                           	callstack 0
  8050                           
  8051 ;; *************** function _I2C_SetAddressNackCallback *****************
  8052 ;; Defined at:
  8053 ;;		line 283 in file "mcc_generated_files/i2c_master.c"
  8054 ;; Parameters:    Size  Location     Type
  8055 ;;  cb              2    9[COMRAM] PTR FTN(PTR void ,)enum 
  8056 ;;		 -> Absolute function(1), 
  8057 ;;  ptr             2   11[COMRAM] PTR void 
  8058 ;;		 -> NULL(0), 
  8059 ;; Auto vars:     Size  Location     Type
  8060 ;;		None
  8061 ;; Return value:  Size  Location     Type
  8062 ;;                  1    wreg      void 
  8063 ;; Registers used:
  8064 ;;		wreg, fsr2l, fsr2h, status,2, status,0, prodl, prodh, cstack
  8065 ;; Tracked objects:
  8066 ;;		On entry : 0/0
  8067 ;;		On exit  : 0/0
  8068 ;;		Unchanged: 0/0
  8069 ;; Data sizes:     COMRAM   BANK0   BANK1   BANK2   BANK3   BANK4   BANK5   BANK6   BANK7   BANK8   BANK9  BANK10  BANK1
      +1  BANK12  BANK13  BANK14  BANK15
  8070 ;;      Params:         4       0       0       0       0       0       0       0       0       0       0       0       
      +0       0       0       0       0
  8071 ;;      Locals:         0       0       0       0       0       0       0       0       0       0       0       0       
      +0       0       0       0       0
  8072 ;;      Temps:          0       0       0       0       0       0       0       0       0       0       0       0       
      +0       0       0       0       0
  8073 ;;      Totals:         4       0       0       0       0       0       0       0       0       0       0       0       
      +0       0       0       0       0
  8074 ;;Total ram usage:        4 bytes
  8075 ;; Hardware stack levels used: 1
  8076 ;; Hardware stack levels required when called: 5
  8077 ;; This function calls:
  8078 ;;		_I2C_SetCallback
  8079 ;; This function is called by:
  8080 ;;		_I2C_Read2ByteRegister
  8081 ;;		_I2C_Write1ByteRegister
  8082 ;;		_I2C_Write2ByteRegister
  8083 ;;		_I2C_Read1ByteRegister
  8084 ;;		_I2C_WriteNBytes
  8085 ;;		_I2C_ReadDataBlock
  8086 ;; This function uses a non-reentrant model
  8087 ;;
  8088                           
  8089                           	psect	text33
  8090  0044AA                     __ptext33:
  8091                           	callstack 0
  8092  0044AA                     _I2C_SetAddressNackCallback:
  8093                           	callstack 23
  8094  0044AA                     
  8095                           ;mcc_generated_files/i2c_master.c: 283: void I2C_SetAddressNackCallback(i2c_callback_t c
      +                          b, void *ptr);mcc_generated_files/i2c_master.c: 284: {;mcc_generated_files/i2c_master.c:
      +                           285:     I2C_SetCallback(I2C_ADDR_NACK, cb, ptr);
  8096  0044AA  C00A  F005         	movff	I2C_SetAddressNackCallback@cb,I2C_SetCallback@cb
  8097  0044AE  C00B  F006         	movff	I2C_SetAddressNackCallback@cb+1,I2C_SetCallback@cb+1
  8098  0044B2  C00C  F007         	movff	I2C_SetAddressNackCallback@ptr,I2C_SetCallback@ptr
  8099  0044B6  C00D  F008         	movff	I2C_SetAddressNackCallback@ptr+1,I2C_SetCallback@ptr+1
  8100  0044BA  0E02               	movlw	2
  8101  0044BC  ECE6  F01D         	call	_I2C_SetCallback
  8102  0044C0  0012               	return		;funcret
  8103  0044C2                     __end_of_I2C_SetAddressNackCallback:
  8104                           	callstack 0
  8105                           
  8106 ;; *************** function _I2C_Open *****************
  8107 ;; Defined at:
  8108 ;;		line 176 in file "mcc_generated_files/i2c_master.c"
  8109 ;; Parameters:    Size  Location     Type
  8110 ;;  address         1    wreg     unsigned char 
  8111 ;; Auto vars:     Size  Location     Type
  8112 ;;  address         1    4[COMRAM] unsigned char 
  8113 ;;  returnValue     1    5[COMRAM] enum E355
  8114 ;; Return value:  Size  Location     Type
  8115 ;;                  1    wreg      enum E355
  8116 ;; Registers used:
  8117 ;;		wreg, status,2, status,0, cstack
  8118 ;; Tracked objects:
  8119 ;;		On entry : 0/0
  8120 ;;		On exit  : 0/0
  8121 ;;		Unchanged: 0/0
  8122 ;; Data sizes:     COMRAM   BANK0   BANK1   BANK2   BANK3   BANK4   BANK5   BANK6   BANK7   BANK8   BANK9  BANK10  BANK1
      +1  BANK12  BANK13  BANK14  BANK15
  8123 ;;      Params:         0       0       0       0       0       0       0       0       0       0       0       0       
      +0       0       0       0       0
  8124 ;;      Locals:         2       0       0       0       0       0       0       0       0       0       0       0       
      +0       0       0       0       0
  8125 ;;      Temps:          0       0       0       0       0       0       0       0       0       0       0       0       
      +0       0       0       0       0
  8126 ;;      Totals:         2       0       0       0       0       0       0       0       0       0       0       0       
      +0       0       0       0       0
  8127 ;;Total ram usage:        2 bytes
  8128 ;; Hardware stack levels used: 1
  8129 ;; Hardware stack levels required when called: 5
  8130 ;; This function calls:
  8131 ;;		_I2C_MasterClearIrq
  8132 ;;		_I2C_MasterOpen
  8133 ;; This function is called by:
  8134 ;;		_I2C_Read2ByteRegister
  8135 ;;		_I2C_Write1ByteRegister
  8136 ;;		_I2C_Write2ByteRegister
  8137 ;;		_I2C_Read1ByteRegister
  8138 ;;		_I2C_WriteNBytes
  8139 ;;		_I2C_ReadNBytes
  8140 ;;		_I2C_ReadDataBlock
  8141 ;; This function uses a non-reentrant model
  8142 ;;
  8143                           
  8144                           	psect	text34
  8145  003A3C                     __ptext34:
  8146                           	callstack 0
  8147  003A3C                     _I2C_Open:
  8148                           	callstack 23
  8149                           
  8150                           ;incstack = 0
  8151                           ;I2C_Open@address stored from wreg
  8152  003A3C  6E05               	movwf	I2C_Open@address^0,c
  8153  003A3E                     
  8154                           ;mcc_generated_files/i2c_master.c: 176: i2c_error_t I2C_Open(i2c_address_t address);mcc_
      +                          generated_files/i2c_master.c: 177: {;mcc_generated_files/i2c_master.c: 178:     i2c_erro
      +                          r_t returnValue = I2C_BUSY;
  8155  003A3E  0E01               	movlw	1
  8156  003A40  6E06               	movwf	I2C_Open@returnValue^0,c
  8157  003A42                     
  8158                           ;mcc_generated_files/i2c_master.c: 180:     if(!I2C_Status.inUse)
  8159  003A42  0100               	movlb	0	; () banked
  8160  003A44  B583               	btfsc	(_I2C_Status+35)& (0+255),2,b
  8161  003A46  EF27  F01D         	goto	u5031
  8162  003A4A  EF29  F01D         	goto	u5030
  8163  003A4E                     u5031:
  8164  003A4E  EF63  F01D         	goto	l5226
  8165  003A52                     u5030:
  8166  003A52                     
  8167                           ; BSR set to: 0
  8168                           ;mcc_generated_files/i2c_master.c: 181:     {;mcc_generated_files/i2c_master.c: 182:    
      +                               I2C_Status.address = address;
  8169  003A52  C005  F07C         	movff	I2C_Open@address,_I2C_Status+28
  8170  003A56                     
  8171                           ; BSR set to: 0
  8172                           ;mcc_generated_files/i2c_master.c: 183:         I2C_Status.busy = 0;
  8173  003A56  9383               	bcf	(_I2C_Status+35)& (0+255),1,b
  8174  003A58                     
  8175                           ; BSR set to: 0
  8176                           ;mcc_generated_files/i2c_master.c: 184:         I2C_Status.inUse = 1;
  8177  003A58  8583               	bsf	(_I2C_Status+35)& (0+255),2,b
  8178  003A5A                     
  8179                           ; BSR set to: 0
  8180                           ;mcc_generated_files/i2c_master.c: 185:         I2C_Status.addressNackCheck = 0;
  8181  003A5A  9183               	bcf	(_I2C_Status+35)& (0+255),0,b
  8182  003A5C                     
  8183                           ; BSR set to: 0
  8184                           ;mcc_generated_files/i2c_master.c: 186:         I2C_Status.state = I2C_RESET;
  8185  003A5C  0E0E               	movlw	14
  8186  003A5E  6F81               	movwf	(_I2C_Status+33)& (0+255),b
  8187  003A60                     
  8188                           ; BSR set to: 0
  8189                           ;mcc_generated_files/i2c_master.c: 187:         I2C_Status.time_out_value = 500;
  8190  003A60  0E01               	movlw	1
  8191  003A62  6F7B               	movwf	(_I2C_Status+27)& (0+255),b
  8192  003A64  0EF4               	movlw	244
  8193  003A66  6F7A               	movwf	(_I2C_Status+26)& (0+255),b
  8194  003A68                     
  8195                           ; BSR set to: 0
  8196                           ;mcc_generated_files/i2c_master.c: 188:         I2C_Status.bufferFree = 1;
  8197  003A68  8783               	bsf	(_I2C_Status+35)& (0+255),3,b
  8198  003A6A                     
  8199                           ; BSR set to: 0
  8200                           ;mcc_generated_files/i2c_master.c: 191:         I2C_Status.callbackTable[I2C_DATA_COMPLE
      +                          TE]=I2C_CallbackReturnStop;
  8201  003A6A  0E22               	movlw	low _I2C_CallbackReturnStop
  8202  003A6C  6F60               	movwf	_I2C_Status& (0+255),b
  8203  003A6E  0E46               	movlw	high _I2C_CallbackReturnStop
  8204  003A70  6F61               	movwf	(_I2C_Status+1)& (0+255),b
  8205  003A72                     
  8206                           ; BSR set to: 0
  8207                           ;mcc_generated_files/i2c_master.c: 192:         I2C_Status.callbackPayload[I2C_DATA_COMP
      +                          LETE] = ((void*)0);
  8208  003A72  0E00               	movlw	0
  8209  003A74  6F6C               	movwf	(_I2C_Status+12)& (0+255),b
  8210  003A76  0E00               	movlw	0
  8211  003A78  6F6D               	movwf	(_I2C_Status+13)& (0+255),b
  8212  003A7A                     
  8213                           ; BSR set to: 0
  8214                           ;mcc_generated_files/i2c_master.c: 193:         I2C_Status.callbackTable[I2C_WRITE_COLLI
      +                          SION]=I2C_CallbackReturnStop;
  8215  003A7A  0E22               	movlw	low _I2C_CallbackReturnStop
  8216  003A7C  6F62               	movwf	(_I2C_Status+2)& (0+255),b
  8217  003A7E  0E46               	movlw	high _I2C_CallbackReturnStop
  8218  003A80  6F63               	movwf	(_I2C_Status+3)& (0+255),b
  8219  003A82                     
  8220                           ; BSR set to: 0
  8221                           ;mcc_generated_files/i2c_master.c: 194:         I2C_Status.callbackPayload[I2C_WRITE_COL
      +                          LISION] = ((void*)0);
  8222  003A82  0E00               	movlw	0
  8223  003A84  6F6E               	movwf	(_I2C_Status+14)& (0+255),b
  8224  003A86  0E00               	movlw	0
  8225  003A88  6F6F               	movwf	(_I2C_Status+15)& (0+255),b
  8226  003A8A                     
  8227                           ; BSR set to: 0
  8228                           ;mcc_generated_files/i2c_master.c: 195:         I2C_Status.callbackTable[I2C_ADDR_NACK]=
      +                          I2C_CallbackReturnStop;
  8229  003A8A  0E22               	movlw	low _I2C_CallbackReturnStop
  8230  003A8C  6F64               	movwf	(_I2C_Status+4)& (0+255),b
  8231  003A8E  0E46               	movlw	high _I2C_CallbackReturnStop
  8232  003A90  6F65               	movwf	(_I2C_Status+5)& (0+255),b
  8233  003A92                     
  8234                           ; BSR set to: 0
  8235                           ;mcc_generated_files/i2c_master.c: 196:         I2C_Status.callbackPayload[I2C_ADDR_NACK
      +                          ] = ((void*)0);
  8236  003A92  0E00               	movlw	0
  8237  003A94  6F70               	movwf	(_I2C_Status+16)& (0+255),b
  8238  003A96  0E00               	movlw	0
  8239  003A98  6F71               	movwf	(_I2C_Status+17)& (0+255),b
  8240  003A9A                     
  8241                           ; BSR set to: 0
  8242                           ;mcc_generated_files/i2c_master.c: 197:         I2C_Status.callbackTable[I2C_DATA_NACK]=
      +                          I2C_CallbackReturnStop;
  8243  003A9A  0E22               	movlw	low _I2C_CallbackReturnStop
  8244  003A9C  6F66               	movwf	(_I2C_Status+6)& (0+255),b
  8245  003A9E  0E46               	movlw	high _I2C_CallbackReturnStop
  8246  003AA0  6F67               	movwf	(_I2C_Status+7)& (0+255),b
  8247  003AA2                     
  8248                           ; BSR set to: 0
  8249                           ;mcc_generated_files/i2c_master.c: 198:         I2C_Status.callbackPayload[I2C_DATA_NACK
      +                          ] = ((void*)0);
  8250  003AA2  0E00               	movlw	0
  8251  003AA4  6F72               	movwf	(_I2C_Status+18)& (0+255),b
  8252  003AA6  0E00               	movlw	0
  8253  003AA8  6F73               	movwf	(_I2C_Status+19)& (0+255),b
  8254  003AAA                     
  8255                           ; BSR set to: 0
  8256                           ;mcc_generated_files/i2c_master.c: 199:         I2C_Status.callbackTable[I2C_TIMEOUT]=I2
      +                          C_CallbackReturnReset;
  8257  003AAA  0E1E               	movlw	low _I2C_CallbackReturnReset
  8258  003AAC  6F68               	movwf	(_I2C_Status+8)& (0+255),b
  8259  003AAE  0E46               	movlw	high _I2C_CallbackReturnReset
  8260  003AB0  6F69               	movwf	(_I2C_Status+9)& (0+255),b
  8261  003AB2                     
  8262                           ; BSR set to: 0
  8263                           ;mcc_generated_files/i2c_master.c: 200:         I2C_Status.callbackPayload[I2C_TIMEOUT] 
      +                          = ((void*)0);
  8264  003AB2  0E00               	movlw	0
  8265  003AB4  6F74               	movwf	(_I2C_Status+20)& (0+255),b
  8266  003AB6  0E00               	movlw	0
  8267  003AB8  6F75               	movwf	(_I2C_Status+21)& (0+255),b
  8268  003ABA                     
  8269                           ; BSR set to: 0
  8270                           ;mcc_generated_files/i2c_master.c: 202:         I2C_MasterClearIrq();
  8271  003ABA  EC1D  F023         	call	_I2C_MasterClearIrq	;wreg free
  8272  003ABE                     
  8273                           ;mcc_generated_files/i2c_master.c: 203:         I2C_MasterOpen();
  8274  003ABE  EC35  F022         	call	_I2C_MasterOpen	;wreg free
  8275  003AC2                     
  8276                           ;mcc_generated_files/i2c_master.c: 204:         returnValue = I2C_NOERR;
  8277  003AC2  0E00               	movlw	0
  8278  003AC4  6E06               	movwf	I2C_Open@returnValue^0,c
  8279  003AC6                     l5226:
  8280                           
  8281                           ;mcc_generated_files/i2c_master.c: 206:     return returnValue;
  8282  003AC6  5006               	movf	I2C_Open@returnValue^0,w,c
  8283  003AC8  0012               	return		;funcret
  8284  003ACA                     __end_of_I2C_Open:
  8285                           	callstack 0
  8286                           
  8287 ;; *************** function _I2C_MasterOpen *****************
  8288 ;; Defined at:
  8289 ;;		line 543 in file "mcc_generated_files/i2c_master.c"
  8290 ;; Parameters:    Size  Location     Type
  8291 ;;		None
  8292 ;; Auto vars:     Size  Location     Type
  8293 ;;		None
  8294 ;; Return value:  Size  Location     Type
  8295 ;;                  1    wreg      _Bool 
  8296 ;; Registers used:
  8297 ;;		wreg, status,2
  8298 ;; Tracked objects:
  8299 ;;		On entry : 0/0
  8300 ;;		On exit  : 0/0
  8301 ;;		Unchanged: 0/0
  8302 ;; Data sizes:     COMRAM   BANK0   BANK1   BANK2   BANK3   BANK4   BANK5   BANK6   BANK7   BANK8   BANK9  BANK10  BANK1
      +1  BANK12  BANK13  BANK14  BANK15
  8303 ;;      Params:         0       0       0       0       0       0       0       0       0       0       0       0       
      +0       0       0       0       0
  8304 ;;      Locals:         0       0       0       0       0       0       0       0       0       0       0       0       
      +0       0       0       0       0
  8305 ;;      Temps:          0       0       0       0       0       0       0       0       0       0       0       0       
      +0       0       0       0       0
  8306 ;;      Totals:         0       0       0       0       0       0       0       0       0       0       0       0       
      +0       0       0       0       0
  8307 ;;Total ram usage:        0 bytes
  8308 ;; Hardware stack levels used: 1
  8309 ;; Hardware stack levels required when called: 4
  8310 ;; This function calls:
  8311 ;;		Nothing
  8312 ;; This function is called by:
  8313 ;;		_I2C_Open
  8314 ;; This function uses a non-reentrant model
  8315 ;;
  8316                           
  8317                           	psect	text35
  8318  00446A                     __ptext35:
  8319                           	callstack 0
  8320  00446A                     _I2C_MasterOpen:
  8321                           	callstack 23
  8322  00446A                     
  8323                           ;mcc_generated_files/i2c_master.c: 545:     if(!SSPCON1bits.SSPEN)
  8324  00446A  BAC6               	btfsc	198,5,c	;volatile
  8325  00446C  EF3A  F022         	goto	u4411
  8326  004470  EF3C  F022         	goto	u4410
  8327  004474                     u4411:
  8328  004474  EF45  F022         	goto	l378
  8329  004478                     u4410:
  8330  004478                     
  8331                           ;mcc_generated_files/i2c_master.c: 546:     {;mcc_generated_files/i2c_master.c: 547:    
      +                               SSPSTAT = 0x00;
  8332  004478  0E00               	movlw	0
  8333  00447A  6EC7               	movwf	199,c	;volatile
  8334                           
  8335                           ;mcc_generated_files/i2c_master.c: 548:         SSPCON1 = 0x08;
  8336  00447C  0E08               	movlw	8
  8337  00447E  6EC6               	movwf	198,c	;volatile
  8338                           
  8339                           ;mcc_generated_files/i2c_master.c: 549:         SSPCON2 = 0x00;
  8340  004480  0E00               	movlw	0
  8341  004482  6EC5               	movwf	197,c	;volatile
  8342                           
  8343                           ;mcc_generated_files/i2c_master.c: 550:         SSPADD = 0x13;
  8344  004484  0E13               	movlw	19
  8345  004486  6EC8               	movwf	200,c	;volatile
  8346  004488                     
  8347                           ;mcc_generated_files/i2c_master.c: 551:         SSPCON1bits.SSPEN = 1;
  8348  004488  8AC6               	bsf	198,5,c	;volatile
  8349  00448A                     l378:
  8350  00448A  0012               	return		;funcret
  8351  00448C                     __end_of_I2C_MasterOpen:
  8352                           	callstack 0
  8353                           
  8354 ;; *************** function _I2C_MasterWrite *****************
  8355 ;; Defined at:
  8356 ;;		line 251 in file "mcc_generated_files/i2c_master.c"
  8357 ;; Parameters:    Size  Location     Type
  8358 ;;		None
  8359 ;; Auto vars:     Size  Location     Type
  8360 ;;		None
  8361 ;; Return value:  Size  Location     Type
  8362 ;;                  1    wreg      enum E355
  8363 ;; Registers used:
  8364 ;;		wreg, fsr2l, fsr2h, status,2, status,0, pclath, tosl, tblptrl, tblptrh, tblptru, prodl, prodh, cstack
  8365 ;; Tracked objects:
  8366 ;;		On entry : 0/0
  8367 ;;		On exit  : 0/0
  8368 ;;		Unchanged: 0/0
  8369 ;; Data sizes:     COMRAM   BANK0   BANK1   BANK2   BANK3   BANK4   BANK5   BANK6   BANK7   BANK8   BANK9  BANK10  BANK1
      +1  BANK12  BANK13  BANK14  BANK15
  8370 ;;      Params:         0       0       0       0       0       0       0       0       0       0       0       0       
      +0       0       0       0       0
  8371 ;;      Locals:         0       0       0       0       0       0       0       0       0       0       0       0       
      +0       0       0       0       0
  8372 ;;      Temps:          0       0       0       0       0       0       0       0       0       0       0       0       
      +0       0       0       0       0
  8373 ;;      Totals:         0       0       0       0       0       0       0       0       0       0       0       0       
      +0       0       0       0       0
  8374 ;;Total ram usage:        0 bytes
  8375 ;; Hardware stack levels used: 1
  8376 ;; Hardware stack levels required when called: 11
  8377 ;; This function calls:
  8378 ;;		_I2C_MasterOperation
  8379 ;; This function is called by:
  8380 ;;		_I2C_Read2ByteRegister
  8381 ;;		_I2C_Write1ByteRegister
  8382 ;;		_I2C_Write2ByteRegister
  8383 ;;		_I2C_Read1ByteRegister
  8384 ;;		_I2C_WriteNBytes
  8385 ;;		_I2C_ReadDataBlock
  8386 ;; This function uses a non-reentrant model
  8387 ;;
  8388                           
  8389                           	psect	text36
  8390  0045B2                     __ptext36:
  8391                           	callstack 0
  8392  0045B2                     _I2C_MasterWrite:
  8393                           	callstack 17
  8394  0045B2                     
  8395                           ;mcc_generated_files/i2c_master.c: 253:     return I2C_MasterOperation(0);;	Return value
      +                           of _I2C_MasterWrite is never used
  8396  0045B2  0E00               	movlw	0
  8397  0045B4  EC8D  F020         	call	_I2C_MasterOperation
  8398  0045B8  0012               	return		;funcret
  8399  0045BA                     __end_of_I2C_MasterWrite:
  8400                           	callstack 0
  8401                           
  8402 ;; *************** function _I2C_MasterOperation *****************
  8403 ;; Defined at:
  8404 ;;		line 224 in file "mcc_generated_files/i2c_master.c"
  8405 ;; Parameters:    Size  Location     Type
  8406 ;;  read            1    wreg     _Bool 
  8407 ;; Auto vars:     Size  Location     Type
  8408 ;;  read            1   19[COMRAM] _Bool 
  8409 ;;  returnValue     1   20[COMRAM] enum E355
  8410 ;; Return value:  Size  Location     Type
  8411 ;;                  1    wreg      enum E355
  8412 ;; Registers used:
  8413 ;;		wreg, fsr2l, fsr2h, status,2, status,0, pclath, tosl, tblptrl, tblptrh, tblptru, prodl, prodh, cstack
  8414 ;; Tracked objects:
  8415 ;;		On entry : 0/0
  8416 ;;		On exit  : 0/0
  8417 ;;		Unchanged: 0/0
  8418 ;; Data sizes:     COMRAM   BANK0   BANK1   BANK2   BANK3   BANK4   BANK5   BANK6   BANK7   BANK8   BANK9  BANK10  BANK1
      +1  BANK12  BANK13  BANK14  BANK15
  8419 ;;      Params:         0       0       0       0       0       0       0       0       0       0       0       0       
      +0       0       0       0       0
  8420 ;;      Locals:         2       0       0       0       0       0       0       0       0       0       0       0       
      +0       0       0       0       0
  8421 ;;      Temps:          0       0       0       0       0       0       0       0       0       0       0       0       
      +0       0       0       0       0
  8422 ;;      Totals:         2       0       0       0       0       0       0       0       0       0       0       0       
      +0       0       0       0       0
  8423 ;;Total ram usage:        2 bytes
  8424 ;; Hardware stack levels used: 1
  8425 ;; Hardware stack levels required when called: 10
  8426 ;; This function calls:
  8427 ;;		_I2C_MasterStart
  8428 ;;		_I2C_Poller
  8429 ;; This function is called by:
  8430 ;;		_I2C_MasterWrite
  8431 ;;		_I2C_MasterRead
  8432 ;; This function uses a non-reentrant model
  8433 ;;
  8434                           
  8435                           	psect	text37
  8436  00411A                     __ptext37:
  8437                           	callstack 0
  8438  00411A                     _I2C_MasterOperation:
  8439                           	callstack 17
  8440                           
  8441                           ;incstack = 0
  8442                           ;I2C_MasterOperation@read stored from wreg
  8443  00411A  6E14               	movwf	I2C_MasterOperation@read^0,c
  8444  00411C                     
  8445                           ;mcc_generated_files/i2c_master.c: 224: i2c_error_t I2C_MasterOperation(_Bool read);mcc_
      +                          generated_files/i2c_master.c: 225: {;mcc_generated_files/i2c_master.c: 226:     i2c_erro
      +                          r_t returnValue = I2C_BUSY;
  8446  00411C  0E01               	movlw	1
  8447  00411E  6E15               	movwf	I2C_MasterOperation@returnValue^0,c
  8448  004120                     
  8449                           ;mcc_generated_files/i2c_master.c: 227:     if(!I2C_Status.busy)
  8450  004120  0100               	movlb	0	; () banked
  8451  004122  B383               	btfsc	(_I2C_Status+35)& (0+255),1,b
  8452  004124  EF96  F020         	goto	u4421
  8453  004128  EF98  F020         	goto	u4420
  8454  00412C                     u4421:
  8455  00412C  EFAD  F020         	goto	l4850
  8456  004130                     u4420:
  8457  004130                     
  8458                           ; BSR set to: 0
  8459                           ;mcc_generated_files/i2c_master.c: 228:     {;mcc_generated_files/i2c_master.c: 229:    
      +                               I2C_Status.busy = 1;
  8460  004130  8383               	bsf	(_I2C_Status+35)& (0+255),1,b
  8461  004132                     
  8462                           ; BSR set to: 0
  8463                           ;mcc_generated_files/i2c_master.c: 230:         returnValue = I2C_NOERR;
  8464  004132  0E00               	movlw	0
  8465  004134  6E15               	movwf	I2C_MasterOperation@returnValue^0,c
  8466  004136                     
  8467                           ; BSR set to: 0
  8468                           ;mcc_generated_files/i2c_master.c: 232:         if(read)
  8469  004136  5014               	movf	I2C_MasterOperation@read^0,w,c
  8470  004138  B4D8               	btfsc	status,2,c
  8471  00413A  EFA1  F020         	goto	u4431
  8472  00413E  EFA3  F020         	goto	u4430
  8473  004142                     u4431:
  8474  004142  EFA7  F020         	goto	l4844
  8475  004146                     u4430:
  8476  004146                     
  8477                           ; BSR set to: 0
  8478                           ;mcc_generated_files/i2c_master.c: 233:         {;mcc_generated_files/i2c_master.c: 234:
      +                                       I2C_Status.state = I2C_SEND_ADR_READ;
  8479  004146  0E01               	movlw	1
  8480  004148  6F81               	movwf	(_I2C_Status+33)& (0+255),b
  8481                           
  8482                           ;mcc_generated_files/i2c_master.c: 235:         }
  8483  00414A  EFA9  F020         	goto	l4846
  8484  00414E                     l4844:
  8485                           
  8486                           ; BSR set to: 0
  8487                           ;mcc_generated_files/i2c_master.c: 237:         {;mcc_generated_files/i2c_master.c: 238:
      +                                       I2C_Status.state = I2C_SEND_ADR_WRITE;
  8488  00414E  0E02               	movlw	2
  8489  004150  6F81               	movwf	(_I2C_Status+33)& (0+255),b
  8490  004152                     l4846:
  8491                           
  8492                           ; BSR set to: 0
  8493                           ;mcc_generated_files/i2c_master.c: 240:         I2C_MasterStart();
  8494  004152  EC17  F023         	call	_I2C_MasterStart	;wreg free
  8495  004156                     
  8496                           ;mcc_generated_files/i2c_master.c: 241:         I2C_Poller();
  8497  004156  EC46  F022         	call	_I2C_Poller	;wreg free
  8498  00415A                     l4850:
  8499                           
  8500                           ;mcc_generated_files/i2c_master.c: 243:     return returnValue;
  8501  00415A  5015               	movf	I2C_MasterOperation@returnValue^0,w,c
  8502  00415C  0012               	return		;funcret
  8503  00415E                     __end_of_I2C_MasterOperation:
  8504                           	callstack 0
  8505                           
  8506 ;; *************** function _I2C_Poller *****************
  8507 ;; Defined at:
  8508 ;;		line 312 in file "mcc_generated_files/i2c_master.c"
  8509 ;; Parameters:    Size  Location     Type
  8510 ;;		None
  8511 ;; Auto vars:     Size  Location     Type
  8512 ;;		None
  8513 ;; Return value:  Size  Location     Type
  8514 ;;                  1    wreg      void 
  8515 ;; Registers used:
  8516 ;;		wreg, fsr2l, fsr2h, status,2, status,0, pclath, tosl, tblptrl, tblptrh, tblptru, prodl, prodh, cstack
  8517 ;; Tracked objects:
  8518 ;;		On entry : 0/0
  8519 ;;		On exit  : 0/0
  8520 ;;		Unchanged: 0/0
  8521 ;; Data sizes:     COMRAM   BANK0   BANK1   BANK2   BANK3   BANK4   BANK5   BANK6   BANK7   BANK8   BANK9  BANK10  BANK1
      +1  BANK12  BANK13  BANK14  BANK15
  8522 ;;      Params:         0       0       0       0       0       0       0       0       0       0       0       0       
      +0       0       0       0       0
  8523 ;;      Locals:         0       0       0       0       0       0       0       0       0       0       0       0       
      +0       0       0       0       0
  8524 ;;      Temps:          0       0       0       0       0       0       0       0       0       0       0       0       
      +0       0       0       0       0
  8525 ;;      Totals:         0       0       0       0       0       0       0       0       0       0       0       0       
      +0       0       0       0       0
  8526 ;;Total ram usage:        0 bytes
  8527 ;; Hardware stack levels used: 1
  8528 ;; Hardware stack levels required when called: 9
  8529 ;; This function calls:
  8530 ;;		_I2C_MasterFsm
  8531 ;;		_I2C_MasterWaitForEvent
  8532 ;; This function is called by:
  8533 ;;		_I2C_MasterOperation
  8534 ;; This function uses a non-reentrant model
  8535 ;;
  8536                           
  8537                           	psect	text38
  8538  00448C                     __ptext38:
  8539                           	callstack 0
  8540  00448C                     _I2C_Poller:
  8541                           	callstack 17
  8542  00448C                     
  8543                           ;mcc_generated_files/i2c_master.c: 314:     while(I2C_Status.busy)
  8544  00448C  EF4C  F022         	goto	l4288
  8545  004490                     l4284:
  8546                           
  8547                           ; BSR set to: 0
  8548                           ;mcc_generated_files/i2c_master.c: 315:     {;mcc_generated_files/i2c_master.c: 316:    
      +                               I2C_MasterWaitForEvent();
  8549  004490  EC8C  F022         	call	_I2C_MasterWaitForEvent	;wreg free
  8550  004494                     
  8551                           ;mcc_generated_files/i2c_master.c: 317:         I2C_MasterFsm();
  8552  004494  EC5E  F01E         	call	_I2C_MasterFsm	;wreg free
  8553  004498                     l4288:
  8554                           
  8555                           ;mcc_generated_files/i2c_master.c: 314:     while(I2C_Status.busy)
  8556  004498  0100               	movlb	0	; () banked
  8557  00449A  B383               	btfsc	(_I2C_Status+35)& (0+255),1,b
  8558  00449C  EF52  F022         	goto	u3441
  8559  0044A0  EF54  F022         	goto	u3440
  8560  0044A4                     u3441:
  8561  0044A4  EF48  F022         	goto	l4284
  8562  0044A8                     u3440:
  8563  0044A8                     
  8564                           ; BSR set to: 0
  8565  0044A8  0012               	return		;funcret
  8566  0044AA                     __end_of_I2C_Poller:
  8567                           	callstack 0
  8568                           
  8569 ;; *************** function _I2C_MasterWaitForEvent *****************
  8570 ;; Defined at:
  8571 ;;		line 650 in file "mcc_generated_files/i2c_master.c"
  8572 ;; Parameters:    Size  Location     Type
  8573 ;;		None
  8574 ;; Auto vars:     Size  Location     Type
  8575 ;;		None
  8576 ;; Return value:  Size  Location     Type
  8577 ;;                  1    wreg      void 
  8578 ;; Registers used:
  8579 ;;		None
  8580 ;; Tracked objects:
  8581 ;;		On entry : 0/0
  8582 ;;		On exit  : 0/0
  8583 ;;		Unchanged: 0/0
  8584 ;; Data sizes:     COMRAM   BANK0   BANK1   BANK2   BANK3   BANK4   BANK5   BANK6   BANK7   BANK8   BANK9  BANK10  BANK1
      +1  BANK12  BANK13  BANK14  BANK15
  8585 ;;      Params:         0       0       0       0       0       0       0       0       0       0       0       0       
      +0       0       0       0       0
  8586 ;;      Locals:         0       0       0       0       0       0       0       0       0       0       0       0       
      +0       0       0       0       0
  8587 ;;      Temps:          0       0       0       0       0       0       0       0       0       0       0       0       
      +0       0       0       0       0
  8588 ;;      Totals:         0       0       0       0       0       0       0       0       0       0       0       0       
      +0       0       0       0       0
  8589 ;;Total ram usage:        0 bytes
  8590 ;; Hardware stack levels used: 1
  8591 ;; Hardware stack levels required when called: 4
  8592 ;; This function calls:
  8593 ;;		Nothing
  8594 ;; This function is called by:
  8595 ;;		_I2C_Poller
  8596 ;; This function uses a non-reentrant model
  8597 ;;
  8598                           
  8599                           	psect	text39
  8600  004518                     __ptext39:
  8601                           	callstack 0
  8602  004518                     _I2C_MasterWaitForEvent:
  8603                           	callstack 21
  8604  004518                     l435:
  8605                           
  8606                           ;mcc_generated_files/i2c_master.c: 653:     {;mcc_generated_files/i2c_master.c: 654:    
      +                               if(PIR1bits.SSPIF)
  8607  004518  A69E               	btfss	158,3,c	;volatile
  8608  00451A  EF91  F022         	goto	u2971
  8609  00451E  EF93  F022         	goto	u2970
  8610  004522                     u2971:
  8611  004522  EF8C  F022         	goto	l435
  8612  004526                     u2970:
  8613  004526  0012               	return		;funcret
  8614  004528                     __end_of_I2C_MasterWaitForEvent:
  8615                           	callstack 0
  8616                           
  8617 ;; *************** function _I2C_MasterFsm *****************
  8618 ;; Defined at:
  8619 ;;		line 321 in file "mcc_generated_files/i2c_master.c"
  8620 ;; Parameters:    Size  Location     Type
  8621 ;;		None
  8622 ;; Auto vars:     Size  Location     Type
  8623 ;;		None
  8624 ;; Return value:  Size  Location     Type
  8625 ;;                  1    wreg      void 
  8626 ;; Registers used:
  8627 ;;		wreg, fsr2l, fsr2h, status,2, status,0, pclath, tosl, tblptrl, tblptrh, tblptru, prodl, prodh, cstack
  8628 ;; Tracked objects:
  8629 ;;		On entry : 0/0
  8630 ;;		On exit  : 0/0
  8631 ;;		Unchanged: 0/0
  8632 ;; Data sizes:     COMRAM   BANK0   BANK1   BANK2   BANK3   BANK4   BANK5   BANK6   BANK7   BANK8   BANK9  BANK10  BANK1
      +1  BANK12  BANK13  BANK14  BANK15
  8633 ;;      Params:         0       0       0       0       0       0       0       0       0       0       0       0       
      +0       0       0       0       0
  8634 ;;      Locals:         0       0       0       0       0       0       0       0       0       0       0       0       
      +0       0       0       0       0
  8635 ;;      Temps:          2       0       0       0       0       0       0       0       0       0       0       0       
      +0       0       0       0       0
  8636 ;;      Totals:         2       0       0       0       0       0       0       0       0       0       0       0       
      +0       0       0       0       0
  8637 ;;Total ram usage:        2 bytes
  8638 ;; Hardware stack levels used: 1
  8639 ;; Hardware stack levels required when called: 8
  8640 ;; This function calls:
  8641 ;;		_I2C_DO_ADDRESS_NACK
  8642 ;;		_I2C_DO_IDLE
  8643 ;;		_I2C_DO_RCEN
  8644 ;;		_I2C_DO_RESET
  8645 ;;		_I2C_DO_RX
  8646 ;;		_I2C_DO_RX_ACK
  8647 ;;		_I2C_DO_RX_NACK_RESTART
  8648 ;;		_I2C_DO_RX_NACK_STOP
  8649 ;;		_I2C_DO_SEND_ADR_READ
  8650 ;;		_I2C_DO_SEND_ADR_WRITE
  8651 ;;		_I2C_DO_SEND_RESTART
  8652 ;;		_I2C_DO_SEND_RESTART_READ
  8653 ;;		_I2C_DO_SEND_RESTART_WRITE
  8654 ;;		_I2C_DO_SEND_STOP
  8655 ;;		_I2C_DO_TX
  8656 ;;		_I2C_DO_TX_EMPTY
  8657 ;;		_I2C_MasterClearIrq
  8658 ;;		_I2C_MasterIsNack
  8659 ;; This function is called by:
  8660 ;;		_I2C_Poller
  8661 ;; This function uses a non-reentrant model
  8662 ;;
  8663                           
  8664                           	psect	text40
  8665  003CBC                     __ptext40:
  8666                           	callstack 0
  8667  003CBC                     _I2C_MasterFsm:
  8668                           	callstack 17
  8669  003CBC                     
  8670                           ;mcc_generated_files/i2c_master.c: 323:     I2C_MasterClearIrq();
  8671  003CBC  EC1D  F023         	call	_I2C_MasterClearIrq	;wreg free
  8672  003CC0                     
  8673                           ;mcc_generated_files/i2c_master.c: 325:     if(I2C_Status.addressNackCheck && I2C_Master
      +                          IsNack())
  8674  003CC0  0100               	movlb	0	; () banked
  8675  003CC2  A183               	btfss	(_I2C_Status+35)& (0+255),0,b
  8676  003CC4  EF66  F01E         	goto	u2981
  8677  003CC8  EF68  F01E         	goto	u2980
  8678  003CCC                     u2981:
  8679  003CCC  EF75  F01E         	goto	l4054
  8680  003CD0                     u2980:
  8681  003CD0                     
  8682                           ; BSR set to: 0
  8683  003CD0  EC78  F022         	call	_I2C_MasterIsNack	;wreg free
  8684  003CD4  0900               	iorlw	0
  8685  003CD6  B4D8               	btfsc	status,2,c
  8686  003CD8  EF70  F01E         	goto	u2991
  8687  003CDC  EF72  F01E         	goto	u2990
  8688  003CE0                     u2991:
  8689  003CE0  EF75  F01E         	goto	l4054
  8690  003CE4                     u2990:
  8691  003CE4                     
  8692                           ;mcc_generated_files/i2c_master.c: 326:     {;mcc_generated_files/i2c_master.c: 327:    
      +                               I2C_Status.state = I2C_ADDRESS_NACK;
  8693  003CE4  0E0F               	movlw	15
  8694  003CE6  0100               	movlb	0	; () banked
  8695  003CE8  6F81               	movwf	(_I2C_Status+33)& (0+255),b
  8696  003CEA                     l4054:
  8697                           
  8698                           ;mcc_generated_files/i2c_master.c: 329:     I2C_Status.state = fsmStateTable[I2C_Status.
      +                          state]();
  8699  003CEA  0100               	movlb	0	; () banked
  8700  003CEC  5181               	movf	(_I2C_Status+33)& (0+255),w,b
  8701  003CEE  0D02               	mullw	2
  8702  003CF0  0E01               	movlw	low _fsmStateTable
  8703  003CF2  24F3               	addwf	243,w,c
  8704  003CF4  6EF6               	movwf	tblptrl,c
  8705  003CF6  0E10               	movlw	high _fsmStateTable
  8706  003CF8  20F4               	addwfc	244,w,c
  8707  003CFA  6EF7               	movwf	tblptrh,c
  8708  003CFC                     	if	1	;There are 3 active tblptr bytes
  8709  003CFC  6AF8               	clrf	tblptru,c
  8710  003CFE  0E00               	movlw	low (__mediumconst shr (0+16))
  8711  003D00  22F8               	addwfc	tblptru,f,c
  8712  003D02                     	endif
  8713  003D02  0009               	tblrd		*+
  8714  003D04  CFF5 F012          	movff	tablat,??_I2C_MasterFsm
  8715  003D08  0009               	tblrd		*+
  8716  003D0A  CFF5 F013          	movff	tablat,??_I2C_MasterFsm+1
  8717  003D0E  D802               	call	u3008
  8718  003D10  EF93  F01E         	goto	u3009
  8719  003D14                     u3008:
  8720  003D14  0005               	push	
  8721  003D16  6EFA               	movwf	pclath,c
  8722  003D18  5012               	movf	??_I2C_MasterFsm^0,w,c
  8723  003D1A  6EFD               	movwf	tosl,c
  8724  003D1C  5013               	movf	(??_I2C_MasterFsm+1)^0,w,c
  8725  003D1E  6EFE               	movwf	tosh,c
  8726  003D20  6AFF               	clrf	tosu,c
  8727  003D22  50FA               	movf	pclath,w,c
  8728  003D24  0012               	return		;indir
  8729  003D26                     u3009:
  8730  003D26  0100               	movlb	0	; () banked
  8731  003D28  6F81               	movwf	(_I2C_Status+33)& (0+255),b
  8732  003D2A                     
  8733                           ; BSR set to: 0
  8734  003D2A  0012               	return		;funcret
  8735  003D2C                     __end_of_I2C_MasterFsm:
  8736                           	callstack 0
  8737                           
  8738 ;; *************** function _I2C_DO_ADDRESS_NACK *****************
  8739 ;; Defined at:
  8740 ;;		line 500 in file "mcc_generated_files/i2c_master.c"
  8741 ;; Parameters:    Size  Location     Type
  8742 ;;		None
  8743 ;; Auto vars:     Size  Location     Type
  8744 ;;		None
  8745 ;; Return value:  Size  Location     Type
  8746 ;;                  1    wreg      enum E3103
  8747 ;; Registers used:
  8748 ;;		wreg, fsr2l, fsr2h, status,2, status,0, pclath, tosl, prodl, prodh, cstack
  8749 ;; Tracked objects:
  8750 ;;		On entry : 0/0
  8751 ;;		On exit  : 0/0
  8752 ;;		Unchanged: 0/0
  8753 ;; Data sizes:     COMRAM   BANK0   BANK1   BANK2   BANK3   BANK4   BANK5   BANK6   BANK7   BANK8   BANK9  BANK10  BANK1
      +1  BANK12  BANK13  BANK14  BANK15
  8754 ;;      Params:         0       0       0       0       0       0       0       0       0       0       0       0       
      +0       0       0       0       0
  8755 ;;      Locals:         0       0       0       0       0       0       0       0       0       0       0       0       
      +0       0       0       0       0
  8756 ;;      Temps:          2       0       0       0       0       0       0       0       0       0       0       0       
      +0       0       0       0       0
  8757 ;;      Totals:         2       0       0       0       0       0       0       0       0       0       0       0       
      +0       0       0       0       0
  8758 ;;Total ram usage:        2 bytes
  8759 ;; Hardware stack levels used: 1
  8760 ;; Hardware stack levels required when called: 7
  8761 ;; This function calls:
  8762 ;;		Absolute function
  8763 ;;		_I2C_CallbackReturnReset
  8764 ;;		_I2C_CallbackReturnStop
  8765 ;;		_I2C_DO_SEND_RESTART
  8766 ;;		_I2C_DO_SEND_STOP
  8767 ;;		_rd1RegCompleteHandler
  8768 ;;		_rd2RegCompleteHandler
  8769 ;;		_rdBlkRegCompleteHandler
  8770 ;;		_wr1RegCompleteHandler
  8771 ;;		_wr2RegCompleteHandler
  8772 ;; This function is called by:
  8773 ;;		_I2C_MasterFsm
  8774 ;; This function uses a non-reentrant model
  8775 ;;
  8776                           
  8777                           	psect	text41
  8778  003E08                     __ptext41:
  8779                           	callstack 0
  8780  003E08                     _I2C_DO_ADDRESS_NACK:
  8781                           	callstack 17
  8782  003E08                     
  8783                           ;mcc_generated_files/i2c_master.c: 502:     I2C_Status.addressNackCheck = 0;
  8784  003E08  0100               	movlb	0	; () banked
  8785  003E0A  9183               	bcf	(_I2C_Status+35)& (0+255),0,b
  8786  003E0C                     
  8787                           ; BSR set to: 0
  8788                           ;mcc_generated_files/i2c_master.c: 503:     I2C_Status.error = I2C_FAIL;
  8789  003E0C  0E02               	movlw	2
  8790  003E0E  6F82               	movwf	(_I2C_Status+34)& (0+255),b
  8791                           
  8792                           ;mcc_generated_files/i2c_master.c: 504:     switch(I2C_Status.callbackTable[I2C_ADDR_NAC
      +                          K](I2C_Status.callbackPayload[I2C_ADDR_NACK]))
  8793  003E10  EF12  F01F         	goto	l4024
  8794  003E14                     l4014:
  8795                           
  8796                           ;mcc_generated_files/i2c_master.c: 508:             return I2C_DO_SEND_RESTART();
  8797  003E14  ECED  F022         	call	_I2C_DO_SEND_RESTART	;wreg free
  8798  003E18  EF36  F01F         	goto	l357
  8799  003E1C                     l4018:
  8800                           
  8801                           ;mcc_generated_files/i2c_master.c: 510:             return I2C_DO_SEND_STOP();
  8802  003E1C  ECE9  F022         	call	_I2C_DO_SEND_STOP	;wreg free
  8803  003E20  EF36  F01F         	goto	l357
  8804  003E24                     l4024:
  8805                           
  8806                           ; BSR set to: 0
  8807  003E24  C070  F00E         	movff	_I2C_Status+16,I2C_CallbackReturnReset@funPtr
  8808  003E28  C071  F00F         	movff	_I2C_Status+17,I2C_CallbackReturnReset@funPtr+1
  8809  003E2C  D802               	call	u2928
  8810  003E2E  EF22  F01F         	goto	u2929
  8811  003E32                     u2928:
  8812  003E32  0005               	push	
  8813  003E34  6EFA               	movwf	pclath,c
  8814  003E36  5164               	movf	(_I2C_Status+4)& (0+255),w,b
  8815  003E38  6EFD               	movwf	tosl,c
  8816  003E3A  5165               	movf	(_I2C_Status+5)& (0+255),w,b
  8817  003E3C  6EFE               	movwf	tosh,c
  8818  003E3E  6AFF               	clrf	tosu,c
  8819  003E40  50FA               	movf	pclath,w,c
  8820  003E42  0012               	return		;indir
  8821  003E44                     u2929:
  8822  003E44  6E10               	movwf	??_I2C_DO_ADDRESS_NACK^0,c
  8823  003E46  6A11               	clrf	(??_I2C_DO_ADDRESS_NACK+1)^0,c
  8824                           
  8825                           ; Switch on 2 bytes has been partitioned into a top level switch of size 1, and 1 sub-sw
      +                          itches
  8826                           ; Switch size 1, requested type "simple"
  8827                           ; Number of cases is 1, Range of values is 0 to 0
  8828                           ; switch strategies available:
  8829                           ; Name         Instructions Cycles
  8830                           ; simple_byte            4     3 (average)
  8831                           ;	Chosen strategy is simple_byte
  8832  003E48  5011               	movf	(??_I2C_DO_ADDRESS_NACK+1)^0,w,c
  8833  003E4A  0A00               	xorlw	0	; case 0
  8834  003E4C  B4D8               	btfsc	status,2,c
  8835  003E4E  EF2B  F01F         	goto	l7096
  8836  003E52  EF0E  F01F         	goto	l4018
  8837  003E56                     l7096:
  8838                           
  8839                           ; Switch size 1, requested type "simple"
  8840                           ; Number of cases is 2, Range of values is 2 to 3
  8841                           ; switch strategies available:
  8842                           ; Name         Instructions Cycles
  8843                           ; simple_byte            7     4 (average)
  8844                           ;	Chosen strategy is simple_byte
  8845  003E56  5010               	movf	??_I2C_DO_ADDRESS_NACK^0,w,c
  8846  003E58  0A02               	xorlw	2	; case 2
  8847  003E5A  B4D8               	btfsc	status,2,c
  8848  003E5C  EF0A  F01F         	goto	l4014
  8849  003E60  0A01               	xorlw	1	; case 3
  8850  003E62  B4D8               	btfsc	status,2,c
  8851  003E64  EF0A  F01F         	goto	l4014
  8852  003E68  EF0E  F01F         	goto	l4018
  8853  003E6C                     l357:
  8854  003E6C  0012               	return		;funcret
  8855  003E6E                     __end_of_I2C_DO_ADDRESS_NACK:
  8856                           	callstack 0
  8857                           
  8858 ;; *************** function _I2C_DO_RESET *****************
  8859 ;; Defined at:
  8860 ;;		line 494 in file "mcc_generated_files/i2c_master.c"
  8861 ;; Parameters:    Size  Location     Type
  8862 ;;		None
  8863 ;; Auto vars:     Size  Location     Type
  8864 ;;		None
  8865 ;; Return value:  Size  Location     Type
  8866 ;;                  1    wreg      enum E3103
  8867 ;; Registers used:
  8868 ;;		wreg, status,2
  8869 ;; Tracked objects:
  8870 ;;		On entry : 0/0
  8871 ;;		On exit  : 0/0
  8872 ;;		Unchanged: 0/0
  8873 ;; Data sizes:     COMRAM   BANK0   BANK1   BANK2   BANK3   BANK4   BANK5   BANK6   BANK7   BANK8   BANK9  BANK10  BANK1
      +1  BANK12  BANK13  BANK14  BANK15
  8874 ;;      Params:         0       0       0       0       0       0       0       0       0       0       0       0       
      +0       0       0       0       0
  8875 ;;      Locals:         0       0       0       0       0       0       0       0       0       0       0       0       
      +0       0       0       0       0
  8876 ;;      Temps:          0       0       0       0       0       0       0       0       0       0       0       0       
      +0       0       0       0       0
  8877 ;;      Totals:         0       0       0       0       0       0       0       0       0       0       0       0       
      +0       0       0       0       0
  8878 ;;Total ram usage:        0 bytes
  8879 ;; Hardware stack levels used: 1
  8880 ;; Hardware stack levels required when called: 4
  8881 ;; This function calls:
  8882 ;;		Nothing
  8883 ;; This function is called by:
  8884 ;;		_I2C_MasterFsm
  8885 ;; This function uses a non-reentrant model
  8886 ;;
  8887                           
  8888                           	psect	text42
  8889  004548                     __ptext42:
  8890                           	callstack 0
  8891  004548                     _I2C_DO_RESET:
  8892                           	callstack 20
  8893  004548                     
  8894                           ;mcc_generated_files/i2c_master.c: 496:     I2C_Status.busy = 0;
  8895  004548  0100               	movlb	0	; () banked
  8896  00454A  9383               	bcf	(_I2C_Status+35)& (0+255),1,b
  8897  00454C                     
  8898                           ; BSR set to: 0
  8899                           ;mcc_generated_files/i2c_master.c: 497:     I2C_Status.error = I2C_NOERR;
  8900  00454C  0E00               	movlw	0
  8901  00454E  6F82               	movwf	(_I2C_Status+34)& (0+255),b
  8902  004550                     
  8903                           ; BSR set to: 0
  8904                           ;mcc_generated_files/i2c_master.c: 498:     return I2C_RESET;
  8905  004550  0E0E               	movlw	14
  8906  004552                     
  8907                           ; BSR set to: 0
  8908  004552  0012               	return		;funcret
  8909  004554                     __end_of_I2C_DO_RESET:
  8910                           	callstack 0
  8911                           
  8912 ;; *************** function _I2C_DO_RX_NACK_RESTART *****************
  8913 ;; Defined at:
  8914 ;;		line 488 in file "mcc_generated_files/i2c_master.c"
  8915 ;; Parameters:    Size  Location     Type
  8916 ;;		None
  8917 ;; Auto vars:     Size  Location     Type
  8918 ;;		None
  8919 ;; Return value:  Size  Location     Type
  8920 ;;                  1    wreg      enum E3103
  8921 ;; Registers used:
  8922 ;;		wreg, cstack
  8923 ;; Tracked objects:
  8924 ;;		On entry : 0/0
  8925 ;;		On exit  : 0/0
  8926 ;;		Unchanged: 0/0
  8927 ;; Data sizes:     COMRAM   BANK0   BANK1   BANK2   BANK3   BANK4   BANK5   BANK6   BANK7   BANK8   BANK9  BANK10  BANK1
      +1  BANK12  BANK13  BANK14  BANK15
  8928 ;;      Params:         0       0       0       0       0       0       0       0       0       0       0       0       
      +0       0       0       0       0
  8929 ;;      Locals:         0       0       0       0       0       0       0       0       0       0       0       0       
      +0       0       0       0       0
  8930 ;;      Temps:          0       0       0       0       0       0       0       0       0       0       0       0       
      +0       0       0       0       0
  8931 ;;      Totals:         0       0       0       0       0       0       0       0       0       0       0       0       
      +0       0       0       0       0
  8932 ;;Total ram usage:        0 bytes
  8933 ;; Hardware stack levels used: 1
  8934 ;; Hardware stack levels required when called: 5
  8935 ;; This function calls:
  8936 ;;		_I2C_MasterSendNack
  8937 ;; This function is called by:
  8938 ;;		_I2C_DO_RX
  8939 ;;		_I2C_MasterFsm
  8940 ;; This function uses a non-reentrant model
  8941 ;;
  8942                           
  8943                           	psect	text43
  8944  0045BA                     __ptext43:
  8945                           	callstack 0
  8946  0045BA                     _I2C_DO_RX_NACK_RESTART:
  8947                           	callstack 19
  8948  0045BA                     
  8949                           ;mcc_generated_files/i2c_master.c: 490:     I2C_MasterSendNack();
  8950  0045BA  EC00  F023         	call	_I2C_MasterSendNack	;wreg free
  8951  0045BE                     
  8952                           ;mcc_generated_files/i2c_master.c: 491:     return I2C_SEND_RESTART;
  8953  0045BE  0E09               	movlw	9
  8954  0045C0  0012               	return		;funcret
  8955  0045C2                     __end_of_I2C_DO_RX_NACK_RESTART:
  8956                           	callstack 0
  8957                           
  8958 ;; *************** function _I2C_DO_RX_NACK_STOP *****************
  8959 ;; Defined at:
  8960 ;;		line 482 in file "mcc_generated_files/i2c_master.c"
  8961 ;; Parameters:    Size  Location     Type
  8962 ;;		None
  8963 ;; Auto vars:     Size  Location     Type
  8964 ;;		None
  8965 ;; Return value:  Size  Location     Type
  8966 ;;                  1    wreg      enum E3103
  8967 ;; Registers used:
  8968 ;;		wreg, cstack
  8969 ;; Tracked objects:
  8970 ;;		On entry : 0/0
  8971 ;;		On exit  : 0/0
  8972 ;;		Unchanged: 0/0
  8973 ;; Data sizes:     COMRAM   BANK0   BANK1   BANK2   BANK3   BANK4   BANK5   BANK6   BANK7   BANK8   BANK9  BANK10  BANK1
      +1  BANK12  BANK13  BANK14  BANK15
  8974 ;;      Params:         0       0       0       0       0       0       0       0       0       0       0       0       
      +0       0       0       0       0
  8975 ;;      Locals:         0       0       0       0       0       0       0       0       0       0       0       0       
      +0       0       0       0       0
  8976 ;;      Temps:          0       0       0       0       0       0       0       0       0       0       0       0       
      +0       0       0       0       0
  8977 ;;      Totals:         0       0       0       0       0       0       0       0       0       0       0       0       
      +0       0       0       0       0
  8978 ;;Total ram usage:        0 bytes
  8979 ;; Hardware stack levels used: 1
  8980 ;; Hardware stack levels required when called: 5
  8981 ;; This function calls:
  8982 ;;		_I2C_MasterSendNack
  8983 ;; This function is called by:
  8984 ;;		_I2C_DO_RX
  8985 ;;		_I2C_MasterFsm
  8986 ;; This function uses a non-reentrant model
  8987 ;;
  8988                           
  8989                           	psect	text44
  8990  0045C2                     __ptext44:
  8991                           	callstack 0
  8992  0045C2                     _I2C_DO_RX_NACK_STOP:
  8993                           	callstack 19
  8994  0045C2                     
  8995                           ;mcc_generated_files/i2c_master.c: 484:     I2C_MasterSendNack();
  8996  0045C2  EC00  F023         	call	_I2C_MasterSendNack	;wreg free
  8997  0045C6                     
  8998                           ;mcc_generated_files/i2c_master.c: 485:     return I2C_SEND_STOP;
  8999  0045C6  0E0A               	movlw	10
  9000  0045C8  0012               	return		;funcret
  9001  0045CA                     __end_of_I2C_DO_RX_NACK_STOP:
  9002                           	callstack 0
  9003                           
  9004 ;; *************** function _I2C_DO_RX_ACK *****************
  9005 ;; Defined at:
  9006 ;;		line 475 in file "mcc_generated_files/i2c_master.c"
  9007 ;; Parameters:    Size  Location     Type
  9008 ;;		None
  9009 ;; Auto vars:     Size  Location     Type
  9010 ;;		None
  9011 ;; Return value:  Size  Location     Type
  9012 ;;                  1    wreg      enum E3103
  9013 ;; Registers used:
  9014 ;;		wreg, cstack
  9015 ;; Tracked objects:
  9016 ;;		On entry : 0/0
  9017 ;;		On exit  : 0/0
  9018 ;;		Unchanged: 0/0
  9019 ;; Data sizes:     COMRAM   BANK0   BANK1   BANK2   BANK3   BANK4   BANK5   BANK6   BANK7   BANK8   BANK9  BANK10  BANK1
      +1  BANK12  BANK13  BANK14  BANK15
  9020 ;;      Params:         0       0       0       0       0       0       0       0       0       0       0       0       
      +0       0       0       0       0
  9021 ;;      Locals:         0       0       0       0       0       0       0       0       0       0       0       0       
      +0       0       0       0       0
  9022 ;;      Temps:          0       0       0       0       0       0       0       0       0       0       0       0       
      +0       0       0       0       0
  9023 ;;      Totals:         0       0       0       0       0       0       0       0       0       0       0       0       
      +0       0       0       0       0
  9024 ;;Total ram usage:        0 bytes
  9025 ;; Hardware stack levels used: 1
  9026 ;; Hardware stack levels required when called: 5
  9027 ;; This function calls:
  9028 ;;		_I2C_MasterSendAck
  9029 ;; This function is called by:
  9030 ;;		_I2C_MasterFsm
  9031 ;; This function uses a non-reentrant model
  9032 ;;
  9033                           
  9034                           	psect	text45
  9035  0045CA                     __ptext45:
  9036                           	callstack 0
  9037  0045CA                     _I2C_DO_RX_ACK:
  9038                           	callstack 19
  9039  0045CA                     
  9040                           ;mcc_generated_files/i2c_master.c: 477:     I2C_MasterSendAck();
  9041  0045CA  ECFD  F022         	call	_I2C_MasterSendAck	;wreg free
  9042  0045CE                     
  9043                           ;mcc_generated_files/i2c_master.c: 478:     return I2C_RCEN;
  9044  0045CE  0E05               	movlw	5
  9045  0045D0  0012               	return		;funcret
  9046  0045D2                     __end_of_I2C_DO_RX_ACK:
  9047                           	callstack 0
  9048                           
  9049 ;; *************** function _I2C_DO_SEND_STOP *****************
  9050 ;; Defined at:
  9051 ;;		line 469 in file "mcc_generated_files/i2c_master.c"
  9052 ;; Parameters:    Size  Location     Type
  9053 ;;		None
  9054 ;; Auto vars:     Size  Location     Type
  9055 ;;		None
  9056 ;; Return value:  Size  Location     Type
  9057 ;;                  1    wreg      enum E3103
  9058 ;; Registers used:
  9059 ;;		wreg, cstack
  9060 ;; Tracked objects:
  9061 ;;		On entry : 0/0
  9062 ;;		On exit  : 0/0
  9063 ;;		Unchanged: 0/0
  9064 ;; Data sizes:     COMRAM   BANK0   BANK1   BANK2   BANK3   BANK4   BANK5   BANK6   BANK7   BANK8   BANK9  BANK10  BANK1
      +1  BANK12  BANK13  BANK14  BANK15
  9065 ;;      Params:         0       0       0       0       0       0       0       0       0       0       0       0       
      +0       0       0       0       0
  9066 ;;      Locals:         0       0       0       0       0       0       0       0       0       0       0       0       
      +0       0       0       0       0
  9067 ;;      Temps:          0       0       0       0       0       0       0       0       0       0       0       0       
      +0       0       0       0       0
  9068 ;;      Totals:         0       0       0       0       0       0       0       0       0       0       0       0       
      +0       0       0       0       0
  9069 ;;Total ram usage:        0 bytes
  9070 ;; Hardware stack levels used: 1
  9071 ;; Hardware stack levels required when called: 5
  9072 ;; This function calls:
  9073 ;;		_I2C_MasterStop
  9074 ;; This function is called by:
  9075 ;;		_I2C_DO_TX
  9076 ;;		_I2C_DO_TX_EMPTY
  9077 ;;		_I2C_DO_ADDRESS_NACK
  9078 ;;		_I2C_MasterFsm
  9079 ;; This function uses a non-reentrant model
  9080 ;;
  9081                           
  9082                           	psect	text46
  9083  0045D2                     __ptext46:
  9084                           	callstack 0
  9085  0045D2                     _I2C_DO_SEND_STOP:
  9086                           	callstack 18
  9087  0045D2                     
  9088                           ;mcc_generated_files/i2c_master.c: 471:     I2C_MasterStop();
  9089  0045D2  EC13  F023         	call	_I2C_MasterStop	;wreg free
  9090  0045D6                     
  9091                           ;mcc_generated_files/i2c_master.c: 472:     return I2C_IDLE;
  9092  0045D6  0E00               	movlw	0
  9093  0045D8  0012               	return		;funcret
  9094  0045DA                     __end_of_I2C_DO_SEND_STOP:
  9095                           	callstack 0
  9096                           
  9097 ;; *************** function _I2C_DO_SEND_RESTART *****************
  9098 ;; Defined at:
  9099 ;;		line 463 in file "mcc_generated_files/i2c_master.c"
  9100 ;; Parameters:    Size  Location     Type
  9101 ;;		None
  9102 ;; Auto vars:     Size  Location     Type
  9103 ;;		None
  9104 ;; Return value:  Size  Location     Type
  9105 ;;                  1    wreg      enum E3103
  9106 ;; Registers used:
  9107 ;;		wreg, cstack
  9108 ;; Tracked objects:
  9109 ;;		On entry : 0/0
  9110 ;;		On exit  : 0/0
  9111 ;;		Unchanged: 0/0
  9112 ;; Data sizes:     COMRAM   BANK0   BANK1   BANK2   BANK3   BANK4   BANK5   BANK6   BANK7   BANK8   BANK9  BANK10  BANK1
      +1  BANK12  BANK13  BANK14  BANK15
  9113 ;;      Params:         0       0       0       0       0       0       0       0       0       0       0       0       
      +0       0       0       0       0
  9114 ;;      Locals:         0       0       0       0       0       0       0       0       0       0       0       0       
      +0       0       0       0       0
  9115 ;;      Temps:          0       0       0       0       0       0       0       0       0       0       0       0       
      +0       0       0       0       0
  9116 ;;      Totals:         0       0       0       0       0       0       0       0       0       0       0       0       
      +0       0       0       0       0
  9117 ;;Total ram usage:        0 bytes
  9118 ;; Hardware stack levels used: 1
  9119 ;; Hardware stack levels required when called: 5
  9120 ;; This function calls:
  9121 ;;		_I2C_MasterEnableRestart
  9122 ;; This function is called by:
  9123 ;;		_I2C_DO_TX_EMPTY
  9124 ;;		_I2C_DO_ADDRESS_NACK
  9125 ;;		_I2C_MasterFsm
  9126 ;; This function uses a non-reentrant model
  9127 ;;
  9128                           
  9129                           	psect	text47
  9130  0045DA                     __ptext47:
  9131                           	callstack 0
  9132  0045DA                     _I2C_DO_SEND_RESTART:
  9133                           	callstack 18
  9134  0045DA                     
  9135                           ;mcc_generated_files/i2c_master.c: 465:     I2C_MasterEnableRestart();
  9136  0045DA  EC15  F023         	call	_I2C_MasterEnableRestart	;wreg free
  9137  0045DE                     
  9138                           ;mcc_generated_files/i2c_master.c: 466:     return I2C_SEND_ADR_READ;
  9139  0045DE  0E01               	movlw	1
  9140  0045E0  0012               	return		;funcret
  9141  0045E2                     __end_of_I2C_DO_SEND_RESTART:
  9142                           	callstack 0
  9143                           
  9144 ;; *************** function _I2C_DO_SEND_RESTART_WRITE *****************
  9145 ;; Defined at:
  9146 ;;		line 456 in file "mcc_generated_files/i2c_master.c"
  9147 ;; Parameters:    Size  Location     Type
  9148 ;;		None
  9149 ;; Auto vars:     Size  Location     Type
  9150 ;;		None
  9151 ;; Return value:  Size  Location     Type
  9152 ;;                  1    wreg      enum E3103
  9153 ;; Registers used:
  9154 ;;		wreg, cstack
  9155 ;; Tracked objects:
  9156 ;;		On entry : 0/0
  9157 ;;		On exit  : 0/0
  9158 ;;		Unchanged: 0/0
  9159 ;; Data sizes:     COMRAM   BANK0   BANK1   BANK2   BANK3   BANK4   BANK5   BANK6   BANK7   BANK8   BANK9  BANK10  BANK1
      +1  BANK12  BANK13  BANK14  BANK15
  9160 ;;      Params:         0       0       0       0       0       0       0       0       0       0       0       0       
      +0       0       0       0       0
  9161 ;;      Locals:         0       0       0       0       0       0       0       0       0       0       0       0       
      +0       0       0       0       0
  9162 ;;      Temps:          0       0       0       0       0       0       0       0       0       0       0       0       
      +0       0       0       0       0
  9163 ;;      Totals:         0       0       0       0       0       0       0       0       0       0       0       0       
      +0       0       0       0       0
  9164 ;;Total ram usage:        0 bytes
  9165 ;; Hardware stack levels used: 1
  9166 ;; Hardware stack levels required when called: 5
  9167 ;; This function calls:
  9168 ;;		_I2C_MasterEnableRestart
  9169 ;; This function is called by:
  9170 ;;		_I2C_DO_TX
  9171 ;;		_I2C_MasterFsm
  9172 ;; This function uses a non-reentrant model
  9173 ;;
  9174                           
  9175                           	psect	text48
  9176  0045E2                     __ptext48:
  9177                           	callstack 0
  9178  0045E2                     _I2C_DO_SEND_RESTART_WRITE:
  9179                           	callstack 18
  9180  0045E2                     
  9181                           ;mcc_generated_files/i2c_master.c: 458:     I2C_MasterEnableRestart();
  9182  0045E2  EC15  F023         	call	_I2C_MasterEnableRestart	;wreg free
  9183  0045E6                     
  9184                           ;mcc_generated_files/i2c_master.c: 459:     return I2C_SEND_ADR_WRITE;
  9185  0045E6  0E02               	movlw	2
  9186  0045E8  0012               	return		;funcret
  9187  0045EA                     __end_of_I2C_DO_SEND_RESTART_WRITE:
  9188                           	callstack 0
  9189                           
  9190 ;; *************** function _I2C_DO_SEND_RESTART_READ *****************
  9191 ;; Defined at:
  9192 ;;		line 450 in file "mcc_generated_files/i2c_master.c"
  9193 ;; Parameters:    Size  Location     Type
  9194 ;;		None
  9195 ;; Auto vars:     Size  Location     Type
  9196 ;;		None
  9197 ;; Return value:  Size  Location     Type
  9198 ;;                  1    wreg      enum E3103
  9199 ;; Registers used:
  9200 ;;		wreg, cstack
  9201 ;; Tracked objects:
  9202 ;;		On entry : 0/0
  9203 ;;		On exit  : 0/0
  9204 ;;		Unchanged: 0/0
  9205 ;; Data sizes:     COMRAM   BANK0   BANK1   BANK2   BANK3   BANK4   BANK5   BANK6   BANK7   BANK8   BANK9  BANK10  BANK1
      +1  BANK12  BANK13  BANK14  BANK15
  9206 ;;      Params:         0       0       0       0       0       0       0       0       0       0       0       0       
      +0       0       0       0       0
  9207 ;;      Locals:         0       0       0       0       0       0       0       0       0       0       0       0       
      +0       0       0       0       0
  9208 ;;      Temps:          0       0       0       0       0       0       0       0       0       0       0       0       
      +0       0       0       0       0
  9209 ;;      Totals:         0       0       0       0       0       0       0       0       0       0       0       0       
      +0       0       0       0       0
  9210 ;;Total ram usage:        0 bytes
  9211 ;; Hardware stack levels used: 1
  9212 ;; Hardware stack levels required when called: 5
  9213 ;; This function calls:
  9214 ;;		_I2C_MasterEnableRestart
  9215 ;; This function is called by:
  9216 ;;		_I2C_DO_TX
  9217 ;;		_I2C_MasterFsm
  9218 ;; This function uses a non-reentrant model
  9219 ;;
  9220                           
  9221                           	psect	text49
  9222  0045EA                     __ptext49:
  9223                           	callstack 0
  9224  0045EA                     _I2C_DO_SEND_RESTART_READ:
  9225                           	callstack 18
  9226  0045EA                     
  9227                           ;mcc_generated_files/i2c_master.c: 452:     I2C_MasterEnableRestart();
  9228  0045EA  EC15  F023         	call	_I2C_MasterEnableRestart	;wreg free
  9229  0045EE                     
  9230                           ;mcc_generated_files/i2c_master.c: 453:     return I2C_SEND_ADR_READ;
  9231  0045EE  0E01               	movlw	1
  9232  0045F0  0012               	return		;funcret
  9233  0045F2                     __end_of_I2C_DO_SEND_RESTART_READ:
  9234                           	callstack 0
  9235                           
  9236 ;; *************** function _I2C_DO_RCEN *****************
  9237 ;; Defined at:
  9238 ;;		line 402 in file "mcc_generated_files/i2c_master.c"
  9239 ;; Parameters:    Size  Location     Type
  9240 ;;		None
  9241 ;; Auto vars:     Size  Location     Type
  9242 ;;		None
  9243 ;; Return value:  Size  Location     Type
  9244 ;;                  1    wreg      enum E3103
  9245 ;; Registers used:
  9246 ;;		wreg, cstack
  9247 ;; Tracked objects:
  9248 ;;		On entry : 0/0
  9249 ;;		On exit  : 0/0
  9250 ;;		Unchanged: 0/0
  9251 ;; Data sizes:     COMRAM   BANK0   BANK1   BANK2   BANK3   BANK4   BANK5   BANK6   BANK7   BANK8   BANK9  BANK10  BANK1
      +1  BANK12  BANK13  BANK14  BANK15
  9252 ;;      Params:         0       0       0       0       0       0       0       0       0       0       0       0       
      +0       0       0       0       0
  9253 ;;      Locals:         0       0       0       0       0       0       0       0       0       0       0       0       
      +0       0       0       0       0
  9254 ;;      Temps:          0       0       0       0       0       0       0       0       0       0       0       0       
      +0       0       0       0       0
  9255 ;;      Totals:         0       0       0       0       0       0       0       0       0       0       0       0       
      +0       0       0       0       0
  9256 ;;Total ram usage:        0 bytes
  9257 ;; Hardware stack levels used: 1
  9258 ;; Hardware stack levels required when called: 5
  9259 ;; This function calls:
  9260 ;;		_I2C_MasterStartRx
  9261 ;; This function is called by:
  9262 ;;		_I2C_MasterFsm
  9263 ;; This function uses a non-reentrant model
  9264 ;;
  9265                           
  9266                           	psect	text50
  9267  004554                     __ptext50:
  9268                           	callstack 0
  9269  004554                     _I2C_DO_RCEN:
  9270                           	callstack 19
  9271  004554                     
  9272                           ;mcc_generated_files/i2c_master.c: 404:     I2C_Status.addressNackCheck = 0;
  9273  004554  0100               	movlb	0	; () banked
  9274  004556  9183               	bcf	(_I2C_Status+35)& (0+255),0,b
  9275  004558                     
  9276                           ; BSR set to: 0
  9277                           ;mcc_generated_files/i2c_master.c: 405:     I2C_MasterStartRx();
  9278  004558  EC0D  F023         	call	_I2C_MasterStartRx	;wreg free
  9279  00455C                     
  9280                           ;mcc_generated_files/i2c_master.c: 406:     return I2C_RX;
  9281  00455C  0E04               	movlw	4
  9282  00455E  0012               	return		;funcret
  9283  004560                     __end_of_I2C_DO_RCEN:
  9284                           	callstack 0
  9285                           
  9286 ;; *************** function _I2C_DO_RX *****************
  9287 ;; Defined at:
  9288 ;;		line 378 in file "mcc_generated_files/i2c_master.c"
  9289 ;; Parameters:    Size  Location     Type
  9290 ;;		None
  9291 ;; Auto vars:     Size  Location     Type
  9292 ;;		None
  9293 ;; Return value:  Size  Location     Type
  9294 ;;                  1    wreg      enum E3103
  9295 ;; Registers used:
  9296 ;;		wreg, fsr2l, fsr2h, status,2, status,0, pclath, tosl, prodl, prodh, cstack
  9297 ;; Tracked objects:
  9298 ;;		On entry : 0/0
  9299 ;;		On exit  : 0/0
  9300 ;;		Unchanged: 0/0
  9301 ;; Data sizes:     COMRAM   BANK0   BANK1   BANK2   BANK3   BANK4   BANK5   BANK6   BANK7   BANK8   BANK9  BANK10  BANK1
      +1  BANK12  BANK13  BANK14  BANK15
  9302 ;;      Params:         0       0       0       0       0       0       0       0       0       0       0       0       
      +0       0       0       0       0
  9303 ;;      Locals:         0       0       0       0       0       0       0       0       0       0       0       0       
      +0       0       0       0       0
  9304 ;;      Temps:          2       0       0       0       0       0       0       0       0       0       0       0       
      +0       0       0       0       0
  9305 ;;      Totals:         2       0       0       0       0       0       0       0       0       0       0       0       
      +0       0       0       0       0
  9306 ;;Total ram usage:        2 bytes
  9307 ;; Hardware stack levels used: 1
  9308 ;; Hardware stack levels required when called: 7
  9309 ;; This function calls:
  9310 ;;		Absolute function
  9311 ;;		_I2C_CallbackReturnReset
  9312 ;;		_I2C_CallbackReturnStop
  9313 ;;		_I2C_DO_RX_NACK_RESTART
  9314 ;;		_I2C_DO_RX_NACK_STOP
  9315 ;;		_I2C_MasterGetRxData
  9316 ;;		_I2C_MasterSendAck
  9317 ;;		_rd1RegCompleteHandler
  9318 ;;		_rd2RegCompleteHandler
  9319 ;;		_rdBlkRegCompleteHandler
  9320 ;;		_wr1RegCompleteHandler
  9321 ;;		_wr2RegCompleteHandler
  9322 ;; This function is called by:
  9323 ;;		_I2C_MasterFsm
  9324 ;; This function uses a non-reentrant model
  9325 ;;
  9326                           
  9327                           	psect	text51
  9328  003900                     __ptext51:
  9329                           	callstack 0
  9330  003900                     _I2C_DO_RX:
  9331                           	callstack 17
  9332  003900                     
  9333                           ;mcc_generated_files/i2c_master.c: 380:     *I2C_Status.data_ptr++ = I2C_MasterGetRxData
      +                          ();
  9334  003900  EC0B  F023         	call	_I2C_MasterGetRxData	;wreg free
  9335  003904  C07D  FFD9         	movff	_I2C_Status+29,fsr2l
  9336  003908  C07E  FFDA         	movff	_I2C_Status+30,fsr2h
  9337  00390C  6EDF               	movwf	indf2,c
  9338  00390E  0100               	movlb	0	; () banked
  9339  003910  4B7D               	infsnz	(_I2C_Status+29)& (0+255),f,b
  9340  003912  2B7E               	incf	(_I2C_Status+30)& (0+255),f,b
  9341  003914                     
  9342                           ; BSR set to: 0
  9343                           ;mcc_generated_files/i2c_master.c: 381:     if(--I2C_Status.data_length)
  9344  003914  077F               	decf	(_I2C_Status+31)& (0+255),f,b
  9345  003916  A0D8               	btfss	status,0,c
  9346  003918  0780               	decf	(_I2C_Status+32)& (0+255),f,b
  9347  00391A  517F               	movf	(_I2C_Status+31)& (0+255),w,b
  9348  00391C  1180               	iorwf	(_I2C_Status+32)& (0+255),w,b
  9349  00391E  B4D8               	btfsc	status,2,c
  9350  003920  EF94  F01C         	goto	u2891
  9351  003924  EF96  F01C         	goto	u2890
  9352  003928                     u2891:
  9353  003928  EF9B  F01C         	goto	l294
  9354  00392C                     u2890:
  9355  00392C                     
  9356                           ; BSR set to: 0
  9357                           ;mcc_generated_files/i2c_master.c: 382:     {;mcc_generated_files/i2c_master.c: 383:    
      +                               I2C_MasterSendAck();
  9358  00392C  ECFD  F022         	call	_I2C_MasterSendAck	;wreg free
  9359  003930                     
  9360                           ;mcc_generated_files/i2c_master.c: 384:         return I2C_RCEN;
  9361  003930  0E05               	movlw	5
  9362  003932  EFD2  F01C         	goto	l295
  9363  003936                     l294:
  9364                           
  9365                           ; BSR set to: 0
  9366                           ;mcc_generated_files/i2c_master.c: 387:     {;mcc_generated_files/i2c_master.c: 388:    
      +                               I2C_Status.bufferFree = 1;
  9367  003936  8783               	bsf	(_I2C_Status+35)& (0+255),3,b
  9368                           
  9369                           ;mcc_generated_files/i2c_master.c: 389:         switch(I2C_Status.callbackTable[I2C_DATA
      +                          _COMPLETE](I2C_Status.callbackPayload[I2C_DATA_COMPLETE]))
  9370  003938  EFA6  F01C         	goto	l3958
  9371  00393C                     l3948:
  9372                           
  9373                           ;mcc_generated_files/i2c_master.c: 393:                 return I2C_DO_RX_NACK_RESTART();
  9374  00393C  ECDD  F022         	call	_I2C_DO_RX_NACK_RESTART	;wreg free
  9375  003940  EFD2  F01C         	goto	l295
  9376  003944                     l3952:
  9377                           
  9378                           ;mcc_generated_files/i2c_master.c: 397:                 return I2C_DO_RX_NACK_STOP();
  9379  003944  ECE1  F022         	call	_I2C_DO_RX_NACK_STOP	;wreg free
  9380  003948  EFD2  F01C         	goto	l295
  9381  00394C                     l3958:
  9382                           
  9383                           ; BSR set to: 0
  9384  00394C  C06C  F00E         	movff	_I2C_Status+12,I2C_CallbackReturnReset@funPtr
  9385  003950  C06D  F00F         	movff	_I2C_Status+13,I2C_CallbackReturnReset@funPtr+1
  9386  003954  D802               	call	u2908
  9387  003956  EFB6  F01C         	goto	u2909
  9388  00395A                     u2908:
  9389  00395A  0005               	push	
  9390  00395C  6EFA               	movwf	pclath,c
  9391  00395E  5160               	movf	_I2C_Status& (0+255),w,b
  9392  003960  6EFD               	movwf	tosl,c
  9393  003962  5161               	movf	(_I2C_Status+1)& (0+255),w,b
  9394  003964  6EFE               	movwf	tosh,c
  9395  003966  6AFF               	clrf	tosu,c
  9396  003968  50FA               	movf	pclath,w,c
  9397  00396A  0012               	return		;indir
  9398  00396C                     u2909:
  9399  00396C  6E10               	movwf	??_I2C_DO_RX^0,c
  9400  00396E  6A11               	clrf	(??_I2C_DO_RX+1)^0,c
  9401                           
  9402                           ; Switch on 2 bytes has been partitioned into a top level switch of size 1, and 1 sub-sw
      +                          itches
  9403                           ; Switch size 1, requested type "simple"
  9404                           ; Number of cases is 1, Range of values is 0 to 0
  9405                           ; switch strategies available:
  9406                           ; Name         Instructions Cycles
  9407                           ; simple_byte            4     3 (average)
  9408                           ;	Chosen strategy is simple_byte
  9409  003970  5011               	movf	(??_I2C_DO_RX+1)^0,w,c
  9410  003972  0A00               	xorlw	0	; case 0
  9411  003974  B4D8               	btfsc	status,2,c
  9412  003976  EFBF  F01C         	goto	l7098
  9413  00397A  EFA2  F01C         	goto	l3952
  9414  00397E                     l7098:
  9415                           
  9416                           ; Switch size 1, requested type "simple"
  9417                           ; Number of cases is 4, Range of values is 1 to 4
  9418                           ; switch strategies available:
  9419                           ; Name         Instructions Cycles
  9420                           ; simple_byte           13     7 (average)
  9421                           ;	Chosen strategy is simple_byte
  9422  00397E  5010               	movf	??_I2C_DO_RX^0,w,c
  9423  003980  0A01               	xorlw	1	; case 1
  9424  003982  B4D8               	btfsc	status,2,c
  9425  003984  EFA2  F01C         	goto	l3952
  9426  003988  0A03               	xorlw	3	; case 2
  9427  00398A  B4D8               	btfsc	status,2,c
  9428  00398C  EF9E  F01C         	goto	l3948
  9429  003990  0A01               	xorlw	1	; case 3
  9430  003992  B4D8               	btfsc	status,2,c
  9431  003994  EF9E  F01C         	goto	l3948
  9432  003998  0A07               	xorlw	7	; case 4
  9433  00399A  B4D8               	btfsc	status,2,c
  9434  00399C  EFA2  F01C         	goto	l3952
  9435  0039A0  EFA2  F01C         	goto	l3952
  9436  0039A4                     l295:
  9437  0039A4  0012               	return		;funcret
  9438  0039A6                     __end_of_I2C_DO_RX:
  9439                           	callstack 0
  9440                           
  9441 ;; *************** function _I2C_DO_TX *****************
  9442 ;; Defined at:
  9443 ;;		line 354 in file "mcc_generated_files/i2c_master.c"
  9444 ;; Parameters:    Size  Location     Type
  9445 ;;		None
  9446 ;; Auto vars:     Size  Location     Type
  9447 ;;		None
  9448 ;; Return value:  Size  Location     Type
  9449 ;;                  1    wreg      enum E3103
  9450 ;; Registers used:
  9451 ;;		wreg, fsr2l, fsr2h, status,2, status,0, pclath, tosl, prodl, prodh, cstack
  9452 ;; Tracked objects:
  9453 ;;		On entry : 0/0
  9454 ;;		On exit  : 0/0
  9455 ;;		Unchanged: 0/0
  9456 ;; Data sizes:     COMRAM   BANK0   BANK1   BANK2   BANK3   BANK4   BANK5   BANK6   BANK7   BANK8   BANK9  BANK10  BANK1
      +1  BANK12  BANK13  BANK14  BANK15
  9457 ;;      Params:         0       0       0       0       0       0       0       0       0       0       0       0       
      +0       0       0       0       0
  9458 ;;      Locals:         0       0       0       0       0       0       0       0       0       0       0       0       
      +0       0       0       0       0
  9459 ;;      Temps:          2       0       0       0       0       0       0       0       0       0       0       0       
      +0       0       0       0       0
  9460 ;;      Totals:         2       0       0       0       0       0       0       0       0       0       0       0       
      +0       0       0       0       0
  9461 ;;Total ram usage:        2 bytes
  9462 ;; Hardware stack levels used: 1
  9463 ;; Hardware stack levels required when called: 7
  9464 ;; This function calls:
  9465 ;;		Absolute function
  9466 ;;		_I2C_CallbackReturnReset
  9467 ;;		_I2C_CallbackReturnStop
  9468 ;;		_I2C_DO_SEND_RESTART_READ
  9469 ;;		_I2C_DO_SEND_RESTART_WRITE
  9470 ;;		_I2C_DO_SEND_STOP
  9471 ;;		_I2C_MasterIsNack
  9472 ;;		_I2C_MasterSendTxData
  9473 ;;		_rd1RegCompleteHandler
  9474 ;;		_rd2RegCompleteHandler
  9475 ;;		_rdBlkRegCompleteHandler
  9476 ;;		_wr1RegCompleteHandler
  9477 ;;		_wr2RegCompleteHandler
  9478 ;; This function is called by:
  9479 ;;		_I2C_MasterFsm
  9480 ;; This function uses a non-reentrant model
  9481 ;;
  9482                           
  9483                           	psect	text52
  9484  003624                     __ptext52:
  9485                           	callstack 0
  9486  003624                     _I2C_DO_TX:
  9487                           	callstack 17
  9488  003624                     
  9489                           ;mcc_generated_files/i2c_master.c: 356:     if(I2C_MasterIsNack())
  9490  003624  EC78  F022         	call	_I2C_MasterIsNack	;wreg free
  9491  003628  0900               	iorlw	0
  9492  00362A  B4D8               	btfsc	status,2,c
  9493  00362C  EF1A  F01B         	goto	u2861
  9494  003630  EF1C  F01B         	goto	u2860
  9495  003634                     u2861:
  9496  003634  EF57  F01B         	goto	l278
  9497  003638                     u2860:
  9498  003638  EF2A  F01B         	goto	l3918
  9499  00363C                     l3904:
  9500                           
  9501                           ;mcc_generated_files/i2c_master.c: 361:                 return I2C_DO_SEND_RESTART_READ(
      +                          );
  9502  00363C  ECF5  F022         	call	_I2C_DO_SEND_RESTART_READ	;wreg free
  9503  003640  EF73  F01B         	goto	l281
  9504  003644                     l3908:
  9505                           
  9506                           ;mcc_generated_files/i2c_master.c: 363:                   return I2C_DO_SEND_RESTART_WRI
      +                          TE();
  9507  003644  ECF1  F022         	call	_I2C_DO_SEND_RESTART_WRITE	;wreg free
  9508  003648  EF73  F01B         	goto	l281
  9509  00364C                     l3912:
  9510                           
  9511                           ;mcc_generated_files/i2c_master.c: 367:                 return I2C_DO_SEND_STOP();
  9512  00364C  ECE9  F022         	call	_I2C_DO_SEND_STOP	;wreg free
  9513  003650  EF73  F01B         	goto	l281
  9514  003654                     l3918:
  9515  003654  C072  F00E         	movff	_I2C_Status+18,I2C_CallbackReturnReset@funPtr
  9516  003658  C073  F00F         	movff	_I2C_Status+19,I2C_CallbackReturnReset@funPtr+1
  9517  00365C  D802               	call	u2878
  9518  00365E  EF3B  F01B         	goto	u2879
  9519  003662                     u2878:
  9520  003662  0005               	push	
  9521  003664  6EFA               	movwf	pclath,c
  9522  003666  0100               	movlb	0	; () banked
  9523  003668  5166               	movf	(_I2C_Status+6)& (0+255),w,b
  9524  00366A  6EFD               	movwf	tosl,c
  9525  00366C  5167               	movf	(_I2C_Status+7)& (0+255),w,b
  9526  00366E  6EFE               	movwf	tosh,c
  9527  003670  6AFF               	clrf	tosu,c
  9528  003672  50FA               	movf	pclath,w,c
  9529  003674  0012               	return		;indir
  9530  003676                     u2879:
  9531  003676  6E10               	movwf	??_I2C_DO_TX^0,c
  9532  003678  6A11               	clrf	(??_I2C_DO_TX+1)^0,c
  9533                           
  9534                           ; Switch on 2 bytes has been partitioned into a top level switch of size 1, and 1 sub-sw
      +                          itches
  9535                           ; Switch size 1, requested type "simple"
  9536                           ; Number of cases is 1, Range of values is 0 to 0
  9537                           ; switch strategies available:
  9538                           ; Name         Instructions Cycles
  9539                           ; simple_byte            4     3 (average)
  9540                           ;	Chosen strategy is simple_byte
  9541  00367A  5011               	movf	(??_I2C_DO_TX+1)^0,w,c
  9542  00367C  0A00               	xorlw	0	; case 0
  9543  00367E  B4D8               	btfsc	status,2,c
  9544  003680  EF44  F01B         	goto	l7100
  9545  003684  EF26  F01B         	goto	l3912
  9546  003688                     l7100:
  9547                           
  9548                           ; Switch size 1, requested type "simple"
  9549                           ; Number of cases is 4, Range of values is 1 to 4
  9550                           ; switch strategies available:
  9551                           ; Name         Instructions Cycles
  9552                           ; simple_byte           13     7 (average)
  9553                           ;	Chosen strategy is simple_byte
  9554  003688  5010               	movf	??_I2C_DO_TX^0,w,c
  9555  00368A  0A01               	xorlw	1	; case 1
  9556  00368C  B4D8               	btfsc	status,2,c
  9557  00368E  EF26  F01B         	goto	l3912
  9558  003692  0A03               	xorlw	3	; case 2
  9559  003694  B4D8               	btfsc	status,2,c
  9560  003696  EF1E  F01B         	goto	l3904
  9561  00369A  0A01               	xorlw	1	; case 3
  9562  00369C  B4D8               	btfsc	status,2,c
  9563  00369E  EF22  F01B         	goto	l3908
  9564  0036A2  0A07               	xorlw	7	; case 4
  9565  0036A4  B4D8               	btfsc	status,2,c
  9566  0036A6  EF26  F01B         	goto	l3912
  9567  0036AA  EF26  F01B         	goto	l3912
  9568  0036AE                     l278:
  9569                           
  9570                           ;mcc_generated_files/i2c_master.c: 371:     {;mcc_generated_files/i2c_master.c: 372:    
      +                               I2C_Status.addressNackCheck = 0;
  9571  0036AE  0100               	movlb	0	; () banked
  9572  0036B0  9183               	bcf	(_I2C_Status+35)& (0+255),0,b
  9573  0036B2                     
  9574                           ; BSR set to: 0
  9575                           ;mcc_generated_files/i2c_master.c: 373:         I2C_MasterSendTxData(*I2C_Status.data_pt
      +                          r++);
  9576  0036B2  C07D  FFD9         	movff	_I2C_Status+29,fsr2l
  9577  0036B6  C07E  FFDA         	movff	_I2C_Status+30,fsr2h
  9578  0036BA  4B7D               	infsnz	(_I2C_Status+29)& (0+255),f,b
  9579  0036BC  2B7E               	incf	(_I2C_Status+30)& (0+255),f,b
  9580  0036BE  50DF               	movf	indf2,w,c
  9581  0036C0  ECF9  F022         	call	_I2C_MasterSendTxData
  9582  0036C4                     
  9583                           ;mcc_generated_files/i2c_master.c: 374:         return (--I2C_Status.data_length)?I2C_TX
      +                          :I2C_TX_EMPTY;
  9584  0036C4  0100               	movlb	0	; () banked
  9585  0036C6  077F               	decf	(_I2C_Status+31)& (0+255),f,b
  9586  0036C8  A0D8               	btfss	status,0,c
  9587  0036CA  0780               	decf	(_I2C_Status+32)& (0+255),f,b
  9588  0036CC  517F               	movf	(_I2C_Status+31)& (0+255),w,b
  9589  0036CE  1180               	iorwf	(_I2C_Status+32)& (0+255),w,b
  9590  0036D0  A4D8               	btfss	status,2,c
  9591  0036D2  EF6D  F01B         	goto	u2881
  9592  0036D6  EF6F  F01B         	goto	u2880
  9593  0036DA                     u2881:
  9594  0036DA  EF72  F01B         	goto	l3926
  9595  0036DE                     u2880:
  9596  0036DE                     
  9597                           ; BSR set to: 0
  9598  0036DE  0E06               	movlw	6
  9599  0036E0  EF73  F01B         	goto	l281
  9600  0036E4                     l3926:
  9601                           
  9602                           ; BSR set to: 0
  9603  0036E4  0E03               	movlw	3
  9604  0036E6                     l281:
  9605  0036E6  0012               	return		;funcret
  9606  0036E8                     __end_of_I2C_DO_TX:
  9607                           	callstack 0
  9608                           
  9609 ;; *************** function _I2C_DO_SEND_ADR_WRITE *****************
  9610 ;; Defined at:
  9611 ;;		line 347 in file "mcc_generated_files/i2c_master.c"
  9612 ;; Parameters:    Size  Location     Type
  9613 ;;		None
  9614 ;; Auto vars:     Size  Location     Type
  9615 ;;		None
  9616 ;; Return value:  Size  Location     Type
  9617 ;;                  1    wreg      enum E3103
  9618 ;; Registers used:
  9619 ;;		wreg, status,2, status,0, cstack
  9620 ;; Tracked objects:
  9621 ;;		On entry : 0/0
  9622 ;;		On exit  : 0/0
  9623 ;;		Unchanged: 0/0
  9624 ;; Data sizes:     COMRAM   BANK0   BANK1   BANK2   BANK3   BANK4   BANK5   BANK6   BANK7   BANK8   BANK9  BANK10  BANK1
      +1  BANK12  BANK13  BANK14  BANK15
  9625 ;;      Params:         0       0       0       0       0       0       0       0       0       0       0       0       
      +0       0       0       0       0
  9626 ;;      Locals:         0       0       0       0       0       0       0       0       0       0       0       0       
      +0       0       0       0       0
  9627 ;;      Temps:          0       0       0       0       0       0       0       0       0       0       0       0       
      +0       0       0       0       0
  9628 ;;      Totals:         0       0       0       0       0       0       0       0       0       0       0       0       
      +0       0       0       0       0
  9629 ;;Total ram usage:        0 bytes
  9630 ;; Hardware stack levels used: 1
  9631 ;; Hardware stack levels required when called: 5
  9632 ;; This function calls:
  9633 ;;		_I2C_MasterSendTxData
  9634 ;; This function is called by:
  9635 ;;		_I2C_MasterFsm
  9636 ;; This function uses a non-reentrant model
  9637 ;;
  9638                           
  9639                           	psect	text53
  9640  004528                     __ptext53:
  9641                           	callstack 0
  9642  004528                     _I2C_DO_SEND_ADR_WRITE:
  9643                           	callstack 19
  9644  004528                     
  9645                           ;mcc_generated_files/i2c_master.c: 349:     I2C_Status.addressNackCheck = 1;
  9646  004528  0100               	movlb	0	; () banked
  9647  00452A  8183               	bsf	(_I2C_Status+35)& (0+255),0,b
  9648  00452C                     
  9649                           ; BSR set to: 0
  9650                           ;mcc_generated_files/i2c_master.c: 350:     I2C_MasterSendTxData(I2C_Status.address << 1
      +                          );
  9651  00452C  517C               	movf	(_I2C_Status+28)& (0+255),w,b
  9652  00452E  257C               	addwf	(_I2C_Status+28)& (0+255),w,b
  9653  004530  ECF9  F022         	call	_I2C_MasterSendTxData
  9654  004534                     
  9655                           ;mcc_generated_files/i2c_master.c: 351:     return I2C_TX;
  9656  004534  0E03               	movlw	3
  9657  004536  0012               	return		;funcret
  9658  004538                     __end_of_I2C_DO_SEND_ADR_WRITE:
  9659                           	callstack 0
  9660                           
  9661 ;; *************** function _I2C_DO_SEND_ADR_READ *****************
  9662 ;; Defined at:
  9663 ;;		line 340 in file "mcc_generated_files/i2c_master.c"
  9664 ;; Parameters:    Size  Location     Type
  9665 ;;		None
  9666 ;; Auto vars:     Size  Location     Type
  9667 ;;		None
  9668 ;; Return value:  Size  Location     Type
  9669 ;;                  1    wreg      enum E3103
  9670 ;; Registers used:
  9671 ;;		wreg, status,0, cstack
  9672 ;; Tracked objects:
  9673 ;;		On entry : 0/0
  9674 ;;		On exit  : 0/0
  9675 ;;		Unchanged: 0/0
  9676 ;; Data sizes:     COMRAM   BANK0   BANK1   BANK2   BANK3   BANK4   BANK5   BANK6   BANK7   BANK8   BANK9  BANK10  BANK1
      +1  BANK12  BANK13  BANK14  BANK15
  9677 ;;      Params:         0       0       0       0       0       0       0       0       0       0       0       0       
      +0       0       0       0       0
  9678 ;;      Locals:         0       0       0       0       0       0       0       0       0       0       0       0       
      +0       0       0       0       0
  9679 ;;      Temps:          0       0       0       0       0       0       0       0       0       0       0       0       
      +0       0       0       0       0
  9680 ;;      Totals:         0       0       0       0       0       0       0       0       0       0       0       0       
      +0       0       0       0       0
  9681 ;;Total ram usage:        0 bytes
  9682 ;; Hardware stack levels used: 1
  9683 ;; Hardware stack levels required when called: 5
  9684 ;; This function calls:
  9685 ;;		_I2C_MasterSendTxData
  9686 ;; This function is called by:
  9687 ;;		_I2C_MasterFsm
  9688 ;; This function uses a non-reentrant model
  9689 ;;
  9690                           
  9691                           	psect	text54
  9692  004538                     __ptext54:
  9693                           	callstack 0
  9694  004538                     _I2C_DO_SEND_ADR_READ:
  9695                           	callstack 19
  9696  004538                     
  9697                           ;mcc_generated_files/i2c_master.c: 342:     I2C_Status.addressNackCheck = 1;
  9698  004538  0100               	movlb	0	; () banked
  9699  00453A  8183               	bsf	(_I2C_Status+35)& (0+255),0,b
  9700  00453C                     
  9701                           ; BSR set to: 0
  9702                           ;mcc_generated_files/i2c_master.c: 343:     I2C_MasterSendTxData(I2C_Status.address << 1
      +                           | 1);
  9703  00453C  80D8               	bsf	status,0,c
  9704  00453E  357C               	rlcf	(_I2C_Status+28)& (0+255),w,b
  9705  004540  ECF9  F022         	call	_I2C_MasterSendTxData
  9706  004544                     
  9707                           ;mcc_generated_files/i2c_master.c: 344:     return I2C_RCEN;
  9708  004544  0E05               	movlw	5
  9709  004546  0012               	return		;funcret
  9710  004548                     __end_of_I2C_DO_SEND_ADR_READ:
  9711                           	callstack 0
  9712                           
  9713 ;; *************** function _I2C_DO_IDLE *****************
  9714 ;; Defined at:
  9715 ;;		line 333 in file "mcc_generated_files/i2c_master.c"
  9716 ;; Parameters:    Size  Location     Type
  9717 ;;		None
  9718 ;; Auto vars:     Size  Location     Type
  9719 ;;		None
  9720 ;; Return value:  Size  Location     Type
  9721 ;;                  1    wreg      enum E3103
  9722 ;; Registers used:
  9723 ;;		wreg, status,2
  9724 ;; Tracked objects:
  9725 ;;		On entry : 0/0
  9726 ;;		On exit  : 0/0
  9727 ;;		Unchanged: 0/0
  9728 ;; Data sizes:     COMRAM   BANK0   BANK1   BANK2   BANK3   BANK4   BANK5   BANK6   BANK7   BANK8   BANK9  BANK10  BANK1
      +1  BANK12  BANK13  BANK14  BANK15
  9729 ;;      Params:         0       0       0       0       0       0       0       0       0       0       0       0       
      +0       0       0       0       0
  9730 ;;      Locals:         0       0       0       0       0       0       0       0       0       0       0       0       
      +0       0       0       0       0
  9731 ;;      Temps:          0       0       0       0       0       0       0       0       0       0       0       0       
      +0       0       0       0       0
  9732 ;;      Totals:         0       0       0       0       0       0       0       0       0       0       0       0       
      +0       0       0       0       0
  9733 ;;Total ram usage:        0 bytes
  9734 ;; Hardware stack levels used: 1
  9735 ;; Hardware stack levels required when called: 4
  9736 ;; This function calls:
  9737 ;;		Nothing
  9738 ;; This function is called by:
  9739 ;;		_I2C_MasterFsm
  9740 ;; This function uses a non-reentrant model
  9741 ;;
  9742                           
  9743                           	psect	text55
  9744  004560                     __ptext55:
  9745                           	callstack 0
  9746  004560                     _I2C_DO_IDLE:
  9747                           	callstack 20
  9748  004560                     
  9749                           ;mcc_generated_files/i2c_master.c: 335:     I2C_Status.busy = 0;
  9750  004560  0100               	movlb	0	; () banked
  9751  004562  9383               	bcf	(_I2C_Status+35)& (0+255),1,b
  9752  004564                     
  9753                           ; BSR set to: 0
  9754                           ;mcc_generated_files/i2c_master.c: 336:     I2C_Status.error = I2C_NOERR;
  9755  004564  0E00               	movlw	0
  9756  004566  6F82               	movwf	(_I2C_Status+34)& (0+255),b
  9757  004568                     
  9758                           ; BSR set to: 0
  9759                           ;mcc_generated_files/i2c_master.c: 337:     return I2C_RESET;
  9760  004568  0E0E               	movlw	14
  9761  00456A                     
  9762                           ; BSR set to: 0
  9763  00456A  0012               	return		;funcret
  9764  00456C                     __end_of_I2C_DO_IDLE:
  9765                           	callstack 0
  9766                           
  9767 ;; *************** function _I2C_DO_TX_EMPTY *****************
  9768 ;; Defined at:
  9769 ;;		line 409 in file "mcc_generated_files/i2c_master.c"
  9770 ;; Parameters:    Size  Location     Type
  9771 ;;		None
  9772 ;; Auto vars:     Size  Location     Type
  9773 ;;		None
  9774 ;; Return value:  Size  Location     Type
  9775 ;;                  1    wreg      enum E3103
  9776 ;; Registers used:
  9777 ;;		wreg, fsr2l, fsr2h, status,2, status,0, pclath, tosl, prodl, prodh, cstack
  9778 ;; Tracked objects:
  9779 ;;		On entry : 0/0
  9780 ;;		On exit  : 0/0
  9781 ;;		Unchanged: 0/0
  9782 ;; Data sizes:     COMRAM   BANK0   BANK1   BANK2   BANK3   BANK4   BANK5   BANK6   BANK7   BANK8   BANK9  BANK10  BANK1
      +1  BANK12  BANK13  BANK14  BANK15
  9783 ;;      Params:         0       0       0       0       0       0       0       0       0       0       0       0       
      +0       0       0       0       0
  9784 ;;      Locals:         0       0       0       0       0       0       0       0       0       0       0       0       
      +0       0       0       0       0
  9785 ;;      Temps:          2       0       0       0       0       0       0       0       0       0       0       0       
      +0       0       0       0       0
  9786 ;;      Totals:         2       0       0       0       0       0       0       0       0       0       0       0       
      +0       0       0       0       0
  9787 ;;Total ram usage:        2 bytes
  9788 ;; Hardware stack levels used: 1
  9789 ;; Hardware stack levels required when called: 7
  9790 ;; This function calls:
  9791 ;;		Absolute function
  9792 ;;		_I2C_CallbackReturnReset
  9793 ;;		_I2C_CallbackReturnStop
  9794 ;;		_I2C_DO_SEND_RESTART
  9795 ;;		_I2C_DO_SEND_STOP
  9796 ;;		_I2C_MasterSetIrq
  9797 ;;		_rd1RegCompleteHandler
  9798 ;;		_rd2RegCompleteHandler
  9799 ;;		_rdBlkRegCompleteHandler
  9800 ;;		_wr1RegCompleteHandler
  9801 ;;		_wr2RegCompleteHandler
  9802 ;; This function is called by:
  9803 ;;		_I2C_MasterFsm
  9804 ;; This function uses a non-reentrant model
  9805 ;;
  9806                           
  9807                           	psect	text56
  9808  003B50                     __ptext56:
  9809                           	callstack 0
  9810  003B50                     _I2C_DO_TX_EMPTY:
  9811                           	callstack 17
  9812  003B50                     
  9813                           ;mcc_generated_files/i2c_master.c: 411:     I2C_Status.bufferFree = 1;
  9814  003B50  0100               	movlb	0	; () banked
  9815  003B52  8783               	bsf	(_I2C_Status+35)& (0+255),3,b
  9816                           
  9817                           ;mcc_generated_files/i2c_master.c: 412:     switch(I2C_Status.callbackTable[I2C_DATA_COM
      +                          PLETE](I2C_Status.callbackPayload[I2C_DATA_COMPLETE]))
  9818  003B54  EFB9  F01D         	goto	l3990
  9819  003B58                     l3974:
  9820                           
  9821                           ;mcc_generated_files/i2c_master.c: 416:             return I2C_DO_SEND_RESTART();
  9822  003B58  ECED  F022         	call	_I2C_DO_SEND_RESTART	;wreg free
  9823  003B5C  EFE5  F01D         	goto	l312
  9824  003B60                     l3978:
  9825                           
  9826                           ;mcc_generated_files/i2c_master.c: 418:             I2C_MasterSetIrq();
  9827  003B60  EC09  F023         	call	_I2C_MasterSetIrq	;wreg free
  9828  003B64                     
  9829                           ;mcc_generated_files/i2c_master.c: 419:             return I2C_TX;
  9830  003B64  0E03               	movlw	3
  9831  003B66  EFE5  F01D         	goto	l312
  9832  003B6A                     l3984:
  9833                           
  9834                           ;mcc_generated_files/i2c_master.c: 422:             return I2C_DO_SEND_STOP();
  9835  003B6A  ECE9  F022         	call	_I2C_DO_SEND_STOP	;wreg free
  9836  003B6E  EFE5  F01D         	goto	l312
  9837  003B72                     l3990:
  9838                           
  9839                           ; BSR set to: 0
  9840  003B72  C06C  F00E         	movff	_I2C_Status+12,I2C_CallbackReturnReset@funPtr
  9841  003B76  C06D  F00F         	movff	_I2C_Status+13,I2C_CallbackReturnReset@funPtr+1
  9842  003B7A  D802               	call	u2918
  9843  003B7C  EFC9  F01D         	goto	u2919
  9844  003B80                     u2918:
  9845  003B80  0005               	push	
  9846  003B82  6EFA               	movwf	pclath,c
  9847  003B84  5160               	movf	_I2C_Status& (0+255),w,b
  9848  003B86  6EFD               	movwf	tosl,c
  9849  003B88  5161               	movf	(_I2C_Status+1)& (0+255),w,b
  9850  003B8A  6EFE               	movwf	tosh,c
  9851  003B8C  6AFF               	clrf	tosu,c
  9852  003B8E  50FA               	movf	pclath,w,c
  9853  003B90  0012               	return		;indir
  9854  003B92                     u2919:
  9855  003B92  6E10               	movwf	??_I2C_DO_TX_EMPTY^0,c
  9856  003B94  6A11               	clrf	(??_I2C_DO_TX_EMPTY+1)^0,c
  9857                           
  9858                           ; Switch on 2 bytes has been partitioned into a top level switch of size 1, and 1 sub-sw
      +                          itches
  9859                           ; Switch size 1, requested type "simple"
  9860                           ; Number of cases is 1, Range of values is 0 to 0
  9861                           ; switch strategies available:
  9862                           ; Name         Instructions Cycles
  9863                           ; simple_byte            4     3 (average)
  9864                           ;	Chosen strategy is simple_byte
  9865  003B96  5011               	movf	(??_I2C_DO_TX_EMPTY+1)^0,w,c
  9866  003B98  0A00               	xorlw	0	; case 0
  9867  003B9A  B4D8               	btfsc	status,2,c
  9868  003B9C  EFD2  F01D         	goto	l7102
  9869  003BA0  EFB5  F01D         	goto	l3984
  9870  003BA4                     l7102:
  9871                           
  9872                           ; Switch size 1, requested type "simple"
  9873                           ; Number of cases is 4, Range of values is 1 to 4
  9874                           ; switch strategies available:
  9875                           ; Name         Instructions Cycles
  9876                           ; simple_byte           13     7 (average)
  9877                           ;	Chosen strategy is simple_byte
  9878  003BA4  5010               	movf	??_I2C_DO_TX_EMPTY^0,w,c
  9879  003BA6  0A01               	xorlw	1	; case 1
  9880  003BA8  B4D8               	btfsc	status,2,c
  9881  003BAA  EFB5  F01D         	goto	l3984
  9882  003BAE  0A03               	xorlw	3	; case 2
  9883  003BB0  B4D8               	btfsc	status,2,c
  9884  003BB2  EFAC  F01D         	goto	l3974
  9885  003BB6  0A01               	xorlw	1	; case 3
  9886  003BB8  B4D8               	btfsc	status,2,c
  9887  003BBA  EFAC  F01D         	goto	l3974
  9888  003BBE  0A07               	xorlw	7	; case 4
  9889  003BC0  B4D8               	btfsc	status,2,c
  9890  003BC2  EFB0  F01D         	goto	l3978
  9891  003BC6  EFB5  F01D         	goto	l3984
  9892  003BCA                     l312:
  9893  003BCA  0012               	return		;funcret
  9894  003BCC                     __end_of_I2C_DO_TX_EMPTY:
  9895                           	callstack 0
  9896                           
  9897 ;; *************** function _I2C_MasterSetIrq *****************
  9898 ;; Defined at:
  9899 ;;		line 645 in file "mcc_generated_files/i2c_master.c"
  9900 ;; Parameters:    Size  Location     Type
  9901 ;;		None
  9902 ;; Auto vars:     Size  Location     Type
  9903 ;;		None
  9904 ;; Return value:  Size  Location     Type
  9905 ;;                  1    wreg      void 
  9906 ;; Registers used:
  9907 ;;		None
  9908 ;; Tracked objects:
  9909 ;;		On entry : 0/0
  9910 ;;		On exit  : 0/0
  9911 ;;		Unchanged: 0/0
  9912 ;; Data sizes:     COMRAM   BANK0   BANK1   BANK2   BANK3   BANK4   BANK5   BANK6   BANK7   BANK8   BANK9  BANK10  BANK1
      +1  BANK12  BANK13  BANK14  BANK15
  9913 ;;      Params:         0       0       0       0       0       0       0       0       0       0       0       0       
      +0       0       0       0       0
  9914 ;;      Locals:         0       0       0       0       0       0       0       0       0       0       0       0       
      +0       0       0       0       0
  9915 ;;      Temps:          0       0       0       0       0       0       0       0       0       0       0       0       
      +0       0       0       0       0
  9916 ;;      Totals:         0       0       0       0       0       0       0       0       0       0       0       0       
      +0       0       0       0       0
  9917 ;;Total ram usage:        0 bytes
  9918 ;; Hardware stack levels used: 1
  9919 ;; Hardware stack levels required when called: 4
  9920 ;; This function calls:
  9921 ;;		Nothing
  9922 ;; This function is called by:
  9923 ;;		_I2C_DO_TX_EMPTY
  9924 ;; This function uses a non-reentrant model
  9925 ;;
  9926                           
  9927                           	psect	text57
  9928  004612                     __ptext57:
  9929                           	callstack 0
  9930  004612                     _I2C_MasterSetIrq:
  9931                           	callstack 19
  9932  004612                     
  9933                           ;mcc_generated_files/i2c_master.c: 647:     PIR1bits.SSPIF = 1;
  9934  004612  869E               	bsf	158,3,c	;volatile
  9935  004614  0012               	return		;funcret
  9936  004616                     __end_of_I2C_MasterSetIrq:
  9937                           	callstack 0
  9938                           
  9939 ;; *************** function _I2C_MasterIsNack *****************
  9940 ;; Defined at:
  9941 ;;		line 598 in file "mcc_generated_files/i2c_master.c"
  9942 ;; Parameters:    Size  Location     Type
  9943 ;;		None
  9944 ;; Auto vars:     Size  Location     Type
  9945 ;;		None
  9946 ;; Return value:  Size  Location     Type
  9947 ;;                  1    wreg      _Bool 
  9948 ;; Registers used:
  9949 ;;		wreg
  9950 ;; Tracked objects:
  9951 ;;		On entry : 0/0
  9952 ;;		On exit  : 0/0
  9953 ;;		Unchanged: 0/0
  9954 ;; Data sizes:     COMRAM   BANK0   BANK1   BANK2   BANK3   BANK4   BANK5   BANK6   BANK7   BANK8   BANK9  BANK10  BANK1
      +1  BANK12  BANK13  BANK14  BANK15
  9955 ;;      Params:         0       0       0       0       0       0       0       0       0       0       0       0       
      +0       0       0       0       0
  9956 ;;      Locals:         0       0       0       0       0       0       0       0       0       0       0       0       
      +0       0       0       0       0
  9957 ;;      Temps:          0       0       0       0       0       0       0       0       0       0       0       0       
      +0       0       0       0       0
  9958 ;;      Totals:         0       0       0       0       0       0       0       0       0       0       0       0       
      +0       0       0       0       0
  9959 ;;Total ram usage:        0 bytes
  9960 ;; Hardware stack levels used: 1
  9961 ;; Hardware stack levels required when called: 4
  9962 ;; This function calls:
  9963 ;;		Nothing
  9964 ;; This function is called by:
  9965 ;;		_I2C_MasterFsm
  9966 ;;		_I2C_DO_TX
  9967 ;; This function uses a non-reentrant model
  9968 ;;
  9969                           
  9970                           	psect	text58
  9971  0044F0                     __ptext58:
  9972                           	callstack 0
  9973  0044F0                     _I2C_MasterIsNack:
  9974                           	callstack 20
  9975  0044F0                     
  9976                           ;mcc_generated_files/i2c_master.c: 600:     return SSPCON2bits.ACKSTAT;
  9977  0044F0  BCC5               	btfsc	197,6,c	;volatile
  9978  0044F2  EF7D  F022         	goto	u2851
  9979  0044F6  EF80  F022         	goto	u2850
  9980  0044FA                     u2851:
  9981  0044FA  0E01               	movlw	1
  9982  0044FC  EF81  F022         	goto	u2856
  9983  004500                     u2850:
  9984  004500  0E00               	movlw	0
  9985  004502                     u2856:
  9986  004502  0012               	return		;funcret
  9987  004504                     __end_of_I2C_MasterIsNack:
  9988                           	callstack 0
  9989                           
  9990 ;; *************** function _I2C_MasterSendTxData *****************
  9991 ;; Defined at:
  9992 ;;		line 568 in file "mcc_generated_files/i2c_master.c"
  9993 ;; Parameters:    Size  Location     Type
  9994 ;;  data            1    wreg     unsigned char 
  9995 ;; Auto vars:     Size  Location     Type
  9996 ;;  data            1    4[COMRAM] unsigned char 
  9997 ;; Return value:  Size  Location     Type
  9998 ;;                  1    wreg      void 
  9999 ;; Registers used:
 10000 ;;		wreg
 10001 ;; Tracked objects:
 10002 ;;		On entry : 0/0
 10003 ;;		On exit  : 0/0
 10004 ;;		Unchanged: 0/0
 10005 ;; Data sizes:     COMRAM   BANK0   BANK1   BANK2   BANK3   BANK4   BANK5   BANK6   BANK7   BANK8   BANK9  BANK10  BANK1
      +1  BANK12  BANK13  BANK14  BANK15
 10006 ;;      Params:         0       0       0       0       0       0       0       0       0       0       0       0       
      +0       0       0       0       0
 10007 ;;      Locals:         1       0       0       0       0       0       0       0       0       0       0       0       
      +0       0       0       0       0
 10008 ;;      Temps:          0       0       0       0       0       0       0       0       0       0       0       0       
      +0       0       0       0       0
 10009 ;;      Totals:         1       0       0       0       0       0       0       0       0       0       0       0       
      +0       0       0       0       0
 10010 ;;Total ram usage:        1 bytes
 10011 ;; Hardware stack levels used: 1
 10012 ;; Hardware stack levels required when called: 4
 10013 ;; This function calls:
 10014 ;;		Nothing
 10015 ;; This function is called by:
 10016 ;;		_I2C_DO_SEND_ADR_READ
 10017 ;;		_I2C_DO_SEND_ADR_WRITE
 10018 ;;		_I2C_DO_TX
 10019 ;; This function uses a non-reentrant model
 10020 ;;
 10021                           
 10022                           	psect	text59
 10023  0045F2                     __ptext59:
 10024                           	callstack 0
 10025  0045F2                     _I2C_MasterSendTxData:
 10026                           	callstack 19
 10027                           
 10028                           ;incstack = 0
 10029                           ;I2C_MasterSendTxData@data stored from wreg
 10030  0045F2  6E05               	movwf	I2C_MasterSendTxData@data^0,c
 10031  0045F4                     
 10032                           ;mcc_generated_files/i2c_master.c: 568: static __attribute__((inline)) void I2C_MasterSe
      +                          ndTxData(uint8_t data);mcc_generated_files/i2c_master.c: 569: {;mcc_generated_files/i2c_
      +                          master.c: 570:     SSPBUF = data;
 10033  0045F4  C005  FFC9         	movff	I2C_MasterSendTxData@data,4041	;volatile
 10034  0045F8  0012               	return		;funcret
 10035  0045FA                     __end_of_I2C_MasterSendTxData:
 10036                           	callstack 0
 10037                           
 10038 ;; *************** function _I2C_MasterSendAck *****************
 10039 ;; Defined at:
 10040 ;;		line 603 in file "mcc_generated_files/i2c_master.c"
 10041 ;; Parameters:    Size  Location     Type
 10042 ;;		None
 10043 ;; Auto vars:     Size  Location     Type
 10044 ;;		None
 10045 ;; Return value:  Size  Location     Type
 10046 ;;                  1    wreg      void 
 10047 ;; Registers used:
 10048 ;;		None
 10049 ;; Tracked objects:
 10050 ;;		On entry : 0/0
 10051 ;;		On exit  : 0/0
 10052 ;;		Unchanged: 0/0
 10053 ;; Data sizes:     COMRAM   BANK0   BANK1   BANK2   BANK3   BANK4   BANK5   BANK6   BANK7   BANK8   BANK9  BANK10  BANK1
      +1  BANK12  BANK13  BANK14  BANK15
 10054 ;;      Params:         0       0       0       0       0       0       0       0       0       0       0       0       
      +0       0       0       0       0
 10055 ;;      Locals:         0       0       0       0       0       0       0       0       0       0       0       0       
      +0       0       0       0       0
 10056 ;;      Temps:          0       0       0       0       0       0       0       0       0       0       0       0       
      +0       0       0       0       0
 10057 ;;      Totals:         0       0       0       0       0       0       0       0       0       0       0       0       
      +0       0       0       0       0
 10058 ;;Total ram usage:        0 bytes
 10059 ;; Hardware stack levels used: 1
 10060 ;; Hardware stack levels required when called: 4
 10061 ;; This function calls:
 10062 ;;		Nothing
 10063 ;; This function is called by:
 10064 ;;		_I2C_DO_RX
 10065 ;;		_I2C_DO_RX_ACK
 10066 ;; This function uses a non-reentrant model
 10067 ;;
 10068                           
 10069                           	psect	text60
 10070  0045FA                     __ptext60:
 10071                           	callstack 0
 10072  0045FA                     _I2C_MasterSendAck:
 10073                           	callstack 19
 10074  0045FA                     
 10075                           ;mcc_generated_files/i2c_master.c: 605:     SSPCON2bits.ACKDT = 0;
 10076  0045FA  9AC5               	bcf	197,5,c	;volatile
 10077                           
 10078                           ;mcc_generated_files/i2c_master.c: 606:     SSPCON2bits.ACKEN = 1;
 10079  0045FC  88C5               	bsf	197,4,c	;volatile
 10080  0045FE  0012               	return		;funcret
 10081  004600                     __end_of_I2C_MasterSendAck:
 10082                           	callstack 0
 10083                           
 10084 ;; *************** function _I2C_MasterGetRxData *****************
 10085 ;; Defined at:
 10086 ;;		line 563 in file "mcc_generated_files/i2c_master.c"
 10087 ;; Parameters:    Size  Location     Type
 10088 ;;		None
 10089 ;; Auto vars:     Size  Location     Type
 10090 ;;		None
 10091 ;; Return value:  Size  Location     Type
 10092 ;;                  1    wreg      unsigned char 
 10093 ;; Registers used:
 10094 ;;		wreg, status,2
 10095 ;; Tracked objects:
 10096 ;;		On entry : 0/0
 10097 ;;		On exit  : 0/0
 10098 ;;		Unchanged: 0/0
 10099 ;; Data sizes:     COMRAM   BANK0   BANK1   BANK2   BANK3   BANK4   BANK5   BANK6   BANK7   BANK8   BANK9  BANK10  BANK1
      +1  BANK12  BANK13  BANK14  BANK15
 10100 ;;      Params:         0       0       0       0       0       0       0       0       0       0       0       0       
      +0       0       0       0       0
 10101 ;;      Locals:         0       0       0       0       0       0       0       0       0       0       0       0       
      +0       0       0       0       0
 10102 ;;      Temps:          0       0       0       0       0       0       0       0       0       0       0       0       
      +0       0       0       0       0
 10103 ;;      Totals:         0       0       0       0       0       0       0       0       0       0       0       0       
      +0       0       0       0       0
 10104 ;;Total ram usage:        0 bytes
 10105 ;; Hardware stack levels used: 1
 10106 ;; Hardware stack levels required when called: 4
 10107 ;; This function calls:
 10108 ;;		Nothing
 10109 ;; This function is called by:
 10110 ;;		_I2C_DO_RX
 10111 ;; This function uses a non-reentrant model
 10112 ;;
 10113                           
 10114                           	psect	text61
 10115  004616                     __ptext61:
 10116                           	callstack 0
 10117  004616                     _I2C_MasterGetRxData:
 10118                           	callstack 19
 10119  004616                     
 10120                           ;mcc_generated_files/i2c_master.c: 565:     return SSPBUF;
 10121  004616  50C9               	movf	201,w,c	;volatile
 10122  004618  0012               	return		;funcret
 10123  00461A                     __end_of_I2C_MasterGetRxData:
 10124                           	callstack 0
 10125                           
 10126 ;; *************** function _I2C_MasterSendNack *****************
 10127 ;; Defined at:
 10128 ;;		line 609 in file "mcc_generated_files/i2c_master.c"
 10129 ;; Parameters:    Size  Location     Type
 10130 ;;		None
 10131 ;; Auto vars:     Size  Location     Type
 10132 ;;		None
 10133 ;; Return value:  Size  Location     Type
 10134 ;;                  1    wreg      void 
 10135 ;; Registers used:
 10136 ;;		None
 10137 ;; Tracked objects:
 10138 ;;		On entry : 0/0
 10139 ;;		On exit  : 0/0
 10140 ;;		Unchanged: 0/0
 10141 ;; Data sizes:     COMRAM   BANK0   BANK1   BANK2   BANK3   BANK4   BANK5   BANK6   BANK7   BANK8   BANK9  BANK10  BANK1
      +1  BANK12  BANK13  BANK14  BANK15
 10142 ;;      Params:         0       0       0       0       0       0       0       0       0       0       0       0       
      +0       0       0       0       0
 10143 ;;      Locals:         0       0       0       0       0       0       0       0       0       0       0       0       
      +0       0       0       0       0
 10144 ;;      Temps:          0       0       0       0       0       0       0       0       0       0       0       0       
      +0       0       0       0       0
 10145 ;;      Totals:         0       0       0       0       0       0       0       0       0       0       0       0       
      +0       0       0       0       0
 10146 ;;Total ram usage:        0 bytes
 10147 ;; Hardware stack levels used: 1
 10148 ;; Hardware stack levels required when called: 4
 10149 ;; This function calls:
 10150 ;;		Nothing
 10151 ;; This function is called by:
 10152 ;;		_I2C_DO_RX_NACK_STOP
 10153 ;;		_I2C_DO_RX_NACK_RESTART
 10154 ;; This function uses a non-reentrant model
 10155 ;;
 10156                           
 10157                           	psect	text62
 10158  004600                     __ptext62:
 10159                           	callstack 0
 10160  004600                     _I2C_MasterSendNack:
 10161                           	callstack 19
 10162  004600                     
 10163                           ;mcc_generated_files/i2c_master.c: 611:     SSPCON2bits.ACKDT = 1;
 10164  004600  8AC5               	bsf	197,5,c	;volatile
 10165                           
 10166                           ;mcc_generated_files/i2c_master.c: 612:     SSPCON2bits.ACKEN = 1;
 10167  004602  88C5               	bsf	197,4,c	;volatile
 10168  004604  0012               	return		;funcret
 10169  004606                     __end_of_I2C_MasterSendNack:
 10170                           	callstack 0
 10171                           
 10172 ;; *************** function _I2C_MasterStartRx *****************
 10173 ;; Defined at:
 10174 ;;		line 583 in file "mcc_generated_files/i2c_master.c"
 10175 ;; Parameters:    Size  Location     Type
 10176 ;;		None
 10177 ;; Auto vars:     Size  Location     Type
 10178 ;;		None
 10179 ;; Return value:  Size  Location     Type
 10180 ;;                  1    wreg      void 
 10181 ;; Registers used:
 10182 ;;		None
 10183 ;; Tracked objects:
 10184 ;;		On entry : 0/0
 10185 ;;		On exit  : 0/0
 10186 ;;		Unchanged: 0/0
 10187 ;; Data sizes:     COMRAM   BANK0   BANK1   BANK2   BANK3   BANK4   BANK5   BANK6   BANK7   BANK8   BANK9  BANK10  BANK1
      +1  BANK12  BANK13  BANK14  BANK15
 10188 ;;      Params:         0       0       0       0       0       0       0       0       0       0       0       0       
      +0       0       0       0       0
 10189 ;;      Locals:         0       0       0       0       0       0       0       0       0       0       0       0       
      +0       0       0       0       0
 10190 ;;      Temps:          0       0       0       0       0       0       0       0       0       0       0       0       
      +0       0       0       0       0
 10191 ;;      Totals:         0       0       0       0       0       0       0       0       0       0       0       0       
      +0       0       0       0       0
 10192 ;;Total ram usage:        0 bytes
 10193 ;; Hardware stack levels used: 1
 10194 ;; Hardware stack levels required when called: 4
 10195 ;; This function calls:
 10196 ;;		Nothing
 10197 ;; This function is called by:
 10198 ;;		_I2C_DO_RCEN
 10199 ;; This function uses a non-reentrant model
 10200 ;;
 10201                           
 10202                           	psect	text63
 10203  00461A                     __ptext63:
 10204                           	callstack 0
 10205  00461A                     _I2C_MasterStartRx:
 10206                           	callstack 19
 10207  00461A                     
 10208                           ;mcc_generated_files/i2c_master.c: 585:     SSPCON2bits.RCEN = 1;
 10209  00461A  86C5               	bsf	197,3,c	;volatile
 10210  00461C  0012               	return		;funcret
 10211  00461E                     __end_of_I2C_MasterStartRx:
 10212                           	callstack 0
 10213                           
 10214 ;; *************** function _I2C_CallbackReturnReset *****************
 10215 ;; Defined at:
 10216 ;;		line 525 in file "mcc_generated_files/i2c_master.c"
 10217 ;; Parameters:    Size  Location     Type
 10218 ;;  funPtr          2   13[COMRAM] PTR void 
 10219 ;;		 -> I2C_ReadDataBlock@bufferBlock(4), I2C_Write2ByteRegister@data(2), I2C_Write1ByteRegister@data(1), I2C_Read2ByteR
      +egister@returnValue(2), 
 10220 ;;		 -> NULL(0), I2C_Read1ByteRegister@returnValue(1), 
 10221 ;; Auto vars:     Size  Location     Type
 10222 ;;		None
 10223 ;; Return value:  Size  Location     Type
 10224 ;;                  1    wreg      enum E360
 10225 ;; Registers used:
 10226 ;;		wreg
 10227 ;; Tracked objects:
 10228 ;;		On entry : 0/0
 10229 ;;		On exit  : 0/0
 10230 ;;		Unchanged: 0/0
 10231 ;; Data sizes:     COMRAM   BANK0   BANK1   BANK2   BANK3   BANK4   BANK5   BANK6   BANK7   BANK8   BANK9  BANK10  BANK1
      +1  BANK12  BANK13  BANK14  BANK15
 10232 ;;      Params:         2       0       0       0       0       0       0       0       0       0       0       0       
      +0       0       0       0       0
 10233 ;;      Locals:         0       0       0       0       0       0       0       0       0       0       0       0       
      +0       0       0       0       0
 10234 ;;      Temps:          0       0       0       0       0       0       0       0       0       0       0       0       
      +0       0       0       0       0
 10235 ;;      Totals:         2       0       0       0       0       0       0       0       0       0       0       0       
      +0       0       0       0       0
 10236 ;;Total ram usage:        2 bytes
 10237 ;; Hardware stack levels used: 1
 10238 ;; Hardware stack levels required when called: 4
 10239 ;; This function calls:
 10240 ;;		Nothing
 10241 ;; This function is called by:
 10242 ;;		_I2C_Open
 10243 ;;		_I2C_DO_TX
 10244 ;;		_I2C_DO_RX
 10245 ;;		_I2C_DO_TX_EMPTY
 10246 ;;		_I2C_DO_ADDRESS_NACK
 10247 ;;		_I2C_DO_RX_EMPTY
 10248 ;; This function uses a non-reentrant model
 10249 ;;
 10250                           
 10251                           	psect	text64
 10252  00461E                     __ptext64:
 10253                           	callstack 0
 10254  00461E                     _I2C_CallbackReturnReset:
 10255                           	callstack 19
 10256  00461E                     
 10257                           ;mcc_generated_files/i2c_master.c: 525: i2c_operations_t I2C_CallbackReturnReset(void *f
      +                          unPtr);mcc_generated_files/i2c_master.c: 526: {;mcc_generated_files/i2c_master.c: 527:  
      +                             return I2C_RESET_LINK;
 10258  00461E  0E05               	movlw	5
 10259  004620  0012               	return		;funcret
 10260  004622                     __end_of_I2C_CallbackReturnReset:
 10261                           	callstack 0
 10262                           
 10263 ;; *************** function _I2C_CallbackReturnStop *****************
 10264 ;; Defined at:
 10265 ;;		line 520 in file "mcc_generated_files/i2c_master.c"
 10266 ;; Parameters:    Size  Location     Type
 10267 ;;  funPtr          2   13[COMRAM] PTR void 
 10268 ;;		 -> I2C_ReadDataBlock@bufferBlock(4), I2C_Write2ByteRegister@data(2), I2C_Write1ByteRegister@data(1), I2C_Read2ByteR
      +egister@returnValue(2), 
 10269 ;;		 -> NULL(0), I2C_Read1ByteRegister@returnValue(1), 
 10270 ;; Auto vars:     Size  Location     Type
 10271 ;;		None
 10272 ;; Return value:  Size  Location     Type
 10273 ;;                  1    wreg      enum E360
 10274 ;; Registers used:
 10275 ;;		wreg
 10276 ;; Tracked objects:
 10277 ;;		On entry : 0/0
 10278 ;;		On exit  : 0/0
 10279 ;;		Unchanged: 0/0
 10280 ;; Data sizes:     COMRAM   BANK0   BANK1   BANK2   BANK3   BANK4   BANK5   BANK6   BANK7   BANK8   BANK9  BANK10  BANK1
      +1  BANK12  BANK13  BANK14  BANK15
 10281 ;;      Params:         2       0       0       0       0       0       0       0       0       0       0       0       
      +0       0       0       0       0
 10282 ;;      Locals:         0       0       0       0       0       0       0       0       0       0       0       0       
      +0       0       0       0       0
 10283 ;;      Temps:          0       0       0       0       0       0       0       0       0       0       0       0       
      +0       0       0       0       0
 10284 ;;      Totals:         2       0       0       0       0       0       0       0       0       0       0       0       
      +0       0       0       0       0
 10285 ;;Total ram usage:        2 bytes
 10286 ;; Hardware stack levels used: 1
 10287 ;; Hardware stack levels required when called: 4
 10288 ;; This function calls:
 10289 ;;		Nothing
 10290 ;; This function is called by:
 10291 ;;		_I2C_Open
 10292 ;;		_I2C_SetCallback
 10293 ;;		_I2C_DO_TX
 10294 ;;		_I2C_DO_RX
 10295 ;;		_I2C_DO_TX_EMPTY
 10296 ;;		_I2C_DO_ADDRESS_NACK
 10297 ;;		_I2C_DO_RX_EMPTY
 10298 ;; This function uses a non-reentrant model
 10299 ;;
 10300                           
 10301                           	psect	text65
 10302  004622                     __ptext65:
 10303                           	callstack 0
 10304  004622                     _I2C_CallbackReturnStop:
 10305                           	callstack 19
 10306  004622                     
 10307                           ;mcc_generated_files/i2c_master.c: 520: i2c_operations_t I2C_CallbackReturnStop(void *fu
      +                          nPtr);mcc_generated_files/i2c_master.c: 521: {;mcc_generated_files/i2c_master.c: 522:   
      +                            return I2C_STOP;
 10308  004622  0E01               	movlw	1
 10309  004624  0012               	return		;funcret
 10310  004626                     __end_of_I2C_CallbackReturnStop:
 10311                           	callstack 0
 10312                           
 10313 ;; *************** function _rdBlkRegCompleteHandler *****************
 10314 ;; Defined at:
 10315 ;;		line 170 in file "mcc_generated_files/examples/i2c_master_example.c"
 10316 ;; Parameters:    Size  Location     Type
 10317 ;;  ptr             2   13[COMRAM] PTR void 
 10318 ;;		 -> I2C_ReadDataBlock@bufferBlock(4), I2C_Write2ByteRegister@data(2), I2C_Write1ByteRegister@data(1), I2C_Read2ByteR
      +egister@returnValue(2), 
 10319 ;;		 -> NULL(0), I2C_Read1ByteRegister@returnValue(1), 
 10320 ;; Auto vars:     Size  Location     Type
 10321 ;;		None
 10322 ;; Return value:  Size  Location     Type
 10323 ;;                  1    wreg      enum E360
 10324 ;; Registers used:
 10325 ;;		wreg, fsr2l, fsr2h, status,2, status,0, prodl, prodh, cstack
 10326 ;; Tracked objects:
 10327 ;;		On entry : 0/0
 10328 ;;		On exit  : 0/0
 10329 ;;		Unchanged: 0/0
 10330 ;; Data sizes:     COMRAM   BANK0   BANK1   BANK2   BANK3   BANK4   BANK5   BANK6   BANK7   BANK8   BANK9  BANK10  BANK1
      +1  BANK12  BANK13  BANK14  BANK15
 10331 ;;      Params:         2       0       0       0       0       0       0       0       0       0       0       0       
      +0       0       0       0       0
 10332 ;;      Locals:         0       0       0       0       0       0       0       0       0       0       0       0       
      +0       0       0       0       0
 10333 ;;      Temps:          0       0       0       0       0       0       0       0       0       0       0       0       
      +0       0       0       0       0
 10334 ;;      Totals:         2       0       0       0       0       0       0       0       0       0       0       0       
      +0       0       0       0       0
 10335 ;;Total ram usage:        2 bytes
 10336 ;; Hardware stack levels used: 1
 10337 ;; Hardware stack levels required when called: 6
 10338 ;; This function calls:
 10339 ;;		_I2C_SetBuffer
 10340 ;;		_I2C_SetDataCompleteCallback
 10341 ;; This function is called by:
 10342 ;;		_I2C_ReadDataBlock
 10343 ;;		_I2C_DO_TX
 10344 ;;		_I2C_DO_RX
 10345 ;;		_I2C_DO_TX_EMPTY
 10346 ;;		_I2C_DO_ADDRESS_NACK
 10347 ;;		_I2C_DO_RX_EMPTY
 10348 ;; This function uses a non-reentrant model
 10349 ;;
 10350                           
 10351                           	psect	text66
 10352  0041A0                     __ptext66:
 10353                           	callstack 0
 10354  0041A0                     _rdBlkRegCompleteHandler:
 10355                           	callstack 17
 10356  0041A0                     
 10357                           ;mcc_generated_files/examples/i2c_master_example.c: 170: static i2c_operations_t rdBlkRe
      +                          gCompleteHandler(void *ptr);mcc_generated_files/examples/i2c_master_example.c: 171: {;mc
      +                          c_generated_files/examples/i2c_master_example.c: 172:     I2C_SetBuffer(((i2c_buffer_t *
      +                          )ptr)->data,((i2c_buffer_t*)ptr)->len);
 10358  0041A0  EE20 F002          	lfsr	2,2
 10359  0041A4  500E               	movf	rdBlkRegCompleteHandler@ptr^0,w,c
 10360  0041A6  26D9               	addwf	fsr2l,f,c
 10361  0041A8  500F               	movf	(rdBlkRegCompleteHandler@ptr+1)^0,w,c
 10362  0041AA  22DA               	addwfc	fsr2h,f,c
 10363  0041AC  CFDE F005          	movff	postinc2,I2C_SetBuffer@buffer
 10364  0041B0  CFDD F006          	movff	postdec2,I2C_SetBuffer@buffer+1
 10365  0041B4  C00E  FFD9         	movff	rdBlkRegCompleteHandler@ptr,fsr2l
 10366  0041B8  C00F  FFDA         	movff	rdBlkRegCompleteHandler@ptr+1,fsr2h
 10367  0041BC  CFDE F007          	movff	postinc2,I2C_SetBuffer@bufferSize
 10368  0041C0  CFDD F008          	movff	postdec2,I2C_SetBuffer@bufferSize+1
 10369  0041C4  EC23  F022         	call	_I2C_SetBuffer	;wreg free
 10370  0041C8                     
 10371                           ;mcc_generated_files/examples/i2c_master_example.c: 173:     I2C_SetDataCompleteCallback
      +                          (((void*)0),((void*)0));
 10372  0041C8  0E00               	movlw	0
 10373  0041CA  6E0A               	movwf	I2C_SetDataCompleteCallback@cb^0,c
 10374  0041CC  0E00               	movlw	0
 10375  0041CE  6E0B               	movwf	(I2C_SetDataCompleteCallback@cb+1)^0,c
 10376  0041D0  0E00               	movlw	0
 10377  0041D2  6E0C               	movwf	I2C_SetDataCompleteCallback@ptr^0,c
 10378  0041D4  0E00               	movlw	0
 10379  0041D6  6E0D               	movwf	(I2C_SetDataCompleteCallback@ptr+1)^0,c
 10380  0041D8  EC61  F022         	call	_I2C_SetDataCompleteCallback	;wreg free
 10381  0041DC                     
 10382                           ;mcc_generated_files/examples/i2c_master_example.c: 174:     return I2C_RESTART_READ;
 10383  0041DC  0E02               	movlw	2
 10384  0041DE  0012               	return		;funcret
 10385  0041E0                     __end_of_rdBlkRegCompleteHandler:
 10386                           	callstack 0
 10387                           
 10388 ;; *************** function _wr1RegCompleteHandler *****************
 10389 ;; Defined at:
 10390 ;;		line 156 in file "mcc_generated_files/examples/i2c_master_example.c"
 10391 ;; Parameters:    Size  Location     Type
 10392 ;;  ptr             2   13[COMRAM] PTR void 
 10393 ;;		 -> I2C_ReadDataBlock@bufferBlock(4), I2C_Write2ByteRegister@data(2), I2C_Write1ByteRegister@data(1), I2C_Read2ByteR
      +egister@returnValue(2), 
 10394 ;;		 -> NULL(0), I2C_Read1ByteRegister@returnValue(1), 
 10395 ;; Auto vars:     Size  Location     Type
 10396 ;;		None
 10397 ;; Return value:  Size  Location     Type
 10398 ;;                  1    wreg      enum E360
 10399 ;; Registers used:
 10400 ;;		wreg, fsr2l, fsr2h, status,2, status,0, prodl, prodh, cstack
 10401 ;; Tracked objects:
 10402 ;;		On entry : 0/0
 10403 ;;		On exit  : 0/0
 10404 ;;		Unchanged: 0/0
 10405 ;; Data sizes:     COMRAM   BANK0   BANK1   BANK2   BANK3   BANK4   BANK5   BANK6   BANK7   BANK8   BANK9  BANK10  BANK1
      +1  BANK12  BANK13  BANK14  BANK15
 10406 ;;      Params:         2       0       0       0       0       0       0       0       0       0       0       0       
      +0       0       0       0       0
 10407 ;;      Locals:         0       0       0       0       0       0       0       0       0       0       0       0       
      +0       0       0       0       0
 10408 ;;      Temps:          0       0       0       0       0       0       0       0       0       0       0       0       
      +0       0       0       0       0
 10409 ;;      Totals:         2       0       0       0       0       0       0       0       0       0       0       0       
      +0       0       0       0       0
 10410 ;;Total ram usage:        2 bytes
 10411 ;; Hardware stack levels used: 1
 10412 ;; Hardware stack levels required when called: 6
 10413 ;; This function calls:
 10414 ;;		_I2C_SetBuffer
 10415 ;;		_I2C_SetDataCompleteCallback
 10416 ;; This function is called by:
 10417 ;;		_I2C_Write1ByteRegister
 10418 ;;		_I2C_DO_TX
 10419 ;;		_I2C_DO_RX
 10420 ;;		_I2C_DO_TX_EMPTY
 10421 ;;		_I2C_DO_ADDRESS_NACK
 10422 ;;		_I2C_DO_RX_EMPTY
 10423 ;; This function uses a non-reentrant model
 10424 ;;
 10425                           
 10426                           	psect	text67
 10427  004318                     __ptext67:
 10428                           	callstack 0
 10429  004318                     _wr1RegCompleteHandler:
 10430                           	callstack 17
 10431  004318                     
 10432                           ;mcc_generated_files/examples/i2c_master_example.c: 156: static i2c_operations_t wr1RegC
      +                          ompleteHandler(void *ptr);mcc_generated_files/examples/i2c_master_example.c: 157: {;mcc_
      +                          generated_files/examples/i2c_master_example.c: 158:     I2C_SetBuffer(ptr,1);
 10433  004318  C00E  F005         	movff	wr1RegCompleteHandler@ptr,I2C_SetBuffer@buffer
 10434  00431C  C00F  F006         	movff	wr1RegCompleteHandler@ptr+1,I2C_SetBuffer@buffer+1
 10435  004320  0E00               	movlw	0
 10436  004322  6E08               	movwf	(I2C_SetBuffer@bufferSize+1)^0,c
 10437  004324  0E01               	movlw	1
 10438  004326  6E07               	movwf	I2C_SetBuffer@bufferSize^0,c
 10439  004328  EC23  F022         	call	_I2C_SetBuffer	;wreg free
 10440  00432C                     
 10441                           ;mcc_generated_files/examples/i2c_master_example.c: 159:     I2C_SetDataCompleteCallback
      +                          (((void*)0),((void*)0));
 10442  00432C  0E00               	movlw	0
 10443  00432E  6E0A               	movwf	I2C_SetDataCompleteCallback@cb^0,c
 10444  004330  0E00               	movlw	0
 10445  004332  6E0B               	movwf	(I2C_SetDataCompleteCallback@cb+1)^0,c
 10446  004334  0E00               	movlw	0
 10447  004336  6E0C               	movwf	I2C_SetDataCompleteCallback@ptr^0,c
 10448  004338  0E00               	movlw	0
 10449  00433A  6E0D               	movwf	(I2C_SetDataCompleteCallback@ptr+1)^0,c
 10450  00433C  EC61  F022         	call	_I2C_SetDataCompleteCallback	;wreg free
 10451  004340                     
 10452                           ;mcc_generated_files/examples/i2c_master_example.c: 160:     return I2C_CONTINUE;
 10453  004340  0E04               	movlw	4
 10454  004342  0012               	return		;funcret
 10455  004344                     __end_of_wr1RegCompleteHandler:
 10456                           	callstack 0
 10457                           
 10458 ;; *************** function _rd2RegCompleteHandler *****************
 10459 ;; Defined at:
 10460 ;;		line 149 in file "mcc_generated_files/examples/i2c_master_example.c"
 10461 ;; Parameters:    Size  Location     Type
 10462 ;;  ptr             2   13[COMRAM] PTR void 
 10463 ;;		 -> I2C_ReadDataBlock@bufferBlock(4), I2C_Write2ByteRegister@data(2), I2C_Write1ByteRegister@data(1), I2C_Read2ByteR
      +egister@returnValue(2), 
 10464 ;;		 -> NULL(0), I2C_Read1ByteRegister@returnValue(1), 
 10465 ;; Auto vars:     Size  Location     Type
 10466 ;;		None
 10467 ;; Return value:  Size  Location     Type
 10468 ;;                  1    wreg      enum E360
 10469 ;; Registers used:
 10470 ;;		wreg, fsr2l, fsr2h, status,2, status,0, prodl, prodh, cstack
 10471 ;; Tracked objects:
 10472 ;;		On entry : 0/0
 10473 ;;		On exit  : 0/0
 10474 ;;		Unchanged: 0/0
 10475 ;; Data sizes:     COMRAM   BANK0   BANK1   BANK2   BANK3   BANK4   BANK5   BANK6   BANK7   BANK8   BANK9  BANK10  BANK1
      +1  BANK12  BANK13  BANK14  BANK15
 10476 ;;      Params:         2       0       0       0       0       0       0       0       0       0       0       0       
      +0       0       0       0       0
 10477 ;;      Locals:         0       0       0       0       0       0       0       0       0       0       0       0       
      +0       0       0       0       0
 10478 ;;      Temps:          0       0       0       0       0       0       0       0       0       0       0       0       
      +0       0       0       0       0
 10479 ;;      Totals:         2       0       0       0       0       0       0       0       0       0       0       0       
      +0       0       0       0       0
 10480 ;;Total ram usage:        2 bytes
 10481 ;; Hardware stack levels used: 1
 10482 ;; Hardware stack levels required when called: 6
 10483 ;; This function calls:
 10484 ;;		_I2C_SetBuffer
 10485 ;;		_I2C_SetDataCompleteCallback
 10486 ;; This function is called by:
 10487 ;;		_I2C_Read2ByteRegister
 10488 ;;		_I2C_DO_TX
 10489 ;;		_I2C_DO_RX
 10490 ;;		_I2C_DO_TX_EMPTY
 10491 ;;		_I2C_DO_ADDRESS_NACK
 10492 ;;		_I2C_DO_RX_EMPTY
 10493 ;; This function uses a non-reentrant model
 10494 ;;
 10495                           
 10496                           	psect	text68
 10497  004344                     __ptext68:
 10498                           	callstack 0
 10499  004344                     _rd2RegCompleteHandler:
 10500                           	callstack 17
 10501  004344                     
 10502                           ;mcc_generated_files/examples/i2c_master_example.c: 149: static i2c_operations_t rd2RegC
      +                          ompleteHandler(void *ptr);mcc_generated_files/examples/i2c_master_example.c: 150: {;mcc_
      +                          generated_files/examples/i2c_master_example.c: 151:     I2C_SetBuffer(ptr,2);
 10503  004344  C00E  F005         	movff	rd2RegCompleteHandler@ptr,I2C_SetBuffer@buffer
 10504  004348  C00F  F006         	movff	rd2RegCompleteHandler@ptr+1,I2C_SetBuffer@buffer+1
 10505  00434C  0E00               	movlw	0
 10506  00434E  6E08               	movwf	(I2C_SetBuffer@bufferSize+1)^0,c
 10507  004350  0E02               	movlw	2
 10508  004352  6E07               	movwf	I2C_SetBuffer@bufferSize^0,c
 10509  004354  EC23  F022         	call	_I2C_SetBuffer	;wreg free
 10510  004358                     
 10511                           ;mcc_generated_files/examples/i2c_master_example.c: 152:     I2C_SetDataCompleteCallback
      +                          (((void*)0),((void*)0));
 10512  004358  0E00               	movlw	0
 10513  00435A  6E0A               	movwf	I2C_SetDataCompleteCallback@cb^0,c
 10514  00435C  0E00               	movlw	0
 10515  00435E  6E0B               	movwf	(I2C_SetDataCompleteCallback@cb+1)^0,c
 10516  004360  0E00               	movlw	0
 10517  004362  6E0C               	movwf	I2C_SetDataCompleteCallback@ptr^0,c
 10518  004364  0E00               	movlw	0
 10519  004366  6E0D               	movwf	(I2C_SetDataCompleteCallback@ptr+1)^0,c
 10520  004368  EC61  F022         	call	_I2C_SetDataCompleteCallback	;wreg free
 10521  00436C                     
 10522                           ;mcc_generated_files/examples/i2c_master_example.c: 153:     return I2C_RESTART_READ;
 10523  00436C  0E02               	movlw	2
 10524  00436E  0012               	return		;funcret
 10525  004370                     __end_of_rd2RegCompleteHandler:
 10526                           	callstack 0
 10527                           
 10528 ;; *************** function _rd1RegCompleteHandler *****************
 10529 ;; Defined at:
 10530 ;;		line 142 in file "mcc_generated_files/examples/i2c_master_example.c"
 10531 ;; Parameters:    Size  Location     Type
 10532 ;;  ptr             2   13[COMRAM] PTR void 
 10533 ;;		 -> I2C_ReadDataBlock@bufferBlock(4), I2C_Write2ByteRegister@data(2), I2C_Write1ByteRegister@data(1), I2C_Read2ByteR
      +egister@returnValue(2), 
 10534 ;;		 -> NULL(0), I2C_Read1ByteRegister@returnValue(1), 
 10535 ;; Auto vars:     Size  Location     Type
 10536 ;;		None
 10537 ;; Return value:  Size  Location     Type
 10538 ;;                  1    wreg      enum E360
 10539 ;; Registers used:
 10540 ;;		wreg, fsr2l, fsr2h, status,2, status,0, prodl, prodh, cstack
 10541 ;; Tracked objects:
 10542 ;;		On entry : 0/0
 10543 ;;		On exit  : 0/0
 10544 ;;		Unchanged: 0/0
 10545 ;; Data sizes:     COMRAM   BANK0   BANK1   BANK2   BANK3   BANK4   BANK5   BANK6   BANK7   BANK8   BANK9  BANK10  BANK1
      +1  BANK12  BANK13  BANK14  BANK15
 10546 ;;      Params:         2       0       0       0       0       0       0       0       0       0       0       0       
      +0       0       0       0       0
 10547 ;;      Locals:         0       0       0       0       0       0       0       0       0       0       0       0       
      +0       0       0       0       0
 10548 ;;      Temps:          0       0       0       0       0       0       0       0       0       0       0       0       
      +0       0       0       0       0
 10549 ;;      Totals:         2       0       0       0       0       0       0       0       0       0       0       0       
      +0       0       0       0       0
 10550 ;;Total ram usage:        2 bytes
 10551 ;; Hardware stack levels used: 1
 10552 ;; Hardware stack levels required when called: 6
 10553 ;; This function calls:
 10554 ;;		_I2C_SetBuffer
 10555 ;;		_I2C_SetDataCompleteCallback
 10556 ;; This function is called by:
 10557 ;;		_I2C_Read1ByteRegister
 10558 ;;		_I2C_DO_TX
 10559 ;;		_I2C_DO_RX
 10560 ;;		_I2C_DO_TX_EMPTY
 10561 ;;		_I2C_DO_ADDRESS_NACK
 10562 ;;		_I2C_DO_RX_EMPTY
 10563 ;; This function uses a non-reentrant model
 10564 ;;
 10565                           
 10566                           	psect	text69
 10567  004370                     __ptext69:
 10568                           	callstack 0
 10569  004370                     _rd1RegCompleteHandler:
 10570                           	callstack 17
 10571  004370                     
 10572                           ;mcc_generated_files/examples/i2c_master_example.c: 142: static i2c_operations_t rd1RegC
      +                          ompleteHandler(void *ptr);mcc_generated_files/examples/i2c_master_example.c: 143: {;mcc_
      +                          generated_files/examples/i2c_master_example.c: 144:     I2C_SetBuffer(ptr,1);
 10573  004370  C00E  F005         	movff	rd1RegCompleteHandler@ptr,I2C_SetBuffer@buffer
 10574  004374  C00F  F006         	movff	rd1RegCompleteHandler@ptr+1,I2C_SetBuffer@buffer+1
 10575  004378  0E00               	movlw	0
 10576  00437A  6E08               	movwf	(I2C_SetBuffer@bufferSize+1)^0,c
 10577  00437C  0E01               	movlw	1
 10578  00437E  6E07               	movwf	I2C_SetBuffer@bufferSize^0,c
 10579  004380  EC23  F022         	call	_I2C_SetBuffer	;wreg free
 10580  004384                     
 10581                           ;mcc_generated_files/examples/i2c_master_example.c: 145:     I2C_SetDataCompleteCallback
      +                          (((void*)0),((void*)0));
 10582  004384  0E00               	movlw	0
 10583  004386  6E0A               	movwf	I2C_SetDataCompleteCallback@cb^0,c
 10584  004388  0E00               	movlw	0
 10585  00438A  6E0B               	movwf	(I2C_SetDataCompleteCallback@cb+1)^0,c
 10586  00438C  0E00               	movlw	0
 10587  00438E  6E0C               	movwf	I2C_SetDataCompleteCallback@ptr^0,c
 10588  004390  0E00               	movlw	0
 10589  004392  6E0D               	movwf	(I2C_SetDataCompleteCallback@ptr+1)^0,c
 10590  004394  EC61  F022         	call	_I2C_SetDataCompleteCallback	;wreg free
 10591  004398                     
 10592                           ;mcc_generated_files/examples/i2c_master_example.c: 146:     return I2C_RESTART_READ;
 10593  004398  0E02               	movlw	2
 10594  00439A  0012               	return		;funcret
 10595  00439C                     __end_of_rd1RegCompleteHandler:
 10596                           	callstack 0
 10597                           
 10598 ;; *************** function _wr2RegCompleteHandler *****************
 10599 ;; Defined at:
 10600 ;;		line 163 in file "mcc_generated_files/examples/i2c_master_example.c"
 10601 ;; Parameters:    Size  Location     Type
 10602 ;;  ptr             2   13[COMRAM] PTR void 
 10603 ;;		 -> I2C_ReadDataBlock@bufferBlock(4), I2C_Write2ByteRegister@data(2), I2C_Write1ByteRegister@data(1), I2C_Read2ByteR
      +egister@returnValue(2), 
 10604 ;;		 -> NULL(0), I2C_Read1ByteRegister@returnValue(1), 
 10605 ;; Auto vars:     Size  Location     Type
 10606 ;;		None
 10607 ;; Return value:  Size  Location     Type
 10608 ;;                  1    wreg      enum E360
 10609 ;; Registers used:
 10610 ;;		wreg, fsr2l, fsr2h, status,2, status,0, prodl, prodh, cstack
 10611 ;; Tracked objects:
 10612 ;;		On entry : 0/0
 10613 ;;		On exit  : 0/0
 10614 ;;		Unchanged: 0/0
 10615 ;; Data sizes:     COMRAM   BANK0   BANK1   BANK2   BANK3   BANK4   BANK5   BANK6   BANK7   BANK8   BANK9  BANK10  BANK1
      +1  BANK12  BANK13  BANK14  BANK15
 10616 ;;      Params:         2       0       0       0       0       0       0       0       0       0       0       0       
      +0       0       0       0       0
 10617 ;;      Locals:         0       0       0       0       0       0       0       0       0       0       0       0       
      +0       0       0       0       0
 10618 ;;      Temps:          0       0       0       0       0       0       0       0       0       0       0       0       
      +0       0       0       0       0
 10619 ;;      Totals:         2       0       0       0       0       0       0       0       0       0       0       0       
      +0       0       0       0       0
 10620 ;;Total ram usage:        2 bytes
 10621 ;; Hardware stack levels used: 1
 10622 ;; Hardware stack levels required when called: 6
 10623 ;; This function calls:
 10624 ;;		_I2C_SetBuffer
 10625 ;;		_I2C_SetDataCompleteCallback
 10626 ;; This function is called by:
 10627 ;;		_I2C_Write2ByteRegister
 10628 ;;		_I2C_DO_TX
 10629 ;;		_I2C_DO_RX
 10630 ;;		_I2C_DO_TX_EMPTY
 10631 ;;		_I2C_DO_ADDRESS_NACK
 10632 ;;		_I2C_DO_RX_EMPTY
 10633 ;; This function uses a non-reentrant model
 10634 ;;
 10635                           
 10636                           	psect	text70
 10637  00439C                     __ptext70:
 10638                           	callstack 0
 10639  00439C                     _wr2RegCompleteHandler:
 10640                           	callstack 17
 10641  00439C                     
 10642                           ;mcc_generated_files/examples/i2c_master_example.c: 163: static i2c_operations_t wr2RegC
      +                          ompleteHandler(void *ptr);mcc_generated_files/examples/i2c_master_example.c: 164: {;mcc_
      +                          generated_files/examples/i2c_master_example.c: 165:     I2C_SetBuffer(ptr,2);
 10643  00439C  C00E  F005         	movff	wr2RegCompleteHandler@ptr,I2C_SetBuffer@buffer
 10644  0043A0  C00F  F006         	movff	wr2RegCompleteHandler@ptr+1,I2C_SetBuffer@buffer+1
 10645  0043A4  0E00               	movlw	0
 10646  0043A6  6E08               	movwf	(I2C_SetBuffer@bufferSize+1)^0,c
 10647  0043A8  0E02               	movlw	2
 10648  0043AA  6E07               	movwf	I2C_SetBuffer@bufferSize^0,c
 10649  0043AC  EC23  F022         	call	_I2C_SetBuffer	;wreg free
 10650  0043B0                     
 10651                           ;mcc_generated_files/examples/i2c_master_example.c: 166:     I2C_SetDataCompleteCallback
      +                          (((void*)0),((void*)0));
 10652  0043B0  0E00               	movlw	0
 10653  0043B2  6E0A               	movwf	I2C_SetDataCompleteCallback@cb^0,c
 10654  0043B4  0E00               	movlw	0
 10655  0043B6  6E0B               	movwf	(I2C_SetDataCompleteCallback@cb+1)^0,c
 10656  0043B8  0E00               	movlw	0
 10657  0043BA  6E0C               	movwf	I2C_SetDataCompleteCallback@ptr^0,c
 10658  0043BC  0E00               	movlw	0
 10659  0043BE  6E0D               	movwf	(I2C_SetDataCompleteCallback@ptr+1)^0,c
 10660  0043C0  EC61  F022         	call	_I2C_SetDataCompleteCallback	;wreg free
 10661  0043C4                     
 10662                           ;mcc_generated_files/examples/i2c_master_example.c: 167:     return I2C_CONTINUE;
 10663  0043C4  0E04               	movlw	4
 10664  0043C6  0012               	return		;funcret
 10665  0043C8                     __end_of_wr2RegCompleteHandler:
 10666                           	callstack 0
 10667                           
 10668 ;; *************** function _I2C_SetDataCompleteCallback *****************
 10669 ;; Defined at:
 10670 ;;		line 273 in file "mcc_generated_files/i2c_master.c"
 10671 ;; Parameters:    Size  Location     Type
 10672 ;;  cb              2    9[COMRAM] PTR FTN(PTR void ,)enum 
 10673 ;;		 -> Absolute function(1), rdBlkRegCompleteHandler(1), wr2RegCompleteHandler(1), wr1RegCompleteHandler(1), 
 10674 ;;		 -> rd2RegCompleteHandler(1), rd1RegCompleteHandler(1), 
 10675 ;;  ptr             2   11[COMRAM] PTR void 
 10676 ;;		 -> I2C_ReadDataBlock@bufferBlock(4), I2C_Write2ByteRegister@data(2), I2C_Write1ByteRegister@data(1), I2C_Read2ByteR
      +egister@returnValue(2), 
 10677 ;;		 -> NULL(0), I2C_Read1ByteRegister@returnValue(1), 
 10678 ;; Auto vars:     Size  Location     Type
 10679 ;;		None
 10680 ;; Return value:  Size  Location     Type
 10681 ;;                  1    wreg      void 
 10682 ;; Registers used:
 10683 ;;		wreg, fsr2l, fsr2h, status,2, status,0, prodl, prodh, cstack
 10684 ;; Tracked objects:
 10685 ;;		On entry : 0/0
 10686 ;;		On exit  : 0/0
 10687 ;;		Unchanged: 0/0
 10688 ;; Data sizes:     COMRAM   BANK0   BANK1   BANK2   BANK3   BANK4   BANK5   BANK6   BANK7   BANK8   BANK9  BANK10  BANK1
      +1  BANK12  BANK13  BANK14  BANK15
 10689 ;;      Params:         4       0       0       0       0       0       0       0       0       0       0       0       
      +0       0       0       0       0
 10690 ;;      Locals:         0       0       0       0       0       0       0       0       0       0       0       0       
      +0       0       0       0       0
 10691 ;;      Temps:          0       0       0       0       0       0       0       0       0       0       0       0       
      +0       0       0       0       0
 10692 ;;      Totals:         4       0       0       0       0       0       0       0       0       0       0       0       
      +0       0       0       0       0
 10693 ;;Total ram usage:        4 bytes
 10694 ;; Hardware stack levels used: 1
 10695 ;; Hardware stack levels required when called: 5
 10696 ;; This function calls:
 10697 ;;		_I2C_SetCallback
 10698 ;; This function is called by:
 10699 ;;		_I2C_Read2ByteRegister
 10700 ;;		_I2C_Write1ByteRegister
 10701 ;;		_I2C_Write2ByteRegister
 10702 ;;		_rd1RegCompleteHandler
 10703 ;;		_rd2RegCompleteHandler
 10704 ;;		_wr1RegCompleteHandler
 10705 ;;		_wr2RegCompleteHandler
 10706 ;;		_rdBlkRegCompleteHandler
 10707 ;;		_I2C_Read1ByteRegister
 10708 ;;		_I2C_ReadDataBlock
 10709 ;; This function uses a non-reentrant model
 10710 ;;
 10711                           
 10712                           	psect	text71
 10713  0044C2                     __ptext71:
 10714                           	callstack 0
 10715  0044C2                     _I2C_SetDataCompleteCallback:
 10716                           	callstack 23
 10717  0044C2                     
 10718                           ;mcc_generated_files/i2c_master.c: 273: void I2C_SetDataCompleteCallback(i2c_callback_t 
      +                          cb, void *ptr);mcc_generated_files/i2c_master.c: 274: {;mcc_generated_files/i2c_master.c
      +                          : 275:     I2C_SetCallback(I2C_DATA_COMPLETE, cb, ptr);
 10719  0044C2  C00A  F005         	movff	I2C_SetDataCompleteCallback@cb,I2C_SetCallback@cb
 10720  0044C6  C00B  F006         	movff	I2C_SetDataCompleteCallback@cb+1,I2C_SetCallback@cb+1
 10721  0044CA  C00C  F007         	movff	I2C_SetDataCompleteCallback@ptr,I2C_SetCallback@ptr
 10722  0044CE  C00D  F008         	movff	I2C_SetDataCompleteCallback@ptr+1,I2C_SetCallback@ptr+1
 10723  0044D2  0E00               	movlw	0
 10724  0044D4  ECE6  F01D         	call	_I2C_SetCallback
 10725  0044D8  0012               	return		;funcret
 10726  0044DA                     __end_of_I2C_SetDataCompleteCallback:
 10727                           	callstack 0
 10728                           
 10729 ;; *************** function _I2C_SetCallback *****************
 10730 ;; Defined at:
 10731 ;;		line 298 in file "mcc_generated_files/i2c_master.c"
 10732 ;; Parameters:    Size  Location     Type
 10733 ;;  idx             1    wreg     enum E3121
 10734 ;;  cb              2    4[COMRAM] PTR FTN(PTR void ,)enum 
 10735 ;;		 -> Absolute function(1), rdBlkRegCompleteHandler(1), wr2RegCompleteHandler(1), wr1RegCompleteHandler(1), 
 10736 ;;		 -> rd2RegCompleteHandler(1), rd1RegCompleteHandler(1), 
 10737 ;;  ptr             2    6[COMRAM] PTR void 
 10738 ;;		 -> I2C_ReadDataBlock@bufferBlock(4), I2C_Write2ByteRegister@data(2), I2C_Write1ByteRegister@data(1), I2C_Read2ByteR
      +egister@returnValue(2), 
 10739 ;;		 -> NULL(0), I2C_Read1ByteRegister@returnValue(1), 
 10740 ;; Auto vars:     Size  Location     Type
 10741 ;;  idx             1    8[COMRAM] enum E3121
 10742 ;; Return value:  Size  Location     Type
 10743 ;;                  1    wreg      void 
 10744 ;; Registers used:
 10745 ;;		wreg, fsr2l, fsr2h, status,2, status,0, prodl, prodh
 10746 ;; Tracked objects:
 10747 ;;		On entry : 0/0
 10748 ;;		On exit  : 0/0
 10749 ;;		Unchanged: 0/0
 10750 ;; Data sizes:     COMRAM   BANK0   BANK1   BANK2   BANK3   BANK4   BANK5   BANK6   BANK7   BANK8   BANK9  BANK10  BANK1
      +1  BANK12  BANK13  BANK14  BANK15
 10751 ;;      Params:         4       0       0       0       0       0       0       0       0       0       0       0       
      +0       0       0       0       0
 10752 ;;      Locals:         1       0       0       0       0       0       0       0       0       0       0       0       
      +0       0       0       0       0
 10753 ;;      Temps:          0       0       0       0       0       0       0       0       0       0       0       0       
      +0       0       0       0       0
 10754 ;;      Totals:         5       0       0       0       0       0       0       0       0       0       0       0       
      +0       0       0       0       0
 10755 ;;Total ram usage:        5 bytes
 10756 ;; Hardware stack levels used: 1
 10757 ;; Hardware stack levels required when called: 4
 10758 ;; This function calls:
 10759 ;;		Nothing
 10760 ;; This function is called by:
 10761 ;;		_I2C_SetDataCompleteCallback
 10762 ;;		_I2C_SetAddressNackCallback
 10763 ;;		_I2C_SetWriteCollisionCallback
 10764 ;;		_I2C_SetDataNackCallback
 10765 ;;		_I2C_SetTimeoutCallback
 10766 ;; This function uses a non-reentrant model
 10767 ;;
 10768                           
 10769                           	psect	text72
 10770  003BCC                     __ptext72:
 10771                           	callstack 0
 10772  003BCC                     _I2C_SetCallback:
 10773                           	callstack 23
 10774                           
 10775                           ;incstack = 0
 10776                           ;I2C_SetCallback@idx stored from wreg
 10777  003BCC  6E09               	movwf	I2C_SetCallback@idx^0,c
 10778  003BCE                     
 10779                           ;mcc_generated_files/i2c_master.c: 298: static void I2C_SetCallback(i2c_callbackIndex_t 
      +                          idx, i2c_callback_t cb, void *ptr);mcc_generated_files/i2c_master.c: 299: {;mcc_generate
      +                          d_files/i2c_master.c: 300:     if(cb)
 10780  003BCE  5005               	movf	I2C_SetCallback@cb^0,w,c
 10781  003BD0  1006               	iorwf	(I2C_SetCallback@cb+1)^0,w,c
 10782  003BD2  B4D8               	btfsc	status,2,c
 10783  003BD4  EFEE  F01D         	goto	u2801
 10784  003BD8  EFF0  F01D         	goto	u2800
 10785  003BDC                     u2801:
 10786  003BDC  EF0A  F01E         	goto	l3736
 10787  003BE0                     u2800:
 10788  003BE0                     
 10789                           ;mcc_generated_files/i2c_master.c: 301:     {;mcc_generated_files/i2c_master.c: 302:    
      +                               I2C_Status.callbackTable[idx] = cb;
 10790  003BE0  5009               	movf	I2C_SetCallback@idx^0,w,c
 10791  003BE2  0D02               	mullw	2
 10792  003BE4  0E60               	movlw	low _I2C_Status
 10793  003BE6  24F3               	addwf	243,w,c
 10794  003BE8  6ED9               	movwf	fsr2l,c
 10795  003BEA  0E00               	movlw	high _I2C_Status
 10796  003BEC  20F4               	addwfc	prodh,w,c
 10797  003BEE  6EDA               	movwf	fsr2h,c
 10798  003BF0  C005  FFDE         	movff	I2C_SetCallback@cb,postinc2
 10799  003BF4  C006  FFDD         	movff	I2C_SetCallback@cb+1,postdec2
 10800                           
 10801                           ;mcc_generated_files/i2c_master.c: 303:         I2C_Status.callbackPayload[idx] = ptr;
 10802  003BF8  5009               	movf	I2C_SetCallback@idx^0,w,c
 10803  003BFA  0D02               	mullw	2
 10804  003BFC  0E6C               	movlw	low (_I2C_Status+12)
 10805  003BFE  24F3               	addwf	243,w,c
 10806  003C00  6ED9               	movwf	fsr2l,c
 10807  003C02  0E00               	movlw	high (_I2C_Status+12)
 10808  003C04  20F4               	addwfc	prodh,w,c
 10809  003C06  6EDA               	movwf	fsr2h,c
 10810  003C08  C007  FFDE         	movff	I2C_SetCallback@ptr,postinc2
 10811  003C0C  C008  FFDD         	movff	I2C_SetCallback@ptr+1,postdec2
 10812                           
 10813                           ;mcc_generated_files/i2c_master.c: 304:     }
 10814  003C10  EF22  F01E         	goto	l256
 10815  003C14                     l3736:
 10816                           
 10817                           ;mcc_generated_files/i2c_master.c: 306:     {;mcc_generated_files/i2c_master.c: 307:    
      +                               I2C_Status.callbackTable[idx] = I2C_CallbackReturnStop;
 10818  003C14  5009               	movf	I2C_SetCallback@idx^0,w,c
 10819  003C16  0D02               	mullw	2
 10820  003C18  0E60               	movlw	low _I2C_Status
 10821  003C1A  24F3               	addwf	243,w,c
 10822  003C1C  6ED9               	movwf	fsr2l,c
 10823  003C1E  0E00               	movlw	high _I2C_Status
 10824  003C20  20F4               	addwfc	prodh,w,c
 10825  003C22  6EDA               	movwf	fsr2h,c
 10826  003C24  0E22               	movlw	low _I2C_CallbackReturnStop
 10827  003C26  6EDE               	movwf	postinc2,c
 10828  003C28  0E46               	movlw	high _I2C_CallbackReturnStop
 10829  003C2A  6EDD               	movwf	postdec2,c
 10830                           
 10831                           ;mcc_generated_files/i2c_master.c: 308:         I2C_Status.callbackPayload[idx] = ((void
      +                          *)0);
 10832  003C2C  5009               	movf	I2C_SetCallback@idx^0,w,c
 10833  003C2E  0D02               	mullw	2
 10834  003C30  0E6C               	movlw	low (_I2C_Status+12)
 10835  003C32  24F3               	addwf	243,w,c
 10836  003C34  6ED9               	movwf	fsr2l,c
 10837  003C36  0E00               	movlw	high (_I2C_Status+12)
 10838  003C38  20F4               	addwfc	prodh,w,c
 10839  003C3A  6EDA               	movwf	fsr2h,c
 10840  003C3C  0E00               	movlw	0
 10841  003C3E  6EDE               	movwf	postinc2,c
 10842  003C40  0E00               	movlw	0
 10843  003C42  6EDD               	movwf	postdec2,c
 10844  003C44                     l256:
 10845  003C44  0012               	return		;funcret
 10846  003C46                     __end_of_I2C_SetCallback:
 10847                           	callstack 0
 10848                           
 10849 ;; *************** function _I2C_SetBuffer *****************
 10850 ;; Defined at:
 10851 ;;		line 263 in file "mcc_generated_files/i2c_master.c"
 10852 ;; Parameters:    Size  Location     Type
 10853 ;;  buffer          2    4[COMRAM] PTR void 
 10854 ;;		 -> I2C_ReadDataBlock@reg(1), I2C_ReadDataBlock@bufferBlock(4), I2C_Write2ByteRegister@reg(1), I2C_Write2ByteRegiste
      +r@data(2), 
 10855 ;;		 -> I2C_Write1ByteRegister@reg(1), I2C_Write1ByteRegister@data(1), I2C_Read2ByteRegister@reg(1), I2C_Read2ByteRegist
      +er@returnValue(2), 
 10856 ;;		 -> NULL(0), I2C_Read1ByteRegister@reg(1), I2C_Read1ByteRegister@returnValue(1), 
 10857 ;;  bufferSize      2    6[COMRAM] unsigned int 
 10858 ;; Auto vars:     Size  Location     Type
 10859 ;;		None
 10860 ;; Return value:  Size  Location     Type
 10861 ;;                  1    wreg      void 
 10862 ;; Registers used:
 10863 ;;		wreg, status,2, status,0
 10864 ;; Tracked objects:
 10865 ;;		On entry : 0/0
 10866 ;;		On exit  : 0/0
 10867 ;;		Unchanged: 0/0
 10868 ;; Data sizes:     COMRAM   BANK0   BANK1   BANK2   BANK3   BANK4   BANK5   BANK6   BANK7   BANK8   BANK9  BANK10  BANK1
      +1  BANK12  BANK13  BANK14  BANK15
 10869 ;;      Params:         4       0       0       0       0       0       0       0       0       0       0       0       
      +0       0       0       0       0
 10870 ;;      Locals:         0       0       0       0       0       0       0       0       0       0       0       0       
      +0       0       0       0       0
 10871 ;;      Temps:          0       0       0       0       0       0       0       0       0       0       0       0       
      +0       0       0       0       0
 10872 ;;      Totals:         4       0       0       0       0       0       0       0       0       0       0       0       
      +0       0       0       0       0
 10873 ;;Total ram usage:        4 bytes
 10874 ;; Hardware stack levels used: 1
 10875 ;; Hardware stack levels required when called: 4
 10876 ;; This function calls:
 10877 ;;		Nothing
 10878 ;; This function is called by:
 10879 ;;		_I2C_Read2ByteRegister
 10880 ;;		_I2C_Write1ByteRegister
 10881 ;;		_I2C_Write2ByteRegister
 10882 ;;		_rd1RegCompleteHandler
 10883 ;;		_rd2RegCompleteHandler
 10884 ;;		_wr1RegCompleteHandler
 10885 ;;		_wr2RegCompleteHandler
 10886 ;;		_rdBlkRegCompleteHandler
 10887 ;;		_I2C_Read1ByteRegister
 10888 ;;		_I2C_WriteNBytes
 10889 ;;		_I2C_ReadNBytes
 10890 ;;		_I2C_ReadDataBlock
 10891 ;; This function uses a non-reentrant model
 10892 ;;
 10893                           
 10894                           	psect	text73
 10895  004446                     __ptext73:
 10896                           	callstack 0
 10897  004446                     _I2C_SetBuffer:
 10898                           	callstack 24
 10899  004446                     
 10900                           ;mcc_generated_files/i2c_master.c: 263: void I2C_SetBuffer(void *buffer, size_t bufferSi
      +                          ze);mcc_generated_files/i2c_master.c: 264: {;mcc_generated_files/i2c_master.c: 265:     
      +                          if(I2C_Status.bufferFree)
 10901  004446  0100               	movlb	0	; () banked
 10902  004448  A783               	btfss	(_I2C_Status+35)& (0+255),3,b
 10903  00444A  EF29  F022         	goto	u2811
 10904  00444E  EF2B  F022         	goto	u2810
 10905  004452                     u2811:
 10906  004452  EF34  F022         	goto	l236
 10907  004456                     u2810:
 10908  004456                     
 10909                           ; BSR set to: 0
 10910                           ;mcc_generated_files/i2c_master.c: 266:     {;mcc_generated_files/i2c_master.c: 267:    
      +                               I2C_Status.data_ptr = buffer;
 10911  004456  C005  F07D         	movff	I2C_SetBuffer@buffer,_I2C_Status+29
 10912  00445A  C006  F07E         	movff	I2C_SetBuffer@buffer+1,_I2C_Status+30
 10913  00445E                     
 10914                           ; BSR set to: 0
 10915                           ;mcc_generated_files/i2c_master.c: 268:         I2C_Status.data_length = bufferSize;
 10916  00445E  C007  F07F         	movff	I2C_SetBuffer@bufferSize,_I2C_Status+31
 10917  004462  C008  F080         	movff	I2C_SetBuffer@bufferSize+1,_I2C_Status+32
 10918  004466                     
 10919                           ; BSR set to: 0
 10920                           ;mcc_generated_files/i2c_master.c: 269:         I2C_Status.bufferFree = 0;
 10921  004466  9783               	bcf	(_I2C_Status+35)& (0+255),3,b
 10922  004468                     l236:
 10923                           
 10924                           ; BSR set to: 0
 10925  004468  0012               	return		;funcret
 10926  00446A                     __end_of_I2C_SetBuffer:
 10927                           	callstack 0
 10928                           
 10929 ;; *************** function _I2C_MasterStop *****************
 10930 ;; Defined at:
 10931 ;;		line 593 in file "mcc_generated_files/i2c_master.c"
 10932 ;; Parameters:    Size  Location     Type
 10933 ;;		None
 10934 ;; Auto vars:     Size  Location     Type
 10935 ;;		None
 10936 ;; Return value:  Size  Location     Type
 10937 ;;                  1    wreg      void 
 10938 ;; Registers used:
 10939 ;;		None
 10940 ;; Tracked objects:
 10941 ;;		On entry : 0/0
 10942 ;;		On exit  : 0/0
 10943 ;;		Unchanged: 0/0
 10944 ;; Data sizes:     COMRAM   BANK0   BANK1   BANK2   BANK3   BANK4   BANK5   BANK6   BANK7   BANK8   BANK9  BANK10  BANK1
      +1  BANK12  BANK13  BANK14  BANK15
 10945 ;;      Params:         0       0       0       0       0       0       0       0       0       0       0       0       
      +0       0       0       0       0
 10946 ;;      Locals:         0       0       0       0       0       0       0       0       0       0       0       0       
      +0       0       0       0       0
 10947 ;;      Temps:          0       0       0       0       0       0       0       0       0       0       0       0       
      +0       0       0       0       0
 10948 ;;      Totals:         0       0       0       0       0       0       0       0       0       0       0       0       
      +0       0       0       0       0
 10949 ;;Total ram usage:        0 bytes
 10950 ;; Hardware stack levels used: 1
 10951 ;; Hardware stack levels required when called: 4
 10952 ;; This function calls:
 10953 ;;		Nothing
 10954 ;; This function is called by:
 10955 ;;		_I2C_DO_SEND_STOP
 10956 ;; This function uses a non-reentrant model
 10957 ;;
 10958                           
 10959                           	psect	text74
 10960  004626                     __ptext74:
 10961                           	callstack 0
 10962  004626                     _I2C_MasterStop:
 10963                           	callstack 18
 10964  004626                     
 10965                           ;mcc_generated_files/i2c_master.c: 595:     SSPCON2bits.PEN = 1;
 10966  004626  84C5               	bsf	197,2,c	;volatile
 10967  004628  0012               	return		;funcret
 10968  00462A                     __end_of_I2C_MasterStop:
 10969                           	callstack 0
 10970                           
 10971 ;; *************** function _I2C_MasterEnableRestart *****************
 10972 ;; Defined at:
 10973 ;;		line 573 in file "mcc_generated_files/i2c_master.c"
 10974 ;; Parameters:    Size  Location     Type
 10975 ;;		None
 10976 ;; Auto vars:     Size  Location     Type
 10977 ;;		None
 10978 ;; Return value:  Size  Location     Type
 10979 ;;                  1    wreg      void 
 10980 ;; Registers used:
 10981 ;;		None
 10982 ;; Tracked objects:
 10983 ;;		On entry : 0/0
 10984 ;;		On exit  : 0/0
 10985 ;;		Unchanged: 0/0
 10986 ;; Data sizes:     COMRAM   BANK0   BANK1   BANK2   BANK3   BANK4   BANK5   BANK6   BANK7   BANK8   BANK9  BANK10  BANK1
      +1  BANK12  BANK13  BANK14  BANK15
 10987 ;;      Params:         0       0       0       0       0       0       0       0       0       0       0       0       
      +0       0       0       0       0
 10988 ;;      Locals:         0       0       0       0       0       0       0       0       0       0       0       0       
      +0       0       0       0       0
 10989 ;;      Temps:          0       0       0       0       0       0       0       0       0       0       0       0       
      +0       0       0       0       0
 10990 ;;      Totals:         0       0       0       0       0       0       0       0       0       0       0       0       
      +0       0       0       0       0
 10991 ;;Total ram usage:        0 bytes
 10992 ;; Hardware stack levels used: 1
 10993 ;; Hardware stack levels required when called: 4
 10994 ;; This function calls:
 10995 ;;		Nothing
 10996 ;; This function is called by:
 10997 ;;		_I2C_DO_SEND_RESTART_READ
 10998 ;;		_I2C_DO_SEND_RESTART_WRITE
 10999 ;;		_I2C_DO_SEND_RESTART
 11000 ;;		_I2C_DO_RX_EMPTY
 11001 ;; This function uses a non-reentrant model
 11002 ;;
 11003                           
 11004                           	psect	text75
 11005  00462A                     __ptext75:
 11006                           	callstack 0
 11007  00462A                     _I2C_MasterEnableRestart:
 11008                           	callstack 18
 11009  00462A                     
 11010                           ;mcc_generated_files/i2c_master.c: 575:     SSPCON2bits.RSEN = 1;
 11011  00462A  82C5               	bsf	197,1,c	;volatile
 11012  00462C  0012               	return		;funcret
 11013  00462E                     __end_of_I2C_MasterEnableRestart:
 11014                           	callstack 0
 11015                           
 11016 ;; *************** function _I2C_MasterStart *****************
 11017 ;; Defined at:
 11018 ;;		line 588 in file "mcc_generated_files/i2c_master.c"
 11019 ;; Parameters:    Size  Location     Type
 11020 ;;		None
 11021 ;; Auto vars:     Size  Location     Type
 11022 ;;		None
 11023 ;; Return value:  Size  Location     Type
 11024 ;;                  1    wreg      void 
 11025 ;; Registers used:
 11026 ;;		None
 11027 ;; Tracked objects:
 11028 ;;		On entry : 0/0
 11029 ;;		On exit  : 0/0
 11030 ;;		Unchanged: 0/0
 11031 ;; Data sizes:     COMRAM   BANK0   BANK1   BANK2   BANK3   BANK4   BANK5   BANK6   BANK7   BANK8   BANK9  BANK10  BANK1
      +1  BANK12  BANK13  BANK14  BANK15
 11032 ;;      Params:         0       0       0       0       0       0       0       0       0       0       0       0       
      +0       0       0       0       0
 11033 ;;      Locals:         0       0       0       0       0       0       0       0       0       0       0       0       
      +0       0       0       0       0
 11034 ;;      Temps:          0       0       0       0       0       0       0       0       0       0       0       0       
      +0       0       0       0       0
 11035 ;;      Totals:         0       0       0       0       0       0       0       0       0       0       0       0       
      +0       0       0       0       0
 11036 ;;Total ram usage:        0 bytes
 11037 ;; Hardware stack levels used: 1
 11038 ;; Hardware stack levels required when called: 4
 11039 ;; This function calls:
 11040 ;;		Nothing
 11041 ;; This function is called by:
 11042 ;;		_I2C_MasterOperation
 11043 ;; This function uses a non-reentrant model
 11044 ;;
 11045                           
 11046                           	psect	text76
 11047  00462E                     __ptext76:
 11048                           	callstack 0
 11049  00462E                     _I2C_MasterStart:
 11050                           	callstack 22
 11051  00462E                     
 11052                           ;mcc_generated_files/i2c_master.c: 590:     SSPCON2bits.SEN = 1;
 11053  00462E  80C5               	bsf	197,0,c	;volatile
 11054  004630  0012               	return		;funcret
 11055  004632                     __end_of_I2C_MasterStart:
 11056                           	callstack 0
 11057                           
 11058 ;; *************** function _I2C_Close *****************
 11059 ;; Defined at:
 11060 ;;		line 209 in file "mcc_generated_files/i2c_master.c"
 11061 ;; Parameters:    Size  Location     Type
 11062 ;;		None
 11063 ;; Auto vars:     Size  Location     Type
 11064 ;;  returnValue     1    4[COMRAM] enum E355
 11065 ;; Return value:  Size  Location     Type
 11066 ;;                  1    wreg      enum E355
 11067 ;; Registers used:
 11068 ;;		wreg, status,2, cstack
 11069 ;; Tracked objects:
 11070 ;;		On entry : 0/0
 11071 ;;		On exit  : 0/0
 11072 ;;		Unchanged: 0/0
 11073 ;; Data sizes:     COMRAM   BANK0   BANK1   BANK2   BANK3   BANK4   BANK5   BANK6   BANK7   BANK8   BANK9  BANK10  BANK1
      +1  BANK12  BANK13  BANK14  BANK15
 11074 ;;      Params:         0       0       0       0       0       0       0       0       0       0       0       0       
      +0       0       0       0       0
 11075 ;;      Locals:         1       0       0       0       0       0       0       0       0       0       0       0       
      +0       0       0       0       0
 11076 ;;      Temps:          0       0       0       0       0       0       0       0       0       0       0       0       
      +0       0       0       0       0
 11077 ;;      Totals:         1       0       0       0       0       0       0       0       0       0       0       0       
      +0       0       0       0       0
 11078 ;;Total ram usage:        1 bytes
 11079 ;; Hardware stack levels used: 1
 11080 ;; Hardware stack levels required when called: 5
 11081 ;; This function calls:
 11082 ;;		_I2C_MasterClearIrq
 11083 ;;		_I2C_MasterClose
 11084 ;;		_I2C_MasterDisableIrq
 11085 ;; This function is called by:
 11086 ;;		_I2C_Read2ByteRegister
 11087 ;;		_I2C_Write1ByteRegister
 11088 ;;		_I2C_Write2ByteRegister
 11089 ;;		_I2C_Read1ByteRegister
 11090 ;;		_I2C_WriteNBytes
 11091 ;;		_I2C_ReadNBytes
 11092 ;;		_I2C_ReadDataBlock
 11093 ;; This function uses a non-reentrant model
 11094 ;;
 11095                           
 11096                           	psect	text77
 11097  0043C8                     __ptext77:
 11098                           	callstack 0
 11099  0043C8                     _I2C_Close:
 11100                           	callstack 23
 11101  0043C8                     
 11102                           ;mcc_generated_files/i2c_master.c: 211:     i2c_error_t returnValue = I2C_BUSY;
 11103  0043C8  0E01               	movlw	1
 11104  0043CA  6E05               	movwf	I2C_Close@returnValue^0,c
 11105  0043CC                     
 11106                           ;mcc_generated_files/i2c_master.c: 212:     if(!I2C_Status.busy)
 11107  0043CC  0100               	movlb	0	; () banked
 11108  0043CE  B383               	btfsc	(_I2C_Status+35)& (0+255),1,b
 11109  0043D0  EFEC  F021         	goto	u5041
 11110  0043D4  EFEE  F021         	goto	u5040
 11111  0043D8                     u5041:
 11112  0043D8  EFF8  F021         	goto	l5246
 11113  0043DC                     u5040:
 11114  0043DC                     
 11115                           ; BSR set to: 0
 11116                           ;mcc_generated_files/i2c_master.c: 213:     {;mcc_generated_files/i2c_master.c: 214:    
      +                               I2C_Status.inUse = 0;
 11117  0043DC  9583               	bcf	(_I2C_Status+35)& (0+255),2,b
 11118                           
 11119                           ;mcc_generated_files/i2c_master.c: 215:         I2C_Status.address = 0xff;
 11120  0043DE  697C               	setf	(_I2C_Status+28)& (0+255),b
 11121  0043E0                     
 11122                           ; BSR set to: 0
 11123                           ;mcc_generated_files/i2c_master.c: 216:         I2C_MasterClearIrq();
 11124  0043E0  EC1D  F023         	call	_I2C_MasterClearIrq	;wreg free
 11125                           
 11126                           ;mcc_generated_files/i2c_master.c: 217:         I2C_MasterDisableIrq();
 11127  0043E4  EC19  F023         	call	_I2C_MasterDisableIrq	;wreg free
 11128                           
 11129                           ;mcc_generated_files/i2c_master.c: 218:         I2C_MasterClose();
 11130  0043E8  EC1B  F023         	call	_I2C_MasterClose	;wreg free
 11131  0043EC                     
 11132                           ;mcc_generated_files/i2c_master.c: 219:         returnValue = I2C_Status.error;
 11133  0043EC  C082  F005         	movff	_I2C_Status+34,I2C_Close@returnValue
 11134  0043F0                     l5246:
 11135                           
 11136                           ;mcc_generated_files/i2c_master.c: 221:     return returnValue;
 11137  0043F0  5005               	movf	I2C_Close@returnValue^0,w,c
 11138  0043F2  0012               	return		;funcret
 11139  0043F4                     __end_of_I2C_Close:
 11140                           	callstack 0
 11141                           
 11142 ;; *************** function _I2C_MasterDisableIrq *****************
 11143 ;; Defined at:
 11144 ;;		line 635 in file "mcc_generated_files/i2c_master.c"
 11145 ;; Parameters:    Size  Location     Type
 11146 ;;		None
 11147 ;; Auto vars:     Size  Location     Type
 11148 ;;		None
 11149 ;; Return value:  Size  Location     Type
 11150 ;;                  1    wreg      void 
 11151 ;; Registers used:
 11152 ;;		None
 11153 ;; Tracked objects:
 11154 ;;		On entry : 0/0
 11155 ;;		On exit  : 0/0
 11156 ;;		Unchanged: 0/0
 11157 ;; Data sizes:     COMRAM   BANK0   BANK1   BANK2   BANK3   BANK4   BANK5   BANK6   BANK7   BANK8   BANK9  BANK10  BANK1
      +1  BANK12  BANK13  BANK14  BANK15
 11158 ;;      Params:         0       0       0       0       0       0       0       0       0       0       0       0       
      +0       0       0       0       0
 11159 ;;      Locals:         0       0       0       0       0       0       0       0       0       0       0       0       
      +0       0       0       0       0
 11160 ;;      Temps:          0       0       0       0       0       0       0       0       0       0       0       0       
      +0       0       0       0       0
 11161 ;;      Totals:         0       0       0       0       0       0       0       0       0       0       0       0       
      +0       0       0       0       0
 11162 ;;Total ram usage:        0 bytes
 11163 ;; Hardware stack levels used: 1
 11164 ;; Hardware stack levels required when called: 4
 11165 ;; This function calls:
 11166 ;;		Nothing
 11167 ;; This function is called by:
 11168 ;;		_I2C_Close
 11169 ;;		_I2C_SetTimeOut
 11170 ;; This function uses a non-reentrant model
 11171 ;;
 11172                           
 11173                           	psect	text78
 11174  004632                     __ptext78:
 11175                           	callstack 0
 11176  004632                     _I2C_MasterDisableIrq:
 11177                           	callstack 23
 11178  004632                     
 11179                           ;mcc_generated_files/i2c_master.c: 637:     PIE1bits.SSPIE = 0;
 11180  004632  969D               	bcf	157,3,c	;volatile
 11181  004634  0012               	return		;funcret
 11182  004636                     __end_of_I2C_MasterDisableIrq:
 11183                           	callstack 0
 11184                           
 11185 ;; *************** function _I2C_MasterClose *****************
 11186 ;; Defined at:
 11187 ;;		line 557 in file "mcc_generated_files/i2c_master.c"
 11188 ;; Parameters:    Size  Location     Type
 11189 ;;		None
 11190 ;; Auto vars:     Size  Location     Type
 11191 ;;		None
 11192 ;; Return value:  Size  Location     Type
 11193 ;;                  1    wreg      void 
 11194 ;; Registers used:
 11195 ;;		None
 11196 ;; Tracked objects:
 11197 ;;		On entry : 0/0
 11198 ;;		On exit  : 0/0
 11199 ;;		Unchanged: 0/0
 11200 ;; Data sizes:     COMRAM   BANK0   BANK1   BANK2   BANK3   BANK4   BANK5   BANK6   BANK7   BANK8   BANK9  BANK10  BANK1
      +1  BANK12  BANK13  BANK14  BANK15
 11201 ;;      Params:         0       0       0       0       0       0       0       0       0       0       0       0       
      +0       0       0       0       0
 11202 ;;      Locals:         0       0       0       0       0       0       0       0       0       0       0       0       
      +0       0       0       0       0
 11203 ;;      Temps:          0       0       0       0       0       0       0       0       0       0       0       0       
      +0       0       0       0       0
 11204 ;;      Totals:         0       0       0       0       0       0       0       0       0       0       0       0       
      +0       0       0       0       0
 11205 ;;Total ram usage:        0 bytes
 11206 ;; Hardware stack levels used: 1
 11207 ;; Hardware stack levels required when called: 4
 11208 ;; This function calls:
 11209 ;;		Nothing
 11210 ;; This function is called by:
 11211 ;;		_I2C_Close
 11212 ;; This function uses a non-reentrant model
 11213 ;;
 11214                           
 11215                           	psect	text79
 11216  004636                     __ptext79:
 11217                           	callstack 0
 11218  004636                     _I2C_MasterClose:
 11219                           	callstack 23
 11220  004636                     
 11221                           ;mcc_generated_files/i2c_master.c: 560:     SSPCON1bits.SSPEN = 0;
 11222  004636  9AC6               	bcf	198,5,c	;volatile
 11223  004638  0012               	return		;funcret
 11224  00463A                     __end_of_I2C_MasterClose:
 11225                           	callstack 0
 11226                           
 11227 ;; *************** function _I2C_MasterClearIrq *****************
 11228 ;; Defined at:
 11229 ;;		line 640 in file "mcc_generated_files/i2c_master.c"
 11230 ;; Parameters:    Size  Location     Type
 11231 ;;		None
 11232 ;; Auto vars:     Size  Location     Type
 11233 ;;		None
 11234 ;; Return value:  Size  Location     Type
 11235 ;;                  1    wreg      void 
 11236 ;; Registers used:
 11237 ;;		None
 11238 ;; Tracked objects:
 11239 ;;		On entry : 0/0
 11240 ;;		On exit  : 0/0
 11241 ;;		Unchanged: 0/0
 11242 ;; Data sizes:     COMRAM   BANK0   BANK1   BANK2   BANK3   BANK4   BANK5   BANK6   BANK7   BANK8   BANK9  BANK10  BANK1
      +1  BANK12  BANK13  BANK14  BANK15
 11243 ;;      Params:         0       0       0       0       0       0       0       0       0       0       0       0       
      +0       0       0       0       0
 11244 ;;      Locals:         0       0       0       0       0       0       0       0       0       0       0       0       
      +0       0       0       0       0
 11245 ;;      Temps:          0       0       0       0       0       0       0       0       0       0       0       0       
      +0       0       0       0       0
 11246 ;;      Totals:         0       0       0       0       0       0       0       0       0       0       0       0       
      +0       0       0       0       0
 11247 ;;Total ram usage:        0 bytes
 11248 ;; Hardware stack levels used: 1
 11249 ;; Hardware stack levels required when called: 4
 11250 ;; This function calls:
 11251 ;;		Nothing
 11252 ;; This function is called by:
 11253 ;;		_I2C_Open
 11254 ;;		_I2C_Close
 11255 ;;		_I2C_MasterFsm
 11256 ;; This function uses a non-reentrant model
 11257 ;;
 11258                           
 11259                           	psect	text80
 11260  00463A                     __ptext80:
 11261                           	callstack 0
 11262  00463A                     _I2C_MasterClearIrq:
 11263                           	callstack 23
 11264  00463A                     
 11265                           ;mcc_generated_files/i2c_master.c: 642:     PIR1bits.SSPIF = 0;
 11266  00463A  969E               	bcf	158,3,c	;volatile
 11267  00463C  0012               	return		;funcret
 11268  00463E                     __end_of_I2C_MasterClearIrq:
 11269                           	callstack 0
 11270                           
 11271 ;; *************** function _SYSTEM_Initialize *****************
 11272 ;; Defined at:
 11273 ;;		line 50 in file "mcc_generated_files/mcc.c"
 11274 ;; Parameters:    Size  Location     Type
 11275 ;;		None
 11276 ;; Auto vars:     Size  Location     Type
 11277 ;;		None
 11278 ;; Return value:  Size  Location     Type
 11279 ;;                  1    wreg      void 
 11280 ;; Registers used:
 11281 ;;		wreg, status,2, status,0, cstack
 11282 ;; Tracked objects:
 11283 ;;		On entry : 0/0
 11284 ;;		On exit  : 0/0
 11285 ;;		Unchanged: 0/0
 11286 ;; Data sizes:     COMRAM   BANK0   BANK1   BANK2   BANK3   BANK4   BANK5   BANK6   BANK7   BANK8   BANK9  BANK10  BANK1
      +1  BANK12  BANK13  BANK14  BANK15
 11287 ;;      Params:         0       0       0       0       0       0       0       0       0       0       0       0       
      +0       0       0       0       0
 11288 ;;      Locals:         0       0       0       0       0       0       0       0       0       0       0       0       
      +0       0       0       0       0
 11289 ;;      Temps:          0       0       0       0       0       0       0       0       0       0       0       0       
      +0       0       0       0       0
 11290 ;;      Totals:         0       0       0       0       0       0       0       0       0       0       0       0       
      +0       0       0       0       0
 11291 ;;Total ram usage:        0 bytes
 11292 ;; Hardware stack levels used: 1
 11293 ;; Hardware stack levels required when called: 6
 11294 ;; This function calls:
 11295 ;;		_EUSART_Initialize
 11296 ;;		_I2C_Initialize
 11297 ;;		_INTERRUPT_Initialize
 11298 ;;		_OSCILLATOR_Initialize
 11299 ;;		_PIN_MANAGER_Initialize
 11300 ;; This function is called by:
 11301 ;;		_main
 11302 ;; This function uses a non-reentrant model
 11303 ;;
 11304                           
 11305                           	psect	text81
 11306  0044DA                     __ptext81:
 11307                           	callstack 0
 11308  0044DA                     _SYSTEM_Initialize:
 11309                           	callstack 24
 11310  0044DA                     
 11311                           ;mcc_generated_files/mcc.c: 53:     INTERRUPT_Initialize();
 11312  0044DA  EC1F  F023         	call	_INTERRUPT_Initialize	;wreg free
 11313  0044DE                     
 11314                           ;mcc_generated_files/mcc.c: 54:     I2C_Initialize();
 11315  0044DE  EC82  F022         	call	_I2C_Initialize	;wreg free
 11316  0044E2                     
 11317                           ;mcc_generated_files/mcc.c: 55:     PIN_MANAGER_Initialize();
 11318  0044E2  EC5E  F021         	call	_PIN_MANAGER_Initialize	;wreg free
 11319  0044E6                     
 11320                           ;mcc_generated_files/mcc.c: 56:     OSCILLATOR_Initialize();
 11321  0044E6  ECBB  F022         	call	_OSCILLATOR_Initialize	;wreg free
 11322  0044EA                     
 11323                           ;mcc_generated_files/mcc.c: 57:     EUSART_Initialize();
 11324  0044EA  EC23  F01E         	call	_EUSART_Initialize	;wreg free
 11325  0044EE  0012               	return		;funcret
 11326  0044F0                     __end_of_SYSTEM_Initialize:
 11327                           	callstack 0
 11328                           
 11329 ;; *************** function _PIN_MANAGER_Initialize *****************
 11330 ;; Defined at:
 11331 ;;		line 55 in file "mcc_generated_files/pin_manager.c"
 11332 ;; Parameters:    Size  Location     Type
 11333 ;;		None
 11334 ;; Auto vars:     Size  Location     Type
 11335 ;;		None
 11336 ;; Return value:  Size  Location     Type
 11337 ;;                  1    wreg      void 
 11338 ;; Registers used:
 11339 ;;		wreg, status,2
 11340 ;; Tracked objects:
 11341 ;;		On entry : 0/0
 11342 ;;		On exit  : 0/0
 11343 ;;		Unchanged: 0/0
 11344 ;; Data sizes:     COMRAM   BANK0   BANK1   BANK2   BANK3   BANK4   BANK5   BANK6   BANK7   BANK8   BANK9  BANK10  BANK1
      +1  BANK12  BANK13  BANK14  BANK15
 11345 ;;      Params:         0       0       0       0       0       0       0       0       0       0       0       0       
      +0       0       0       0       0
 11346 ;;      Locals:         0       0       0       0       0       0       0       0       0       0       0       0       
      +0       0       0       0       0
 11347 ;;      Temps:          0       0       0       0       0       0       0       0       0       0       0       0       
      +0       0       0       0       0
 11348 ;;      Totals:         0       0       0       0       0       0       0       0       0       0       0       0       
      +0       0       0       0       0
 11349 ;;Total ram usage:        0 bytes
 11350 ;; Hardware stack levels used: 1
 11351 ;; Hardware stack levels required when called: 4
 11352 ;; This function calls:
 11353 ;;		Nothing
 11354 ;; This function is called by:
 11355 ;;		_SYSTEM_Initialize
 11356 ;; This function uses a non-reentrant model
 11357 ;;
 11358                           
 11359                           	psect	text82
 11360  0042BC                     __ptext82:
 11361                           	callstack 0
 11362  0042BC                     _PIN_MANAGER_Initialize:
 11363                           	callstack 25
 11364  0042BC                     
 11365                           ;mcc_generated_files/pin_manager.c: 60:     LATE = 0x00;
 11366  0042BC  0E00               	movlw	0
 11367  0042BE  6E8D               	movwf	141,c	;volatile
 11368                           
 11369                           ;mcc_generated_files/pin_manager.c: 61:     LATD = 0x00;
 11370  0042C0  0E00               	movlw	0
 11371  0042C2  6E8C               	movwf	140,c	;volatile
 11372                           
 11373                           ;mcc_generated_files/pin_manager.c: 62:     LATA = 0x00;
 11374  0042C4  0E00               	movlw	0
 11375  0042C6  6E89               	movwf	137,c	;volatile
 11376                           
 11377                           ;mcc_generated_files/pin_manager.c: 63:     LATB = 0x00;
 11378  0042C8  0E00               	movlw	0
 11379  0042CA  6E8A               	movwf	138,c	;volatile
 11380                           
 11381                           ;mcc_generated_files/pin_manager.c: 64:     LATC = 0x00;
 11382  0042CC  0E00               	movlw	0
 11383  0042CE  6E8B               	movwf	139,c	;volatile
 11384                           
 11385                           ;mcc_generated_files/pin_manager.c: 69:     TRISE = 0x07;
 11386  0042D0  0E07               	movlw	7
 11387  0042D2  6E96               	movwf	150,c	;volatile
 11388  0042D4                     
 11389                           ;mcc_generated_files/pin_manager.c: 70:     TRISA = 0xFF;
 11390  0042D4  6892               	setf	146,c	;volatile
 11391  0042D6                     
 11392                           ;mcc_generated_files/pin_manager.c: 71:     TRISB = 0xFF;
 11393  0042D6  6893               	setf	147,c	;volatile
 11394                           
 11395                           ;mcc_generated_files/pin_manager.c: 72:     TRISC = 0xBF;
 11396  0042D8  0EBF               	movlw	191
 11397  0042DA  6E94               	movwf	148,c	;volatile
 11398  0042DC                     
 11399                           ;mcc_generated_files/pin_manager.c: 73:     TRISD = 0xFF;
 11400  0042DC  6895               	setf	149,c	;volatile
 11401  0042DE                     
 11402                           ;mcc_generated_files/pin_manager.c: 78:     ANSEL = 0xFF;
 11403  0042DE  687E               	setf	126,c	;volatile
 11404                           
 11405                           ;mcc_generated_files/pin_manager.c: 79:     ANSELH = 0x1F;
 11406  0042E0  0E1F               	movlw	31
 11407  0042E2  6E7F               	movwf	127,c	;volatile
 11408                           
 11409                           ;mcc_generated_files/pin_manager.c: 84:     WPUB = 0x00;
 11410  0042E4  0E00               	movlw	0
 11411  0042E6  6E7C               	movwf	124,c	;volatile
 11412  0042E8                     
 11413                           ;mcc_generated_files/pin_manager.c: 85:     INTCON2bits.nRBPU = 1;
 11414  0042E8  8EF1               	bsf	241,7,c	;volatile
 11415  0042EA  0012               	return		;funcret
 11416  0042EC                     __end_of_PIN_MANAGER_Initialize:
 11417                           	callstack 0
 11418                           
 11419 ;; *************** function _OSCILLATOR_Initialize *****************
 11420 ;; Defined at:
 11421 ;;		line 60 in file "mcc_generated_files/mcc.c"
 11422 ;; Parameters:    Size  Location     Type
 11423 ;;		None
 11424 ;; Auto vars:     Size  Location     Type
 11425 ;;		None
 11426 ;; Return value:  Size  Location     Type
 11427 ;;                  1    wreg      void 
 11428 ;; Registers used:
 11429 ;;		wreg, status,2
 11430 ;; Tracked objects:
 11431 ;;		On entry : 0/0
 11432 ;;		On exit  : 0/0
 11433 ;;		Unchanged: 0/0
 11434 ;; Data sizes:     COMRAM   BANK0   BANK1   BANK2   BANK3   BANK4   BANK5   BANK6   BANK7   BANK8   BANK9  BANK10  BANK1
      +1  BANK12  BANK13  BANK14  BANK15
 11435 ;;      Params:         0       0       0       0       0       0       0       0       0       0       0       0       
      +0       0       0       0       0
 11436 ;;      Locals:         0       0       0       0       0       0       0       0       0       0       0       0       
      +0       0       0       0       0
 11437 ;;      Temps:          0       0       0       0       0       0       0       0       0       0       0       0       
      +0       0       0       0       0
 11438 ;;      Totals:         0       0       0       0       0       0       0       0       0       0       0       0       
      +0       0       0       0       0
 11439 ;;Total ram usage:        0 bytes
 11440 ;; Hardware stack levels used: 1
 11441 ;; Hardware stack levels required when called: 4
 11442 ;; This function calls:
 11443 ;;		Nothing
 11444 ;; This function is called by:
 11445 ;;		_SYSTEM_Initialize
 11446 ;; This function uses a non-reentrant model
 11447 ;;
 11448                           
 11449                           	psect	text83
 11450  004576                     __ptext83:
 11451                           	callstack 0
 11452  004576                     _OSCILLATOR_Initialize:
 11453                           	callstack 25
 11454  004576                     
 11455                           ;mcc_generated_files/mcc.c: 63:     OSCCON = 0x60;
 11456  004576  0E60               	movlw	96
 11457  004578  6ED3               	movwf	211,c	;volatile
 11458                           
 11459                           ;mcc_generated_files/mcc.c: 65:     OSCTUNE = 0x00;
 11460  00457A  0E00               	movlw	0
 11461  00457C  6E9B               	movwf	155,c	;volatile
 11462  00457E  0012               	return		;funcret
 11463  004580                     __end_of_OSCILLATOR_Initialize:
 11464                           	callstack 0
 11465                           
 11466 ;; *************** function _INTERRUPT_Initialize *****************
 11467 ;; Defined at:
 11468 ;;		line 52 in file "mcc_generated_files/interrupt_manager.c"
 11469 ;; Parameters:    Size  Location     Type
 11470 ;;		None
 11471 ;; Auto vars:     Size  Location     Type
 11472 ;;		None
 11473 ;; Return value:  Size  Location     Type
 11474 ;;                  1    wreg      void 
 11475 ;; Registers used:
 11476 ;;		None
 11477 ;; Tracked objects:
 11478 ;;		On entry : 0/0
 11479 ;;		On exit  : 0/0
 11480 ;;		Unchanged: 0/0
 11481 ;; Data sizes:     COMRAM   BANK0   BANK1   BANK2   BANK3   BANK4   BANK5   BANK6   BANK7   BANK8   BANK9  BANK10  BANK1
      +1  BANK12  BANK13  BANK14  BANK15
 11482 ;;      Params:         0       0       0       0       0       0       0       0       0       0       0       0       
      +0       0       0       0       0
 11483 ;;      Locals:         0       0       0       0       0       0       0       0       0       0       0       0       
      +0       0       0       0       0
 11484 ;;      Temps:          0       0       0       0       0       0       0       0       0       0       0       0       
      +0       0       0       0       0
 11485 ;;      Totals:         0       0       0       0       0       0       0       0       0       0       0       0       
      +0       0       0       0       0
 11486 ;;Total ram usage:        0 bytes
 11487 ;; Hardware stack levels used: 1
 11488 ;; Hardware stack levels required when called: 4
 11489 ;; This function calls:
 11490 ;;		Nothing
 11491 ;; This function is called by:
 11492 ;;		_SYSTEM_Initialize
 11493 ;; This function uses a non-reentrant model
 11494 ;;
 11495                           
 11496                           	psect	text84
 11497  00463E                     __ptext84:
 11498                           	callstack 0
 11499  00463E                     _INTERRUPT_Initialize:
 11500                           	callstack 25
 11501  00463E                     
 11502                           ;mcc_generated_files/interrupt_manager.c: 55:     RCONbits.IPEN = 0;
 11503  00463E  9ED0               	bcf	208,7,c	;volatile
 11504  004640  0012               	return		;funcret
 11505  004642                     __end_of_INTERRUPT_Initialize:
 11506                           	callstack 0
 11507                           
 11508 ;; *************** function _I2C_Initialize *****************
 11509 ;; Defined at:
 11510 ;;		line 167 in file "mcc_generated_files/i2c_master.c"
 11511 ;; Parameters:    Size  Location     Type
 11512 ;;		None
 11513 ;; Auto vars:     Size  Location     Type
 11514 ;;		None
 11515 ;; Return value:  Size  Location     Type
 11516 ;;                  1    wreg      void 
 11517 ;; Registers used:
 11518 ;;		wreg, status,2
 11519 ;; Tracked objects:
 11520 ;;		On entry : 0/0
 11521 ;;		On exit  : 0/0
 11522 ;;		Unchanged: 0/0
 11523 ;; Data sizes:     COMRAM   BANK0   BANK1   BANK2   BANK3   BANK4   BANK5   BANK6   BANK7   BANK8   BANK9  BANK10  BANK1
      +1  BANK12  BANK13  BANK14  BANK15
 11524 ;;      Params:         0       0       0       0       0       0       0       0       0       0       0       0       
      +0       0       0       0       0
 11525 ;;      Locals:         0       0       0       0       0       0       0       0       0       0       0       0       
      +0       0       0       0       0
 11526 ;;      Temps:          0       0       0       0       0       0       0       0       0       0       0       0       
      +0       0       0       0       0
 11527 ;;      Totals:         0       0       0       0       0       0       0       0       0       0       0       0       
      +0       0       0       0       0
 11528 ;;Total ram usage:        0 bytes
 11529 ;; Hardware stack levels used: 1
 11530 ;; Hardware stack levels required when called: 4
 11531 ;; This function calls:
 11532 ;;		Nothing
 11533 ;; This function is called by:
 11534 ;;		_SYSTEM_Initialize
 11535 ;; This function uses a non-reentrant model
 11536 ;;
 11537                           
 11538                           	psect	text85
 11539  004504                     __ptext85:
 11540                           	callstack 0
 11541  004504                     _I2C_Initialize:
 11542                           	callstack 25
 11543  004504                     
 11544                           ;mcc_generated_files/i2c_master.c: 169:     SSPSTAT = 0x00;
 11545  004504  0E00               	movlw	0
 11546  004506  6EC7               	movwf	199,c	;volatile
 11547                           
 11548                           ;mcc_generated_files/i2c_master.c: 170:     SSPCON1 = 0x08;
 11549  004508  0E08               	movlw	8
 11550  00450A  6EC6               	movwf	198,c	;volatile
 11551                           
 11552                           ;mcc_generated_files/i2c_master.c: 171:     SSPCON2 = 0x00;
 11553  00450C  0E00               	movlw	0
 11554  00450E  6EC5               	movwf	197,c	;volatile
 11555                           
 11556                           ;mcc_generated_files/i2c_master.c: 172:     SSPADD = 0x13;
 11557  004510  0E13               	movlw	19
 11558  004512  6EC8               	movwf	200,c	;volatile
 11559  004514                     
 11560                           ;mcc_generated_files/i2c_master.c: 173:     SSPCON1bits.SSPEN = 0;
 11561  004514  9AC6               	bcf	198,5,c	;volatile
 11562  004516  0012               	return		;funcret
 11563  004518                     __end_of_I2C_Initialize:
 11564                           	callstack 0
 11565                           
 11566 ;; *************** function _EUSART_Initialize *****************
 11567 ;; Defined at:
 11568 ;;		line 88 in file "mcc_generated_files/eusart.c"
 11569 ;; Parameters:    Size  Location     Type
 11570 ;;		None
 11571 ;; Auto vars:     Size  Location     Type
 11572 ;;		None
 11573 ;; Return value:  Size  Location     Type
 11574 ;;                  1    wreg      void 
 11575 ;; Registers used:
 11576 ;;		wreg, status,2, status,0, cstack
 11577 ;; Tracked objects:
 11578 ;;		On entry : 0/0
 11579 ;;		On exit  : 0/0
 11580 ;;		Unchanged: 0/0
 11581 ;; Data sizes:     COMRAM   BANK0   BANK1   BANK2   BANK3   BANK4   BANK5   BANK6   BANK7   BANK8   BANK9  BANK10  BANK1
      +1  BANK12  BANK13  BANK14  BANK15
 11582 ;;      Params:         0       0       0       0       0       0       0       0       0       0       0       0       
      +0       0       0       0       0
 11583 ;;      Locals:         0       0       0       0       0       0       0       0       0       0       0       0       
      +0       0       0       0       0
 11584 ;;      Temps:          0       0       0       0       0       0       0       0       0       0       0       0       
      +0       0       0       0       0
 11585 ;;      Totals:         0       0       0       0       0       0       0       0       0       0       0       0       
      +0       0       0       0       0
 11586 ;;Total ram usage:        0 bytes
 11587 ;; Hardware stack levels used: 1
 11588 ;; Hardware stack levels required when called: 5
 11589 ;; This function calls:
 11590 ;;		_EUSART_SetErrorHandler
 11591 ;;		_EUSART_SetFramingErrorHandler
 11592 ;;		_EUSART_SetOverrunErrorHandler
 11593 ;;		_EUSART_SetRxInterruptHandler
 11594 ;;		_EUSART_SetTxInterruptHandler
 11595 ;; This function is called by:
 11596 ;;		_SYSTEM_Initialize
 11597 ;; This function uses a non-reentrant model
 11598 ;;
 11599                           
 11600                           	psect	text86
 11601  003C46                     __ptext86:
 11602                           	callstack 0
 11603  003C46                     _EUSART_Initialize:
 11604                           	callstack 24
 11605  003C46                     
 11606                           ;mcc_generated_files/eusart.c: 91:     PIE1bits.RC1IE = 0;
 11607  003C46  9A9D               	bcf	157,5,c	;volatile
 11608  003C48                     
 11609                           ;mcc_generated_files/eusart.c: 92:     EUSART_SetRxInterruptHandler(EUSART_Receive_ISR);
 11610  003C48  0EE8               	movlw	low _EUSART_Receive_ISR
 11611  003C4A  6E05               	movwf	EUSART_SetRxInterruptHandler@interruptHandler^0,c
 11612  003C4C  0E36               	movlw	high _EUSART_Receive_ISR
 11613  003C4E  6E06               	movwf	(EUSART_SetRxInterruptHandler@interruptHandler+1)^0,c
 11614  003C50  ECC5  F022         	call	_EUSART_SetRxInterruptHandler	;wreg free
 11615  003C54                     
 11616                           ;mcc_generated_files/eusart.c: 93:     PIE1bits.TX1IE = 0;
 11617  003C54  989D               	bcf	157,4,c	;volatile
 11618                           
 11619                           ;mcc_generated_files/eusart.c: 94:     EUSART_SetTxInterruptHandler(EUSART_Transmit_ISR)
      +                          ;
 11620  003C56  0E5E               	movlw	low _EUSART_Transmit_ISR
 11621  003C58  6E05               	movwf	EUSART_SetTxInterruptHandler@interruptHandler^0,c
 11622  003C5A  0E41               	movlw	high _EUSART_Transmit_ISR
 11623  003C5C  6E06               	movwf	(EUSART_SetTxInterruptHandler@interruptHandler+1)^0,c
 11624  003C5E  ECC0  F022         	call	_EUSART_SetTxInterruptHandler	;wreg free
 11625  003C62                     
 11626                           ;mcc_generated_files/eusart.c: 98:     BAUDCON = 0x08;
 11627  003C62  0E08               	movlw	8
 11628  003C64  6EB8               	movwf	184,c	;volatile
 11629  003C66                     
 11630                           ;mcc_generated_files/eusart.c: 101:     RCSTA = 0x90;
 11631  003C66  0E90               	movlw	144
 11632  003C68  6EAB               	movwf	171,c	;volatile
 11633  003C6A                     
 11634                           ;mcc_generated_files/eusart.c: 104:     TXSTA = 0x24;
 11635  003C6A  0E24               	movlw	36
 11636  003C6C  6EAC               	movwf	172,c	;volatile
 11637  003C6E                     
 11638                           ;mcc_generated_files/eusart.c: 107:     SPBRG = 0xCF;
 11639  003C6E  0ECF               	movlw	207
 11640  003C70  6EAF               	movwf	175,c	;volatile
 11641  003C72                     
 11642                           ;mcc_generated_files/eusart.c: 110:     SPBRGH = 0x00;
 11643  003C72  0E00               	movlw	0
 11644  003C74  6EB0               	movwf	176,c	;volatile
 11645  003C76                     
 11646                           ;mcc_generated_files/eusart.c: 113:     EUSART_SetFramingErrorHandler(EUSART_DefaultFram
      +                          ingErrorHandler);
 11647  003C76  0E42               	movlw	low _EUSART_DefaultFramingErrorHandler
 11648  003C78  6E05               	movwf	EUSART_SetFramingErrorHandler@interruptHandler^0,c
 11649  003C7A  0E46               	movlw	high _EUSART_DefaultFramingErrorHandler
 11650  003C7C  6E06               	movwf	(EUSART_SetFramingErrorHandler@interruptHandler+1)^0,c
 11651  003C7E  ECCF  F022         	call	_EUSART_SetFramingErrorHandler	;wreg free
 11652  003C82                     
 11653                           ;mcc_generated_files/eusart.c: 114:     EUSART_SetOverrunErrorHandler(EUSART_DefaultOver
      +                          runErrorHandler);
 11654  003C82  0E06               	movlw	low _EUSART_DefaultOverrunErrorHandler
 11655  003C84  6E05               	movwf	EUSART_SetOverrunErrorHandler@interruptHandler^0,c
 11656  003C86  0E46               	movlw	high _EUSART_DefaultOverrunErrorHandler
 11657  003C88  6E06               	movwf	(EUSART_SetOverrunErrorHandler@interruptHandler+1)^0,c
 11658  003C8A  ECCA  F022         	call	_EUSART_SetOverrunErrorHandler	;wreg free
 11659  003C8E                     
 11660                           ;mcc_generated_files/eusart.c: 115:     EUSART_SetErrorHandler(EUSART_DefaultErrorHandle
      +                          r);
 11661  003C8E  0E0C               	movlw	low _EUSART_DefaultErrorHandler
 11662  003C90  6E05               	movwf	EUSART_SetErrorHandler@interruptHandler^0,c
 11663  003C92  0E46               	movlw	high _EUSART_DefaultErrorHandler
 11664  003C94  6E06               	movwf	(EUSART_SetErrorHandler@interruptHandler+1)^0,c
 11665  003C96  ECD4  F022         	call	_EUSART_SetErrorHandler	;wreg free
 11666                           
 11667                           ;mcc_generated_files/eusart.c: 117:     eusartRxLastError.status = 0;
 11668  003C9A  0E00               	movlw	0
 11669  003C9C  0100               	movlb	0	; () banked
 11670  003C9E  6FB5               	movwf	_eusartRxLastError& (0+255),b	;volatile
 11671                           
 11672                           ;mcc_generated_files/eusart.c: 120:     eusartTxHead = 0;
 11673  003CA0  0E00               	movlw	0
 11674  003CA2  6E5A               	movwf	_eusartTxHead^0,c	;volatile
 11675                           
 11676                           ;mcc_generated_files/eusart.c: 121:     eusartTxTail = 0;
 11677  003CA4  0E00               	movlw	0
 11678  003CA6  6E59               	movwf	_eusartTxTail^0,c	;volatile
 11679                           
 11680                           ;mcc_generated_files/eusart.c: 122:     eusartTxBufferRemaining = sizeof(eusartTxBuffer)
      +                          ;
 11681  003CA8  0E08               	movlw	8
 11682  003CAA  6FFC               	movwf	_eusartTxBufferRemaining& (0+255),b	;volatile
 11683                           
 11684                           ;mcc_generated_files/eusart.c: 124:     eusartRxHead = 0;
 11685  003CAC  0E00               	movlw	0
 11686  003CAE  6E58               	movwf	_eusartRxHead^0,c	;volatile
 11687                           
 11688                           ;mcc_generated_files/eusart.c: 125:     eusartRxTail = 0;
 11689  003CB0  0E00               	movlw	0
 11690  003CB2  6E57               	movwf	_eusartRxTail^0,c	;volatile
 11691                           
 11692                           ;mcc_generated_files/eusart.c: 126:     eusartRxCount = 0;
 11693  003CB4  0E00               	movlw	0
 11694  003CB6  6E56               	movwf	_eusartRxCount^0,c	;volatile
 11695  003CB8                     
 11696                           ; BSR set to: 0
 11697                           ;mcc_generated_files/eusart.c: 129:     PIE1bits.RC1IE = 1;
 11698  003CB8  8A9D               	bsf	157,5,c	;volatile
 11699  003CBA                     
 11700                           ; BSR set to: 0
 11701  003CBA  0012               	return		;funcret
 11702  003CBC                     __end_of_EUSART_Initialize:
 11703                           	callstack 0
 11704                           
 11705 ;; *************** function _EUSART_SetTxInterruptHandler *****************
 11706 ;; Defined at:
 11707 ;;		line 285 in file "mcc_generated_files/eusart.c"
 11708 ;; Parameters:    Size  Location     Type
 11709 ;;  interruptHan    2    4[COMRAM] PTR FTN()void 
 11710 ;;		 -> EUSART_Transmit_ISR(1), 
 11711 ;; Auto vars:     Size  Location     Type
 11712 ;;		None
 11713 ;; Return value:  Size  Location     Type
 11714 ;;                  1    wreg      void 
 11715 ;; Registers used:
 11716 ;;		wreg, status,2, status,0
 11717 ;; Tracked objects:
 11718 ;;		On entry : 0/0
 11719 ;;		On exit  : 0/0
 11720 ;;		Unchanged: 0/0
 11721 ;; Data sizes:     COMRAM   BANK0   BANK1   BANK2   BANK3   BANK4   BANK5   BANK6   BANK7   BANK8   BANK9  BANK10  BANK1
      +1  BANK12  BANK13  BANK14  BANK15
 11722 ;;      Params:         2       0       0       0       0       0       0       0       0       0       0       0       
      +0       0       0       0       0
 11723 ;;      Locals:         0       0       0       0       0       0       0       0       0       0       0       0       
      +0       0       0       0       0
 11724 ;;      Temps:          0       0       0       0       0       0       0       0       0       0       0       0       
      +0       0       0       0       0
 11725 ;;      Totals:         2       0       0       0       0       0       0       0       0       0       0       0       
      +0       0       0       0       0
 11726 ;;Total ram usage:        2 bytes
 11727 ;; Hardware stack levels used: 1
 11728 ;; Hardware stack levels required when called: 4
 11729 ;; This function calls:
 11730 ;;		Nothing
 11731 ;; This function is called by:
 11732 ;;		_EUSART_Initialize
 11733 ;; This function uses a non-reentrant model
 11734 ;;
 11735                           
 11736                           	psect	text87
 11737  004580                     __ptext87:
 11738                           	callstack 0
 11739  004580                     _EUSART_SetTxInterruptHandler:
 11740                           	callstack 24
 11741  004580                     
 11742                           ;mcc_generated_files/eusart.c: 286:     EUSART_TxDefaultInterruptHandler = interruptHand
      +                          ler;
 11743  004580  C005  F0FA         	movff	EUSART_SetTxInterruptHandler@interruptHandler,_EUSART_TxDefaultInterruptHandler
 11744  004584  C006  F0FB         	movff	EUSART_SetTxInterruptHandler@interruptHandler+1,_EUSART_TxDefaultInterruptHandler
      +                          +1
 11745  004588  0012               	return		;funcret
 11746  00458A                     __end_of_EUSART_SetTxInterruptHandler:
 11747                           	callstack 0
 11748                           
 11749 ;; *************** function _EUSART_SetRxInterruptHandler *****************
 11750 ;; Defined at:
 11751 ;;		line 289 in file "mcc_generated_files/eusart.c"
 11752 ;; Parameters:    Size  Location     Type
 11753 ;;  interruptHan    2    4[COMRAM] PTR FTN()void 
 11754 ;;		 -> EUSART_Receive_ISR(1), 
 11755 ;; Auto vars:     Size  Location     Type
 11756 ;;		None
 11757 ;; Return value:  Size  Location     Type
 11758 ;;                  1    wreg      void 
 11759 ;; Registers used:
 11760 ;;		wreg, status,2, status,0
 11761 ;; Tracked objects:
 11762 ;;		On entry : 0/0
 11763 ;;		On exit  : 0/0
 11764 ;;		Unchanged: 0/0
 11765 ;; Data sizes:     COMRAM   BANK0   BANK1   BANK2   BANK3   BANK4   BANK5   BANK6   BANK7   BANK8   BANK9  BANK10  BANK1
      +1  BANK12  BANK13  BANK14  BANK15
 11766 ;;      Params:         2       0       0       0       0       0       0       0       0       0       0       0       
      +0       0       0       0       0
 11767 ;;      Locals:         0       0       0       0       0       0       0       0       0       0       0       0       
      +0       0       0       0       0
 11768 ;;      Temps:          0       0       0       0       0       0       0       0       0       0       0       0       
      +0       0       0       0       0
 11769 ;;      Totals:         2       0       0       0       0       0       0       0       0       0       0       0       
      +0       0       0       0       0
 11770 ;;Total ram usage:        2 bytes
 11771 ;; Hardware stack levels used: 1
 11772 ;; Hardware stack levels required when called: 4
 11773 ;; This function calls:
 11774 ;;		Nothing
 11775 ;; This function is called by:
 11776 ;;		_EUSART_Initialize
 11777 ;; This function uses a non-reentrant model
 11778 ;;
 11779                           
 11780                           	psect	text88
 11781  00458A                     __ptext88:
 11782                           	callstack 0
 11783  00458A                     _EUSART_SetRxInterruptHandler:
 11784                           	callstack 24
 11785  00458A                     
 11786                           ;mcc_generated_files/eusart.c: 290:     EUSART_RxDefaultInterruptHandler = interruptHand
      +                          ler;
 11787  00458A  C005  F0F8         	movff	EUSART_SetRxInterruptHandler@interruptHandler,_EUSART_RxDefaultInterruptHandler
 11788  00458E  C006  F0F9         	movff	EUSART_SetRxInterruptHandler@interruptHandler+1,_EUSART_RxDefaultInterruptHandler
      +                          +1
 11789  004592  0012               	return		;funcret
 11790  004594                     __end_of_EUSART_SetRxInterruptHandler:
 11791                           	callstack 0
 11792                           
 11793 ;; *************** function _EUSART_SetOverrunErrorHandler *****************
 11794 ;; Defined at:
 11795 ;;		line 277 in file "mcc_generated_files/eusart.c"
 11796 ;; Parameters:    Size  Location     Type
 11797 ;;  interruptHan    2    4[COMRAM] PTR FTN()void 
 11798 ;;		 -> EUSART_DefaultOverrunErrorHandler(1), 
 11799 ;; Auto vars:     Size  Location     Type
 11800 ;;		None
 11801 ;; Return value:  Size  Location     Type
 11802 ;;                  1    wreg      void 
 11803 ;; Registers used:
 11804 ;;		wreg, status,2, status,0
 11805 ;; Tracked objects:
 11806 ;;		On entry : 0/0
 11807 ;;		On exit  : 0/0
 11808 ;;		Unchanged: 0/0
 11809 ;; Data sizes:     COMRAM   BANK0   BANK1   BANK2   BANK3   BANK4   BANK5   BANK6   BANK7   BANK8   BANK9  BANK10  BANK1
      +1  BANK12  BANK13  BANK14  BANK15
 11810 ;;      Params:         2       0       0       0       0       0       0       0       0       0       0       0       
      +0       0       0       0       0
 11811 ;;      Locals:         0       0       0       0       0       0       0       0       0       0       0       0       
      +0       0       0       0       0
 11812 ;;      Temps:          0       0       0       0       0       0       0       0       0       0       0       0       
      +0       0       0       0       0
 11813 ;;      Totals:         2       0       0       0       0       0       0       0       0       0       0       0       
      +0       0       0       0       0
 11814 ;;Total ram usage:        2 bytes
 11815 ;; Hardware stack levels used: 1
 11816 ;; Hardware stack levels required when called: 4
 11817 ;; This function calls:
 11818 ;;		Nothing
 11819 ;; This function is called by:
 11820 ;;		_EUSART_Initialize
 11821 ;; This function uses a non-reentrant model
 11822 ;;
 11823                           
 11824                           	psect	text89
 11825  004594                     __ptext89:
 11826                           	callstack 0
 11827  004594                     _EUSART_SetOverrunErrorHandler:
 11828                           	callstack 24
 11829  004594                     
 11830                           ;mcc_generated_files/eusart.c: 278:     EUSART_OverrunErrorHandler = interruptHandler;
 11831  004594  C005  F158         	movff	EUSART_SetOverrunErrorHandler@interruptHandler,_EUSART_OverrunErrorHandler
 11832  004598  C006  F159         	movff	EUSART_SetOverrunErrorHandler@interruptHandler+1,_EUSART_OverrunErrorHandler+1
 11833  00459C  0012               	return		;funcret
 11834  00459E                     __end_of_EUSART_SetOverrunErrorHandler:
 11835                           	callstack 0
 11836                           
 11837 ;; *************** function _EUSART_SetFramingErrorHandler *****************
 11838 ;; Defined at:
 11839 ;;		line 273 in file "mcc_generated_files/eusart.c"
 11840 ;; Parameters:    Size  Location     Type
 11841 ;;  interruptHan    2    4[COMRAM] PTR FTN()void 
 11842 ;;		 -> EUSART_DefaultFramingErrorHandler(1), 
 11843 ;; Auto vars:     Size  Location     Type
 11844 ;;		None
 11845 ;; Return value:  Size  Location     Type
 11846 ;;                  1    wreg      void 
 11847 ;; Registers used:
 11848 ;;		wreg, status,2, status,0
 11849 ;; Tracked objects:
 11850 ;;		On entry : 0/0
 11851 ;;		On exit  : 0/0
 11852 ;;		Unchanged: 0/0
 11853 ;; Data sizes:     COMRAM   BANK0   BANK1   BANK2   BANK3   BANK4   BANK5   BANK6   BANK7   BANK8   BANK9  BANK10  BANK1
      +1  BANK12  BANK13  BANK14  BANK15
 11854 ;;      Params:         2       0       0       0       0       0       0       0       0       0       0       0       
      +0       0       0       0       0
 11855 ;;      Locals:         0       0       0       0       0       0       0       0       0       0       0       0       
      +0       0       0       0       0
 11856 ;;      Temps:          0       0       0       0       0       0       0       0       0       0       0       0       
      +0       0       0       0       0
 11857 ;;      Totals:         2       0       0       0       0       0       0       0       0       0       0       0       
      +0       0       0       0       0
 11858 ;;Total ram usage:        2 bytes
 11859 ;; Hardware stack levels used: 1
 11860 ;; Hardware stack levels required when called: 4
 11861 ;; This function calls:
 11862 ;;		Nothing
 11863 ;; This function is called by:
 11864 ;;		_EUSART_Initialize
 11865 ;; This function uses a non-reentrant model
 11866 ;;
 11867                           
 11868                           	psect	text90
 11869  00459E                     __ptext90:
 11870                           	callstack 0
 11871  00459E                     _EUSART_SetFramingErrorHandler:
 11872                           	callstack 24
 11873  00459E                     
 11874                           ;mcc_generated_files/eusart.c: 274:     EUSART_FramingErrorHandler = interruptHandler;
 11875  00459E  C005  F0F6         	movff	EUSART_SetFramingErrorHandler@interruptHandler,_EUSART_FramingErrorHandler
 11876  0045A2  C006  F0F7         	movff	EUSART_SetFramingErrorHandler@interruptHandler+1,_EUSART_FramingErrorHandler+1
 11877  0045A6  0012               	return		;funcret
 11878  0045A8                     __end_of_EUSART_SetFramingErrorHandler:
 11879                           	callstack 0
 11880                           
 11881 ;; *************** function _EUSART_SetErrorHandler *****************
 11882 ;; Defined at:
 11883 ;;		line 281 in file "mcc_generated_files/eusart.c"
 11884 ;; Parameters:    Size  Location     Type
 11885 ;;  interruptHan    2    4[COMRAM] PTR FTN()void 
 11886 ;;		 -> EUSART_DefaultErrorHandler(1), 
 11887 ;; Auto vars:     Size  Location     Type
 11888 ;;		None
 11889 ;; Return value:  Size  Location     Type
 11890 ;;                  1    wreg      void 
 11891 ;; Registers used:
 11892 ;;		wreg, status,2, status,0
 11893 ;; Tracked objects:
 11894 ;;		On entry : 0/0
 11895 ;;		On exit  : 0/0
 11896 ;;		Unchanged: 0/0
 11897 ;; Data sizes:     COMRAM   BANK0   BANK1   BANK2   BANK3   BANK4   BANK5   BANK6   BANK7   BANK8   BANK9  BANK10  BANK1
      +1  BANK12  BANK13  BANK14  BANK15
 11898 ;;      Params:         2       0       0       0       0       0       0       0       0       0       0       0       
      +0       0       0       0       0
 11899 ;;      Locals:         0       0       0       0       0       0       0       0       0       0       0       0       
      +0       0       0       0       0
 11900 ;;      Temps:          0       0       0       0       0       0       0       0       0       0       0       0       
      +0       0       0       0       0
 11901 ;;      Totals:         2       0       0       0       0       0       0       0       0       0       0       0       
      +0       0       0       0       0
 11902 ;;Total ram usage:        2 bytes
 11903 ;; Hardware stack levels used: 1
 11904 ;; Hardware stack levels required when called: 4
 11905 ;; This function calls:
 11906 ;;		Nothing
 11907 ;; This function is called by:
 11908 ;;		_EUSART_Initialize
 11909 ;; This function uses a non-reentrant model
 11910 ;;
 11911                           
 11912                           	psect	text91
 11913  0045A8                     __ptext91:
 11914                           	callstack 0
 11915  0045A8                     _EUSART_SetErrorHandler:
 11916                           	callstack 24
 11917  0045A8                     
 11918                           ;mcc_generated_files/eusart.c: 282:     EUSART_ErrorHandler = interruptHandler;
 11919  0045A8  C005  F156         	movff	EUSART_SetErrorHandler@interruptHandler,_EUSART_ErrorHandler
 11920  0045AC  C006  F157         	movff	EUSART_SetErrorHandler@interruptHandler+1,_EUSART_ErrorHandler+1
 11921  0045B0  0012               	return		;funcret
 11922  0045B2                     __end_of_EUSART_SetErrorHandler:
 11923                           	callstack 0
 11924                           
 11925 ;; *************** function _INTERRUPT_InterruptManager *****************
 11926 ;; Defined at:
 11927 ;;		line 58 in file "mcc_generated_files/interrupt_manager.c"
 11928 ;; Parameters:    Size  Location     Type
 11929 ;;		None
 11930 ;; Auto vars:     Size  Location     Type
 11931 ;;		None
 11932 ;; Return value:  Size  Location     Type
 11933 ;;                  1    wreg      void 
 11934 ;; Registers used:
 11935 ;;		wreg, fsr2l, fsr2h, status,2, status,0, pclath, tosl, cstack
 11936 ;; Tracked objects:
 11937 ;;		On entry : 0/0
 11938 ;;		On exit  : 0/0
 11939 ;;		Unchanged: 0/0
 11940 ;; Data sizes:     COMRAM   BANK0   BANK1   BANK2   BANK3   BANK4   BANK5   BANK6   BANK7   BANK8   BANK9  BANK10  BANK1
      +1  BANK12  BANK13  BANK14  BANK15
 11941 ;;      Params:         0       0       0       0       0       0       0       0       0       0       0       0       
      +0       0       0       0       0
 11942 ;;      Locals:         0       0       0       0       0       0       0       0       0       0       0       0       
      +0       0       0       0       0
 11943 ;;      Temps:          4       0       0       0       0       0       0       0       0       0       0       0       
      +0       0       0       0       0
 11944 ;;      Totals:         4       0       0       0       0       0       0       0       0       0       0       0       
      +0       0       0       0       0
 11945 ;;Total ram usage:        4 bytes
 11946 ;; Hardware stack levels used: 1
 11947 ;; Hardware stack levels required when called: 3
 11948 ;; This function calls:
 11949 ;;		Absolute function
 11950 ;;		_EUSART_Receive_ISR
 11951 ;;		_EUSART_Transmit_ISR
 11952 ;; This function is called by:
 11953 ;;		Interrupt level 2
 11954 ;; This function uses a non-reentrant model
 11955 ;;
 11956                           
 11957                           	psect	intcode
 11958  000008                     __pintcode:
 11959                           	callstack 0
 11960  000008                     _INTERRUPT_InterruptManager:
 11961                           	callstack 17
 11962                           
 11963                           ;incstack = 0
 11964  000008  825B               	bsf	int$flags,1,c	;set compiler interrupt flag (level 2)
 11965  00000A  CFFA F001          	movff	pclath,??_INTERRUPT_InterruptManager
 11966  00000E  CFFB F002          	movff	pclatu,??_INTERRUPT_InterruptManager+1
 11967  000012  CFD9 F003          	movff	fsr2l,??_INTERRUPT_InterruptManager+2
 11968  000016  CFDA F004          	movff	fsr2h,??_INTERRUPT_InterruptManager+3
 11969  00001A                     
 11970                           ;mcc_generated_files/interrupt_manager.c: 61:     if(INTCONbits.PEIE == 1)
 11971  00001A  ACF2               	btfss	242,6,c	;volatile
 11972  00001C  EF12  F000         	goto	i2u552_41
 11973  000020  EF14  F000         	goto	i2u552_40
 11974  000024                     i2u552_41:
 11975  000024  EF4E  F000         	goto	i2l671
 11976  000028                     i2u552_40:
 11977  000028                     
 11978                           ;mcc_generated_files/interrupt_manager.c: 62:     {;mcc_generated_files/interrupt_manage
      +                          r.c: 63:         if(PIE1bits.TX1IE == 1 && PIR1bits.TX1IF == 1)
 11979  000028  A89D               	btfss	157,4,c	;volatile
 11980  00002A  EF19  F000         	goto	i2u553_41
 11981  00002E  EF1B  F000         	goto	i2u553_40
 11982  000032                     i2u553_41:
 11983  000032  EF31  F000         	goto	i2l666
 11984  000036                     i2u553_40:
 11985  000036  A89E               	btfss	158,4,c	;volatile
 11986  000038  EF20  F000         	goto	i2u554_41
 11987  00003C  EF22  F000         	goto	i2u554_40
 11988  000040                     i2u554_41:
 11989  000040  EF31  F000         	goto	i2l666
 11990  000044                     i2u554_40:
 11991  000044                     
 11992                           ;mcc_generated_files/interrupt_manager.c: 64:         {;mcc_generated_files/interrupt_ma
      +                          nager.c: 65:             EUSART_TxDefaultInterruptHandler();
 11993  000044  D802               	call	i2u555_48
 11994  000046  EF2F  F000         	goto	i2u555_49
 11995  00004A                     i2u555_48:
 11996  00004A  0005               	push	
 11997  00004C  6EFA               	movwf	pclath,c
 11998  00004E  0100               	movlb	0	; () banked
 11999  000050  51FA               	movf	_EUSART_TxDefaultInterruptHandler& (0+255),w,b
 12000  000052  6EFD               	movwf	tosl,c
 12001  000054  51FB               	movf	(_EUSART_TxDefaultInterruptHandler+1)& (0+255),w,b
 12002  000056  6EFE               	movwf	tosh,c
 12003  000058  6AFF               	clrf	tosu,c
 12004  00005A  50FA               	movf	pclath,w,c
 12005  00005C  0012               	return		;indir
 12006  00005E                     i2u555_49:
 12007                           
 12008                           ;mcc_generated_files/interrupt_manager.c: 66:         }
 12009  00005E  EF4E  F000         	goto	i2l671
 12010  000062                     i2l666:
 12011  000062  AA9D               	btfss	157,5,c	;volatile
 12012  000064  EF36  F000         	goto	i2u556_41
 12013  000068  EF38  F000         	goto	i2u556_40
 12014  00006C                     i2u556_41:
 12015  00006C  EF4E  F000         	goto	i2l667
 12016  000070                     i2u556_40:
 12017  000070  AA9E               	btfss	158,5,c	;volatile
 12018  000072  EF3D  F000         	goto	i2u557_41
 12019  000076  EF3F  F000         	goto	i2u557_40
 12020  00007A                     i2u557_41:
 12021  00007A  EF4E  F000         	goto	i2l667
 12022  00007E                     i2u557_40:
 12023  00007E                     
 12024                           ;mcc_generated_files/interrupt_manager.c: 68:         {;mcc_generated_files/interrupt_ma
      +                          nager.c: 69:             EUSART_RxDefaultInterruptHandler();
 12025  00007E  D802               	call	i2u558_48
 12026  000080  EF4C  F000         	goto	i2u558_49
 12027  000084                     i2u558_48:
 12028  000084  0005               	push	
 12029  000086  6EFA               	movwf	pclath,c
 12030  000088  0100               	movlb	0	; () banked
 12031  00008A  51F8               	movf	_EUSART_RxDefaultInterruptHandler& (0+255),w,b
 12032  00008C  6EFD               	movwf	tosl,c
 12033  00008E  51F9               	movf	(_EUSART_RxDefaultInterruptHandler+1)& (0+255),w,b
 12034  000090  6EFE               	movwf	tosh,c
 12035  000092  6AFF               	clrf	tosu,c
 12036  000094  50FA               	movf	pclath,w,c
 12037  000096  0012               	return		;indir
 12038  000098                     i2u558_49:
 12039                           
 12040                           ;mcc_generated_files/interrupt_manager.c: 70:         }
 12041  000098  EF4E  F000         	goto	i2l671
 12042  00009C                     i2l667:
 12043  00009C                     i2l671:
 12044  00009C  C004  FFDA         	movff	??_INTERRUPT_InterruptManager+3,fsr2h
 12045  0000A0  C003  FFD9         	movff	??_INTERRUPT_InterruptManager+2,fsr2l
 12046  0000A4  C002  FFFB         	movff	??_INTERRUPT_InterruptManager+1,pclatu
 12047  0000A8  C001  FFFA         	movff	??_INTERRUPT_InterruptManager,pclath
 12048  0000AC  925B               	bcf	int$flags,1,c	;clear compiler interrupt flag (level 2)
 12049  0000AE  0011               	retfie		f
 12050  0000B0                     __end_of_INTERRUPT_InterruptManager:
 12051                           	callstack 0
 12052                           
 12053 ;; *************** function _EUSART_Transmit_ISR *****************
 12054 ;; Defined at:
 12055 ;;		line 206 in file "mcc_generated_files/eusart.c"
 12056 ;; Parameters:    Size  Location     Type
 12057 ;;		None
 12058 ;; Auto vars:     Size  Location     Type
 12059 ;;		None
 12060 ;; Return value:  Size  Location     Type
 12061 ;;                  1    wreg      void 
 12062 ;; Registers used:
 12063 ;;		wreg, fsr2l, fsr2h, status,2, status,0
 12064 ;; Tracked objects:
 12065 ;;		On entry : 0/0
 12066 ;;		On exit  : 0/0
 12067 ;;		Unchanged: 0/0
 12068 ;; Data sizes:     COMRAM   BANK0   BANK1   BANK2   BANK3   BANK4   BANK5   BANK6   BANK7   BANK8   BANK9  BANK10  BANK1
      +1  BANK12  BANK13  BANK14  BANK15
 12069 ;;      Params:         0       0       0       0       0       0       0       0       0       0       0       0       
      +0       0       0       0       0
 12070 ;;      Locals:         0       0       0       0       0       0       0       0       0       0       0       0       
      +0       0       0       0       0
 12071 ;;      Temps:          0       0       0       0       0       0       0       0       0       0       0       0       
      +0       0       0       0       0
 12072 ;;      Totals:         0       0       0       0       0       0       0       0       0       0       0       0       
      +0       0       0       0       0
 12073 ;;Total ram usage:        0 bytes
 12074 ;; Hardware stack levels used: 1
 12075 ;; This function calls:
 12076 ;;		Nothing
 12077 ;; This function is called by:
 12078 ;;		_EUSART_Initialize
 12079 ;;		_INTERRUPT_InterruptManager
 12080 ;; This function uses a non-reentrant model
 12081 ;;
 12082                           
 12083                           	psect	text93
 12084  00415E                     __ptext93:
 12085                           	callstack 0
 12086  00415E                     _EUSART_Transmit_ISR:
 12087                           	callstack 19
 12088  00415E                     
 12089                           ;mcc_generated_files/eusart.c: 210:     if(sizeof(eusartTxBuffer) > eusartTxBufferRemain
      +                          ing)
 12090  00415E  0E08               	movlw	8
 12091  004160  0100               	movlb	0	; () banked
 12092  004162  61FC               	cpfslt	_eusartTxBufferRemaining& (0+255),b	;volatile
 12093  004164  EFB6  F020         	goto	i2u534_41
 12094  004168  EFB8  F020         	goto	i2u534_40
 12095  00416C                     i2u534_41:
 12096  00416C  EFCE  F020         	goto	i2l607
 12097  004170                     i2u534_40:
 12098  004170                     
 12099                           ; BSR set to: 0
 12100                           ;mcc_generated_files/eusart.c: 211:     {;mcc_generated_files/eusart.c: 212:         TXR
      +                          EG = eusartTxBuffer[eusartTxTail++];
 12101  004170  0E94               	movlw	low _eusartTxBuffer
 12102  004172  2459               	addwf	_eusartTxTail^0,w,c	;volatile
 12103  004174  6ED9               	movwf	fsr2l,c
 12104  004176  6ADA               	clrf	fsr2h,c
 12105  004178  0E00               	movlw	high _eusartTxBuffer
 12106  00417A  22DA               	addwfc	fsr2h,f,c
 12107  00417C  50DF               	movf	indf2,w,c
 12108  00417E  6EAD               	movwf	173,c	;volatile
 12109  004180                     
 12110                           ; BSR set to: 0
 12111  004180  2A59               	incf	_eusartTxTail^0,f,c	;volatile
 12112  004182                     
 12113                           ; BSR set to: 0
 12114                           ;mcc_generated_files/eusart.c: 213:         if(sizeof(eusartTxBuffer) <= eusartTxTail)
 12115  004182  0E07               	movlw	7
 12116  004184  6459               	cpfsgt	_eusartTxTail^0,c	;volatile
 12117  004186  EFC7  F020         	goto	i2u535_41
 12118  00418A  EFC9  F020         	goto	i2u535_40
 12119  00418E                     i2u535_41:
 12120  00418E  EFCB  F020         	goto	i2l5530
 12121  004192                     i2u535_40:
 12122  004192                     
 12123                           ; BSR set to: 0
 12124                           ;mcc_generated_files/eusart.c: 214:         {;mcc_generated_files/eusart.c: 215:        
      +                               eusartTxTail = 0;
 12125  004192  0E00               	movlw	0
 12126  004194  6E59               	movwf	_eusartTxTail^0,c	;volatile
 12127  004196                     i2l5530:
 12128                           
 12129                           ; BSR set to: 0
 12130                           ;mcc_generated_files/eusart.c: 217:         eusartTxBufferRemaining++;
 12131  004196  2BFC               	incf	_eusartTxBufferRemaining& (0+255),f,b	;volatile
 12132                           
 12133                           ;mcc_generated_files/eusart.c: 218:     }
 12134  004198  EFCF  F020         	goto	i2l610
 12135  00419C                     i2l607:
 12136                           
 12137                           ; BSR set to: 0
 12138                           ;mcc_generated_files/eusart.c: 220:     {;mcc_generated_files/eusart.c: 221:         PIE
      +                          1bits.TX1IE = 0;
 12139  00419C  989D               	bcf	157,4,c	;volatile
 12140  00419E                     i2l610:
 12141                           
 12142                           ; BSR set to: 0
 12143  00419E  0012               	return		;funcret
 12144  0041A0                     __end_of_EUSART_Transmit_ISR:
 12145                           	callstack 0
 12146                           
 12147 ;; *************** function _EUSART_Receive_ISR *****************
 12148 ;; Defined at:
 12149 ;;		line 225 in file "mcc_generated_files/eusart.c"
 12150 ;; Parameters:    Size  Location     Type
 12151 ;;		None
 12152 ;; Auto vars:     Size  Location     Type
 12153 ;;		None
 12154 ;; Return value:  Size  Location     Type
 12155 ;;                  1    wreg      void 
 12156 ;; Registers used:
 12157 ;;		wreg, fsr2l, fsr2h, status,2, status,0, pclath, tosl, cstack
 12158 ;; Tracked objects:
 12159 ;;		On entry : 0/0
 12160 ;;		On exit  : 0/0
 12161 ;;		Unchanged: 0/0
 12162 ;; Data sizes:     COMRAM   BANK0   BANK1   BANK2   BANK3   BANK4   BANK5   BANK6   BANK7   BANK8   BANK9  BANK10  BANK1
      +1  BANK12  BANK13  BANK14  BANK15
 12163 ;;      Params:         0       0       0       0       0       0       0       0       0       0       0       0       
      +0       0       0       0       0
 12164 ;;      Locals:         0       0       0       0       0       0       0       0       0       0       0       0       
      +0       0       0       0       0
 12165 ;;      Temps:          0       0       0       0       0       0       0       0       0       0       0       0       
      +0       0       0       0       0
 12166 ;;      Totals:         0       0       0       0       0       0       0       0       0       0       0       0       
      +0       0       0       0       0
 12167 ;;Total ram usage:        0 bytes
 12168 ;; Hardware stack levels used: 1
 12169 ;; Hardware stack levels required when called: 2
 12170 ;; This function calls:
 12171 ;;		Absolute function
 12172 ;;		_EUSART_DefaultErrorHandler
 12173 ;;		_EUSART_DefaultFramingErrorHandler
 12174 ;;		_EUSART_DefaultOverrunErrorHandler
 12175 ;;		_EUSART_RxDataHandler
 12176 ;; This function is called by:
 12177 ;;		_EUSART_Initialize
 12178 ;;		_INTERRUPT_InterruptManager
 12179 ;; This function uses a non-reentrant model
 12180 ;;
 12181                           
 12182                           	psect	text94
 12183  0036E8                     __ptext94:
 12184                           	callstack 0
 12185  0036E8                     _EUSART_Receive_ISR:
 12186                           	callstack 17
 12187  0036E8                     
 12188                           ;mcc_generated_files/eusart.c: 228:     eusartRxStatusBuffer[eusartRxHead].status = 0;
 12189  0036E8  0E84               	movlw	low _eusartRxStatusBuffer
 12190  0036EA  2458               	addwf	_eusartRxHead^0,w,c	;volatile
 12191  0036EC  6ED9               	movwf	fsr2l,c
 12192  0036EE  6ADA               	clrf	fsr2h,c
 12193  0036F0  0E00               	movlw	high _eusartRxStatusBuffer
 12194  0036F2  22DA               	addwfc	fsr2h,f,c
 12195  0036F4  0E00               	movlw	0
 12196  0036F6  6EDF               	movwf	indf2,c
 12197  0036F8                     
 12198                           ;mcc_generated_files/eusart.c: 230:     if(RCSTAbits.FERR){
 12199  0036F8  A4AB               	btfss	171,2,c	;volatile
 12200  0036FA  EF81  F01B         	goto	i2u536_41
 12201  0036FE  EF83  F01B         	goto	i2u536_40
 12202  003702                     i2u536_41:
 12203  003702  EF97  F01B         	goto	i2l5540
 12204  003706                     i2u536_40:
 12205  003706                     
 12206                           ;mcc_generated_files/eusart.c: 231:         eusartRxStatusBuffer[eusartRxHead].ferr = 1;
 12207  003706  0E84               	movlw	low _eusartRxStatusBuffer
 12208  003708  2458               	addwf	_eusartRxHead^0,w,c	;volatile
 12209  00370A  6ED9               	movwf	fsr2l,c
 12210  00370C  6ADA               	clrf	fsr2h,c
 12211  00370E  0E00               	movlw	high _eusartRxStatusBuffer
 12212  003710  22DA               	addwfc	fsr2h,f,c
 12213  003712  0100               	movlb	0	; () banked
 12214  003714  82DF               	bsf	indf2,1,c
 12215  003716                     
 12216                           ; BSR set to: 0
 12217                           ;mcc_generated_files/eusart.c: 232:         EUSART_FramingErrorHandler();
 12218  003716  D802               	call	i2u537_48
 12219  003718  EF97  F01B         	goto	i2u537_49
 12220  00371C                     i2u537_48:
 12221  00371C  0005               	push	
 12222  00371E  6EFA               	movwf	pclath,c
 12223  003720  51F6               	movf	_EUSART_FramingErrorHandler& (0+255),w,b
 12224  003722  6EFD               	movwf	tosl,c
 12225  003724  51F7               	movf	(_EUSART_FramingErrorHandler+1)& (0+255),w,b
 12226  003726  6EFE               	movwf	tosh,c
 12227  003728  6AFF               	clrf	tosu,c
 12228  00372A  50FA               	movf	pclath,w,c
 12229  00372C  0012               	return		;indir
 12230  00372E                     i2u537_49:
 12231  00372E                     i2l5540:
 12232                           
 12233                           ;mcc_generated_files/eusart.c: 235:     if(RCSTAbits.OERR){
 12234  00372E  A2AB               	btfss	171,1,c	;volatile
 12235  003730  EF9C  F01B         	goto	i2u538_41
 12236  003734  EF9E  F01B         	goto	i2u538_40
 12237  003738                     i2u538_41:
 12238  003738  EFB3  F01B         	goto	i2l5546
 12239  00373C                     i2u538_40:
 12240  00373C                     
 12241                           ;mcc_generated_files/eusart.c: 236:         eusartRxStatusBuffer[eusartRxHead].oerr = 1;
 12242  00373C  0E84               	movlw	low _eusartRxStatusBuffer
 12243  00373E  2458               	addwf	_eusartRxHead^0,w,c	;volatile
 12244  003740  6ED9               	movwf	fsr2l,c
 12245  003742  6ADA               	clrf	fsr2h,c
 12246  003744  0E00               	movlw	high _eusartRxStatusBuffer
 12247  003746  22DA               	addwfc	fsr2h,f,c
 12248  003748  0100               	movlb	0	; () banked
 12249  00374A  84DF               	bsf	indf2,2,c
 12250  00374C                     
 12251                           ; BSR set to: 0
 12252                           ;mcc_generated_files/eusart.c: 237:         EUSART_OverrunErrorHandler();
 12253  00374C  D802               	call	i2u539_48
 12254  00374E  EFB3  F01B         	goto	i2u539_49
 12255  003752                     i2u539_48:
 12256  003752  0005               	push	
 12257  003754  6EFA               	movwf	pclath,c
 12258  003756  0101               	movlb	1	; () banked
 12259  003758  5158               	movf	_EUSART_OverrunErrorHandler& (0+255),w,b
 12260  00375A  6EFD               	movwf	tosl,c
 12261  00375C  5159               	movf	(_EUSART_OverrunErrorHandler+1)& (0+255),w,b
 12262  00375E  6EFE               	movwf	tosh,c
 12263  003760  6AFF               	clrf	tosu,c
 12264  003762  50FA               	movf	pclath,w,c
 12265  003764  0012               	return		;indir
 12266  003766                     i2u539_49:
 12267  003766                     i2l5546:
 12268                           
 12269                           ;mcc_generated_files/eusart.c: 240:     if(eusartRxStatusBuffer[eusartRxHead].status){
 12270  003766  0E84               	movlw	low _eusartRxStatusBuffer
 12271  003768  2458               	addwf	_eusartRxHead^0,w,c	;volatile
 12272  00376A  6ED9               	movwf	fsr2l,c
 12273  00376C  6ADA               	clrf	fsr2h,c
 12274  00376E  0E00               	movlw	high _eusartRxStatusBuffer
 12275  003770  22DA               	addwfc	fsr2h,f,c
 12276  003772  50DF               	movf	indf2,w,c
 12277  003774  B4D8               	btfsc	status,2,c
 12278  003776  EFBF  F01B         	goto	i2u540_41
 12279  00377A  EFC1  F01B         	goto	i2u540_40
 12280  00377E                     i2u540_41:
 12281  00377E  EFD0  F01B         	goto	i2l5550
 12282  003782                     i2u540_40:
 12283  003782                     
 12284                           ;mcc_generated_files/eusart.c: 241:         EUSART_ErrorHandler();
 12285  003782  D802               	call	i2u541_48
 12286  003784  EFCE  F01B         	goto	i2u541_49
 12287  003788                     i2u541_48:
 12288  003788  0005               	push	
 12289  00378A  6EFA               	movwf	pclath,c
 12290  00378C  0101               	movlb	1	; () banked
 12291  00378E  5156               	movf	_EUSART_ErrorHandler& (0+255),w,b
 12292  003790  6EFD               	movwf	tosl,c
 12293  003792  5157               	movf	(_EUSART_ErrorHandler+1)& (0+255),w,b
 12294  003794  6EFE               	movwf	tosh,c
 12295  003796  6AFF               	clrf	tosu,c
 12296  003798  50FA               	movf	pclath,w,c
 12297  00379A  0012               	return		;indir
 12298  00379C                     i2u541_49:
 12299                           
 12300                           ;mcc_generated_files/eusart.c: 242:     } else {
 12301  00379C  EFD2  F01B         	goto	i2l617
 12302  0037A0                     i2l5550:
 12303                           
 12304                           ;mcc_generated_files/eusart.c: 243:         EUSART_RxDataHandler();
 12305  0037A0  ECFA  F021         	call	_EUSART_RxDataHandler	;wreg free
 12306  0037A4                     i2l617:
 12307  0037A4  0012               	return		;funcret
 12308  0037A6                     __end_of_EUSART_Receive_ISR:
 12309                           	callstack 0
 12310                           
 12311 ;; *************** function _EUSART_DefaultOverrunErrorHandler *****************
 12312 ;; Defined at:
 12313 ;;		line 261 in file "mcc_generated_files/eusart.c"
 12314 ;; Parameters:    Size  Location     Type
 12315 ;;		None
 12316 ;; Auto vars:     Size  Location     Type
 12317 ;;		None
 12318 ;; Return value:  Size  Location     Type
 12319 ;;                  1    wreg      void 
 12320 ;; Registers used:
 12321 ;;		None
 12322 ;; Tracked objects:
 12323 ;;		On entry : 0/0
 12324 ;;		On exit  : 0/0
 12325 ;;		Unchanged: 0/0
 12326 ;; Data sizes:     COMRAM   BANK0   BANK1   BANK2   BANK3   BANK4   BANK5   BANK6   BANK7   BANK8   BANK9  BANK10  BANK1
      +1  BANK12  BANK13  BANK14  BANK15
 12327 ;;      Params:         0       0       0       0       0       0       0       0       0       0       0       0       
      +0       0       0       0       0
 12328 ;;      Locals:         0       0       0       0       0       0       0       0       0       0       0       0       
      +0       0       0       0       0
 12329 ;;      Temps:          0       0       0       0       0       0       0       0       0       0       0       0       
      +0       0       0       0       0
 12330 ;;      Totals:         0       0       0       0       0       0       0       0       0       0       0       0       
      +0       0       0       0       0
 12331 ;;Total ram usage:        0 bytes
 12332 ;; Hardware stack levels used: 1
 12333 ;; This function calls:
 12334 ;;		Nothing
 12335 ;; This function is called by:
 12336 ;;		_EUSART_Initialize
 12337 ;;		_EUSART_Receive_ISR
 12338 ;; This function uses a non-reentrant model
 12339 ;;
 12340                           
 12341                           	psect	text95
 12342  004606                     __ptext95:
 12343                           	callstack 0
 12344  004606                     _EUSART_DefaultOverrunErrorHandler:
 12345                           	callstack 18
 12346  004606                     
 12347                           ;mcc_generated_files/eusart.c: 264:     RCSTAbits.CREN = 0;
 12348  004606  98AB               	bcf	171,4,c	;volatile
 12349                           
 12350                           ;mcc_generated_files/eusart.c: 265:     RCSTAbits.CREN = 1;
 12351  004608  88AB               	bsf	171,4,c	;volatile
 12352  00460A  0012               	return		;funcret
 12353  00460C                     __end_of_EUSART_DefaultOverrunErrorHandler:
 12354                           	callstack 0
 12355                           
 12356 ;; *************** function _EUSART_DefaultFramingErrorHandler *****************
 12357 ;; Defined at:
 12358 ;;		line 259 in file "mcc_generated_files/eusart.c"
 12359 ;; Parameters:    Size  Location     Type
 12360 ;;		None
 12361 ;; Auto vars:     Size  Location     Type
 12362 ;;		None
 12363 ;; Return value:  Size  Location     Type
 12364 ;;                  1    wreg      void 
 12365 ;; Registers used:
 12366 ;;		None
 12367 ;; Tracked objects:
 12368 ;;		On entry : 0/0
 12369 ;;		On exit  : 0/0
 12370 ;;		Unchanged: 0/0
 12371 ;; Data sizes:     COMRAM   BANK0   BANK1   BANK2   BANK3   BANK4   BANK5   BANK6   BANK7   BANK8   BANK9  BANK10  BANK1
      +1  BANK12  BANK13  BANK14  BANK15
 12372 ;;      Params:         0       0       0       0       0       0       0       0       0       0       0       0       
      +0       0       0       0       0
 12373 ;;      Locals:         0       0       0       0       0       0       0       0       0       0       0       0       
      +0       0       0       0       0
 12374 ;;      Temps:          0       0       0       0       0       0       0       0       0       0       0       0       
      +0       0       0       0       0
 12375 ;;      Totals:         0       0       0       0       0       0       0       0       0       0       0       0       
      +0       0       0       0       0
 12376 ;;Total ram usage:        0 bytes
 12377 ;; Hardware stack levels used: 1
 12378 ;; This function calls:
 12379 ;;		Nothing
 12380 ;; This function is called by:
 12381 ;;		_EUSART_Initialize
 12382 ;;		_EUSART_Receive_ISR
 12383 ;; This function uses a non-reentrant model
 12384 ;;
 12385                           
 12386                           	psect	text96
 12387  004642                     __ptext96:
 12388                           	callstack 0
 12389  004642                     _EUSART_DefaultFramingErrorHandler:
 12390                           	callstack 18
 12391  004642  0012               	return		;funcret
 12392  004644                     __end_of_EUSART_DefaultFramingErrorHandler:
 12393                           	callstack 0
 12394                           
 12395 ;; *************** function _EUSART_DefaultErrorHandler *****************
 12396 ;; Defined at:
 12397 ;;		line 269 in file "mcc_generated_files/eusart.c"
 12398 ;; Parameters:    Size  Location     Type
 12399 ;;		None
 12400 ;; Auto vars:     Size  Location     Type
 12401 ;;		None
 12402 ;; Return value:  Size  Location     Type
 12403 ;;                  1    wreg      void 
 12404 ;; Registers used:
 12405 ;;		wreg, fsr2l, fsr2h, status,2, status,0, cstack
 12406 ;; Tracked objects:
 12407 ;;		On entry : 0/0
 12408 ;;		On exit  : 0/0
 12409 ;;		Unchanged: 0/0
 12410 ;; Data sizes:     COMRAM   BANK0   BANK1   BANK2   BANK3   BANK4   BANK5   BANK6   BANK7   BANK8   BANK9  BANK10  BANK1
      +1  BANK12  BANK13  BANK14  BANK15
 12411 ;;      Params:         0       0       0       0       0       0       0       0       0       0       0       0       
      +0       0       0       0       0
 12412 ;;      Locals:         0       0       0       0       0       0       0       0       0       0       0       0       
      +0       0       0       0       0
 12413 ;;      Temps:          0       0       0       0       0       0       0       0       0       0       0       0       
      +0       0       0       0       0
 12414 ;;      Totals:         0       0       0       0       0       0       0       0       0       0       0       0       
      +0       0       0       0       0
 12415 ;;Total ram usage:        0 bytes
 12416 ;; Hardware stack levels used: 1
 12417 ;; Hardware stack levels required when called: 1
 12418 ;; This function calls:
 12419 ;;		_EUSART_RxDataHandler
 12420 ;; This function is called by:
 12421 ;;		_EUSART_Initialize
 12422 ;;		_EUSART_Receive_ISR
 12423 ;; This function uses a non-reentrant model
 12424 ;;
 12425                           
 12426                           	psect	text97
 12427  00460C                     __ptext97:
 12428                           	callstack 0
 12429  00460C                     _EUSART_DefaultErrorHandler:
 12430                           	callstack 17
 12431  00460C                     
 12432                           ;mcc_generated_files/eusart.c: 270:     EUSART_RxDataHandler();
 12433  00460C  ECFA  F021         	call	_EUSART_RxDataHandler	;wreg free
 12434  004610  0012               	return		;funcret
 12435  004612                     __end_of_EUSART_DefaultErrorHandler:
 12436                           	callstack 0
 12437                           
 12438 ;; *************** function _EUSART_RxDataHandler *****************
 12439 ;; Defined at:
 12440 ;;		line 249 in file "mcc_generated_files/eusart.c"
 12441 ;; Parameters:    Size  Location     Type
 12442 ;;		None
 12443 ;; Auto vars:     Size  Location     Type
 12444 ;;		None
 12445 ;; Return value:  Size  Location     Type
 12446 ;;                  1    wreg      void 
 12447 ;; Registers used:
 12448 ;;		wreg, fsr2l, fsr2h, status,2, status,0
 12449 ;; Tracked objects:
 12450 ;;		On entry : 0/0
 12451 ;;		On exit  : 0/0
 12452 ;;		Unchanged: 0/0
 12453 ;; Data sizes:     COMRAM   BANK0   BANK1   BANK2   BANK3   BANK4   BANK5   BANK6   BANK7   BANK8   BANK9  BANK10  BANK1
      +1  BANK12  BANK13  BANK14  BANK15
 12454 ;;      Params:         0       0       0       0       0       0       0       0       0       0       0       0       
      +0       0       0       0       0
 12455 ;;      Locals:         0       0       0       0       0       0       0       0       0       0       0       0       
      +0       0       0       0       0
 12456 ;;      Temps:          0       0       0       0       0       0       0       0       0       0       0       0       
      +0       0       0       0       0
 12457 ;;      Totals:         0       0       0       0       0       0       0       0       0       0       0       0       
      +0       0       0       0       0
 12458 ;;Total ram usage:        0 bytes
 12459 ;; Hardware stack levels used: 1
 12460 ;; This function calls:
 12461 ;;		Nothing
 12462 ;; This function is called by:
 12463 ;;		_EUSART_Receive_ISR
 12464 ;;		_EUSART_DefaultErrorHandler
 12465 ;; This function uses a non-reentrant model
 12466 ;;
 12467                           
 12468                           	psect	text98
 12469  0043F4                     __ptext98:
 12470                           	callstack 0
 12471  0043F4                     _EUSART_RxDataHandler:
 12472                           	callstack 18
 12473  0043F4                     
 12474                           ;mcc_generated_files/eusart.c: 251:     eusartRxBuffer[eusartRxHead++] = RCREG;
 12475  0043F4  0E8C               	movlw	low _eusartRxBuffer
 12476  0043F6  2458               	addwf	_eusartRxHead^0,w,c	;volatile
 12477  0043F8  6ED9               	movwf	fsr2l,c
 12478  0043FA  6ADA               	clrf	fsr2h,c
 12479  0043FC  0E00               	movlw	high _eusartRxBuffer
 12480  0043FE  22DA               	addwfc	fsr2h,f,c
 12481  004400  CFAE FFDF          	movff	4014,indf2	;volatile
 12482  004404  2A58               	incf	_eusartRxHead^0,f,c	;volatile
 12483  004406                     
 12484                           ;mcc_generated_files/eusart.c: 252:     if(sizeof(eusartRxBuffer) <= eusartRxHead)
 12485  004406  0E07               	movlw	7
 12486  004408  6458               	cpfsgt	_eusartRxHead^0,c	;volatile
 12487  00440A  EF09  F022         	goto	i2u505_41
 12488  00440E  EF0B  F022         	goto	i2u505_40
 12489  004412                     i2u505_41:
 12490  004412  EF0D  F022         	goto	i2l5268
 12491  004416                     i2u505_40:
 12492  004416                     
 12493                           ;mcc_generated_files/eusart.c: 253:     {;mcc_generated_files/eusart.c: 254:         eus
      +                          artRxHead = 0;
 12494  004416  0E00               	movlw	0
 12495  004418  6E58               	movwf	_eusartRxHead^0,c	;volatile
 12496  00441A                     i2l5268:
 12497                           
 12498                           ;mcc_generated_files/eusart.c: 256:     eusartRxCount++;
 12499  00441A  2A56               	incf	_eusartRxCount^0,f,c	;volatile
 12500  00441C  0012               	return		;funcret
 12501  00441E                     __end_of_EUSART_RxDataHandler:
 12502                           	callstack 0
 12503                           
 12504                           	psect	text99
 12505  000000                     __ptext99:
 12506                           	callstack 0
 12507  000000                     
 12508                           	psect	rparam
 12509  0000                     
 12510                           	psect	temp
 12511  00005B                     btemp:
 12512                           	callstack 0
 12513  00005B                     	ds	1
 12514  0000                     int$flags	set	btemp
 12515  0000                     wtemp8	set	btemp+1
 12516  0000                     ttemp5	set	btemp+1
 12517  0000                     ttemp6	set	btemp+4
 12518  0000                     ttemp7	set	btemp+8
 12519                           
 12520                           	psect	idloc
 12521                           
 12522                           ;Config register IDLOC0 @ 0x200000
 12523                           ;	unspecified, using default values
 12524  200000                     	org	2097152
 12525  200000  FF                 	db	255
 12526                           
 12527                           ;Config register IDLOC1 @ 0x200001
 12528                           ;	unspecified, using default values
 12529  200001                     	org	2097153
 12530  200001  FF                 	db	255
 12531                           
 12532                           ;Config register IDLOC2 @ 0x200002
 12533                           ;	unspecified, using default values
 12534  200002                     	org	2097154
 12535  200002  FF                 	db	255
 12536                           
 12537                           ;Config register IDLOC3 @ 0x200003
 12538                           ;	unspecified, using default values
 12539  200003                     	org	2097155
 12540  200003  FF                 	db	255
 12541                           
 12542                           ;Config register IDLOC4 @ 0x200004
 12543                           ;	unspecified, using default values
 12544  200004                     	org	2097156
 12545  200004  FF                 	db	255
 12546                           
 12547                           ;Config register IDLOC5 @ 0x200005
 12548                           ;	unspecified, using default values
 12549  200005                     	org	2097157
 12550  200005  FF                 	db	255
 12551                           
 12552                           ;Config register IDLOC6 @ 0x200006
 12553                           ;	unspecified, using default values
 12554  200006                     	org	2097158
 12555  200006  FF                 	db	255
 12556                           
 12557                           ;Config register IDLOC7 @ 0x200007
 12558                           ;	unspecified, using default values
 12559  200007                     	org	2097159
 12560  200007  FF                 	db	255
 12561                           
 12562                           	psect	config
 12563                           
 12564                           ; Padding undefined space
 12565  300000                     	org	3145728
 12566  300000  FF                 	db	255
 12567                           
 12568                           ;Config register CONFIG1H @ 0x300001
 12569                           ;	Oscillator Selection bits
 12570                           ;	FOSC = INTIO67, Internal oscillator block, port function on RA6 and RA7
 12571                           ;	Fail-Safe Clock Monitor Enable bit
 12572                           ;	FCMEN = OFF, Fail-Safe Clock Monitor disabled
 12573                           ;	Internal/External Oscillator Switchover bit
 12574                           ;	IESO = OFF, Oscillator Switchover mode disabled
 12575  300001                     	org	3145729
 12576  300001  08                 	db	8
 12577                           
 12578                           ;Config register CONFIG2L @ 0x300002
 12579                           ;	Power-up Timer Enable bit
 12580                           ;	PWRT = OFF, PWRT disabled
 12581                           ;	Brown-out Reset Enable bits
 12582                           ;	BOREN = SBORDIS, Brown-out Reset enabled in hardware only (SBOREN is disabled)
 12583                           ;	Brown Out Reset Voltage bits
 12584                           ;	BORV = 18, VBOR set to 1.8 V nominal
 12585  300002                     	org	3145730
 12586  300002  1F                 	db	31
 12587                           
 12588                           ;Config register CONFIG2H @ 0x300003
 12589                           ;	Watchdog Timer Enable bit
 12590                           ;	WDTEN = OFF, WDT is controlled by SWDTEN bit of the WDTCON register
 12591                           ;	Watchdog Timer Postscale Select bits
 12592                           ;	WDTPS = 32768, 1:32768
 12593  300003                     	org	3145731
 12594  300003  1E                 	db	30
 12595                           
 12596                           ; Padding undefined space
 12597  300004                     	org	3145732
 12598  300004  FF                 	db	255
 12599                           
 12600                           ;Config register CONFIG3H @ 0x300005
 12601                           ;	CCP2 MUX bit
 12602                           ;	CCP2MX = PORTC, CCP2 input/output is multiplexed with RC1
 12603                           ;	PORTB A/D Enable bit
 12604                           ;	PBADEN = ON, PORTB<4:0> pins are configured as analog input channels on Reset
 12605                           ;	Low-Power Timer1 Oscillator Enable bit
 12606                           ;	LPT1OSC = OFF, Timer1 configured for higher power operation
 12607                           ;	HFINTOSC Fast Start-up
 12608                           ;	HFOFST = ON, HFINTOSC starts clocking the CPU without waiting for the oscillator to st
      +                          ablize.
 12609                           ;	MCLR Pin Enable bit
 12610                           ;	MCLRE = OFF, RE3 input pin enabled; MCLR disabled
 12611  300005                     	org	3145733
 12612  300005  0B                 	db	11
 12613                           
 12614                           ;Config register CONFIG4L @ 0x300006
 12615                           ;	Stack Full/Underflow Reset Enable bit
 12616                           ;	STVREN = ON, Stack full/underflow will cause Reset
 12617                           ;	Single-Supply ICSP Enable bit
 12618                           ;	LVP = OFF, Single-Supply ICSP disabled
 12619                           ;	Extended Instruction Set Enable bit
 12620                           ;	XINST = OFF, Instruction set extension and Indexed Addressing mode disabled (Legacy mo
      +                          de)
 12621                           ;	Background Debugger Enable bit
 12622                           ;	DEBUG = OFF, Background debugger disabled, RB6 and RB7 configured as general purpose I
      +                          /O pins
 12623  300006                     	org	3145734
 12624  300006  81                 	db	129
 12625                           
 12626                           ; Padding undefined space
 12627  300007                     	org	3145735
 12628  300007  FF                 	db	255
 12629                           
 12630                           ;Config register CONFIG5L @ 0x300008
 12631                           ;	Code Protection Block 0
 12632                           ;	CP0 = OFF, Block 0 (000800-003FFFh) not code-protected
 12633                           ;	Code Protection Block 1
 12634                           ;	CP1 = OFF, Block 1 (004000-007FFFh) not code-protected
 12635                           ;	Code Protection Block 2
 12636                           ;	CP2 = OFF, Block 2 (008000-00BFFFh) not code-protected
 12637                           ;	Code Protection Block 3
 12638                           ;	CP3 = OFF, Block 3 (00C000-00FFFFh) not code-protected
 12639  300008                     	org	3145736
 12640  300008  0F                 	db	15
 12641                           
 12642                           ;Config register CONFIG5H @ 0x300009
 12643                           ;	Boot Block Code Protection bit
 12644                           ;	CPB = OFF, Boot block (000000-0007FFh) not code-protected
 12645                           ;	Data EEPROM Code Protection bit
 12646                           ;	CPD = OFF, Data EEPROM not code-protected
 12647  300009                     	org	3145737
 12648  300009  C0                 	db	192
 12649                           
 12650                           ;Config register CONFIG6L @ 0x30000A
 12651                           ;	Write Protection Block 0
 12652                           ;	WRT0 = OFF, Block 0 (000800-003FFFh) not write-protected
 12653                           ;	Write Protection Block 1
 12654                           ;	WRT1 = OFF, Block 1 (004000-007FFFh) not write-protected
 12655                           ;	Write Protection Block 2
 12656                           ;	WRT2 = OFF, Block 2 (008000-00BFFFh) not write-protected
 12657                           ;	Write Protection Block 3
 12658                           ;	WRT3 = OFF, Block 3 (00C000h-00FFFFh) not write-protected
 12659  30000A                     	org	3145738
 12660  30000A  0F                 	db	15
 12661                           
 12662                           ;Config register CONFIG6H @ 0x30000B
 12663                           ;	Configuration Register Write Protection bit
 12664                           ;	WRTC = OFF, Configuration registers (300000-3000FFh) not write-protected
 12665                           ;	Boot Block Write Protection bit
 12666                           ;	WRTB = OFF, Boot Block (000000-0007FFh) not write-protected
 12667                           ;	Data EEPROM Write Protection bit
 12668                           ;	WRTD = OFF, Data EEPROM not write-protected
 12669  30000B                     	org	3145739
 12670  30000B  E0                 	db	224
 12671                           
 12672                           ;Config register CONFIG7L @ 0x30000C
 12673                           ;	Table Read Protection Block 0
 12674                           ;	EBTR0 = OFF, Block 0 (000800-003FFFh) not protected from table reads executed in other
      +                           blocks
 12675                           ;	Table Read Protection Block 1
 12676                           ;	EBTR1 = OFF, Block 1 (004000-007FFFh) not protected from table reads executed in other
      +                           blocks
 12677                           ;	Table Read Protection Block 2
 12678                           ;	EBTR2 = OFF, Block 2 (008000-00BFFFh) not protected from table reads executed in other
      +                           blocks
 12679                           ;	Table Read Protection Block 3
 12680                           ;	EBTR3 = OFF, Block 3 (00C000-00FFFFh) not protected from table reads executed in other
      +                           blocks
 12681  30000C                     	org	3145740
 12682  30000C  0F                 	db	15
 12683                           
 12684                           ;Config register CONFIG7H @ 0x30000D
 12685                           ;	Boot Block Table Read Protection bit
 12686                           ;	EBTRB = OFF, Boot Block (000000-0007FFh) not protected from table reads executed in ot
      +                          her blocks
 12687  30000D                     	org	3145741
 12688  30000D  40                 	db	64
 12689                           tosu	equ	0xFFF
 12690                           tosh	equ	0xFFE
 12691                           tosl	equ	0xFFD
 12692                           stkptr	equ	0xFFC
 12693                           pclatu	equ	0xFFB
 12694                           pclath	equ	0xFFA
 12695                           pcl	equ	0xFF9
 12696                           tblptru	equ	0xFF8
 12697                           tblptrh	equ	0xFF7
 12698                           tblptrl	equ	0xFF6
 12699                           tablat	equ	0xFF5
 12700                           prodh	equ	0xFF4
 12701                           prodl	equ	0xFF3
 12702                           indf0	equ	0xFEF
 12703                           postinc0	equ	0xFEE
 12704                           postdec0	equ	0xFED
 12705                           preinc0	equ	0xFEC
 12706                           plusw0	equ	0xFEB
 12707                           fsr0h	equ	0xFEA
 12708                           fsr0l	equ	0xFE9
 12709                           wreg	equ	0xFE8
 12710                           indf1	equ	0xFE7
 12711                           postinc1	equ	0xFE6
 12712                           postdec1	equ	0xFE5
 12713                           preinc1	equ	0xFE4
 12714                           plusw1	equ	0xFE3
 12715                           fsr1h	equ	0xFE2
 12716                           fsr1l	equ	0xFE1
 12717                           bsr	equ	0xFE0
 12718                           indf2	equ	0xFDF
 12719                           postinc2	equ	0xFDE
 12720                           postdec2	equ	0xFDD
 12721                           preinc2	equ	0xFDC
 12722                           plusw2	equ	0xFDB
 12723                           fsr2h	equ	0xFDA
 12724                           fsr2l	equ	0xFD9
 12725                           status	equ	0xFD8

Data Sizes:
    Strings     40
    Constant    32
    Data        0
    BSS         171
    Persistent  11
    Stack       0

Auto Spaces:
    Space          Size  Autos    Used
    COMRAM           94     85      90
    BANK0           160     64     157
    BANK1           256      6      90
    BANK2           256      0       0
    BANK3           256      0       0
    BANK4           256      0       0
    BANK5           256      0       0
    BANK6           256      0       0
    BANK7           256      0       0
    BANK8           256      0       0
    BANK9           256      0       0
    BANK10          256      0       0
    BANK11          256      0       0
    BANK12          256      0       0
    BANK13          256      0       0
    BANK14          256      0       0
    BANK15           96      0       0

Pointer List with Targets:

    I2C_Read1ByteRegister@returnValue.data	PTR unsigned char  size(2) Largest target is 0

    I2C_Read2ByteRegister@returnValue.data	PTR unsigned char  size(2) Largest target is 0

    I2C_Write1ByteRegister@data.data	PTR unsigned char  size(2) Largest target is 0

    I2C_Write2ByteRegister@data.data	PTR unsigned char  size(2) Largest target is 0

    I2C_DO_TX$2480$0	PTR void  size(2) Largest target is 5
		 -> I2C_ReadDataBlock@bufferBlock(COMRAM[4]), I2C_Write2ByteRegister@data(COMRAM[2]), I2C_Write1ByteRegister@data(COMRAM[1]), I2C_Read2ByteRegister@returnValue(COMRAM[2]), 
		 -> NULL(NULL[0]), I2C_Read1ByteRegister@returnValue(COMRAM[1]), 

    I2C_DO_RX$2486$0	PTR void  size(2) Largest target is 5
		 -> I2C_ReadDataBlock@bufferBlock(COMRAM[4]), I2C_Write2ByteRegister@data(COMRAM[2]), I2C_Write1ByteRegister@data(COMRAM[1]), I2C_Read2ByteRegister@returnValue(COMRAM[2]), 
		 -> NULL(NULL[0]), I2C_Read1ByteRegister@returnValue(COMRAM[1]), 

    I2C_DO_TX_EMPTY$2492$0	PTR void  size(2) Largest target is 5
		 -> I2C_ReadDataBlock@bufferBlock(COMRAM[4]), I2C_Write2ByteRegister@data(COMRAM[2]), I2C_Write1ByteRegister@data(COMRAM[1]), I2C_Read2ByteRegister@returnValue(COMRAM[2]), 
		 -> NULL(NULL[0]), I2C_Read1ByteRegister@returnValue(COMRAM[1]), 

    I2C_DO_RX_EMPTY$2498$0	PTR void  size(2) Largest target is 5
		 -> I2C_ReadDataBlock@bufferBlock(COMRAM[4]), I2C_Write2ByteRegister@data(COMRAM[2]), I2C_Write1ByteRegister@data(COMRAM[1]), I2C_Read2ByteRegister@returnValue(COMRAM[2]), 
		 -> NULL(NULL[0]), I2C_Read1ByteRegister@returnValue(COMRAM[1]), 

    I2C_DO_TX_EMPTY$2497	PTR void  size(2) Largest target is 5
		 -> I2C_ReadDataBlock@bufferBlock(COMRAM[4]), I2C_Write2ByteRegister@data(COMRAM[2]), I2C_Write1ByteRegister@data(COMRAM[1]), I2C_Read2ByteRegister@returnValue(COMRAM[2]), 
		 -> NULL(NULL[0]), I2C_Read1ByteRegister@returnValue(COMRAM[1]), 

    I2C_DO_TX_EMPTY$2492	PTR FTN(PTR void ,)enum E360 size(2) Largest target is 1
		 -> I2C_CallbackReturnReset(), I2C_CallbackReturnStop(), Absolute function(), rdBlkRegCompleteHandler(), 
		 -> wr2RegCompleteHandler(), wr1RegCompleteHandler(), rd2RegCompleteHandler(), rd1RegCompleteHandler(), 

    I2C_DO_RX$2491	PTR void  size(2) Largest target is 5
		 -> I2C_ReadDataBlock@bufferBlock(COMRAM[4]), I2C_Write2ByteRegister@data(COMRAM[2]), I2C_Write1ByteRegister@data(COMRAM[1]), I2C_Read2ByteRegister@returnValue(COMRAM[2]), 
		 -> NULL(NULL[0]), I2C_Read1ByteRegister@returnValue(COMRAM[1]), 

    I2C_DO_RX$2486	PTR FTN(PTR void ,)enum E360 size(2) Largest target is 1
		 -> I2C_CallbackReturnReset(), I2C_CallbackReturnStop(), Absolute function(), rdBlkRegCompleteHandler(), 
		 -> wr2RegCompleteHandler(), wr1RegCompleteHandler(), rd2RegCompleteHandler(), rd1RegCompleteHandler(), 

    I2C_DO_TX$2485	PTR void  size(2) Largest target is 5
		 -> I2C_ReadDataBlock@bufferBlock(COMRAM[4]), I2C_Write2ByteRegister@data(COMRAM[2]), I2C_Write1ByteRegister@data(COMRAM[1]), I2C_Read2ByteRegister@returnValue(COMRAM[2]), 
		 -> NULL(NULL[0]), I2C_Read1ByteRegister@returnValue(COMRAM[1]), 

    I2C_DO_TX$2480	PTR FTN(PTR void ,)enum E360 size(2) Largest target is 1
		 -> I2C_CallbackReturnReset(), I2C_CallbackReturnStop(), Absolute function(), rdBlkRegCompleteHandler(), 
		 -> wr2RegCompleteHandler(), wr1RegCompleteHandler(), rd2RegCompleteHandler(), rd1RegCompleteHandler(), 

    I2C_MasterFsm$2479	const PTR FTN()enum E3103 size(2) Largest target is 1
		 -> I2C_DO_ADDRESS_NACK(), I2C_DO_RESET(), I2C_DO_RX_NACK_RESTART(), I2C_DO_RX_NACK_STOP(), 
		 -> I2C_DO_RX_ACK(), I2C_DO_SEND_STOP(), I2C_DO_SEND_RESTART(), I2C_DO_SEND_RESTART_WRITE(), 
		 -> I2C_DO_SEND_RESTART_READ(), I2C_DO_TX_EMPTY(), I2C_DO_RCEN(), I2C_DO_RX(), 
		 -> I2C_DO_TX(), I2C_DO_SEND_ADR_WRITE(), I2C_DO_SEND_ADR_READ(), I2C_DO_IDLE(), 

    I2C_CallbackReturnStop@funPtr	PTR void  size(2) Largest target is 5
		 -> I2C_ReadDataBlock@bufferBlock(COMRAM[4]), I2C_Write2ByteRegister@data(COMRAM[2]), I2C_Write1ByteRegister@data(COMRAM[1]), I2C_Read2ByteRegister@returnValue(COMRAM[2]), 
		 -> NULL(NULL[0]), I2C_Read1ByteRegister@returnValue(COMRAM[1]), 

    I2C_CallbackReturnReset@funPtr	PTR void  size(2) Largest target is 5
		 -> I2C_ReadDataBlock@bufferBlock(COMRAM[4]), I2C_Write2ByteRegister@data(COMRAM[2]), I2C_Write1ByteRegister@data(COMRAM[1]), I2C_Read2ByteRegister@returnValue(COMRAM[2]), 
		 -> NULL(NULL[0]), I2C_Read1ByteRegister@returnValue(COMRAM[1]), 

    cb$0	PTR void  size(2) Largest target is 5
		 -> I2C_ReadDataBlock@bufferBlock(COMRAM[4]), I2C_Write2ByteRegister@data(COMRAM[2]), I2C_Write1ByteRegister@data(COMRAM[1]), I2C_Read2ByteRegister@returnValue(COMRAM[2]), 
		 -> NULL(NULL[0]), I2C_Read1ByteRegister@returnValue(COMRAM[1]), 

    Absolute function$0	PTR void  size(2) Largest target is 5
		 -> I2C_ReadDataBlock@bufferBlock(COMRAM[4]), I2C_Write2ByteRegister@data(COMRAM[2]), I2C_Write1ByteRegister@data(COMRAM[1]), I2C_Read2ByteRegister@returnValue(COMRAM[2]), 
		 -> NULL(NULL[0]), I2C_Read1ByteRegister@returnValue(COMRAM[1]), 

    cb$0	PTR void  size(2) Largest target is 5
		 -> I2C_ReadDataBlock@bufferBlock(COMRAM[4]), I2C_Write2ByteRegister@data(COMRAM[2]), I2C_Write1ByteRegister@data(COMRAM[1]), I2C_Read2ByteRegister@returnValue(COMRAM[2]), 
		 -> NULL(NULL[0]), I2C_Read1ByteRegister@returnValue(COMRAM[1]), 

    S248$0$0	PTR void  size(2) Largest target is 5
		 -> I2C_ReadDataBlock@bufferBlock(COMRAM[4]), I2C_Write2ByteRegister@data(COMRAM[2]), I2C_Write1ByteRegister@data(COMRAM[1]), I2C_Read2ByteRegister@returnValue(COMRAM[2]), 
		 -> NULL(NULL[0]), I2C_Read1ByteRegister@returnValue(COMRAM[1]), 

    strncmp@_r	PTR const unsigned char  size(2) Largest target is 3
		 -> STR_12(CODE[3]), 

    strncmp@r	PTR const unsigned char  size(2) Largest target is 3
		 -> STR_12(CODE[3]), 

    strncmp@_l	PTR const unsigned char  size(2) Largest target is 3
		 -> vfpfcnvrt@ct(COMRAM[3]), 

    strncmp@l	PTR const unsigned char  size(2) Largest target is 3
		 -> vfpfcnvrt@ct(COMRAM[3]), 

    strlen@s	PTR const unsigned char  size(2) Largest target is 80
		 -> dbuf(BANK1[80]), 

    strlen@a	PTR const unsigned char  size(2) Largest target is 80
		 -> dbuf(BANK1[80]), 

    strcpy@dest	PTR unsigned char  size(2) Largest target is 80
		 -> dbuf(BANK1[80]), 

    strcpy@d	PTR unsigned char  size(2) Largest target is 80
		 -> dbuf(BANK1[80]), 

    strcpy@src	PTR const unsigned char  size(2) Largest target is 80
		 -> STR_7(CODE[4]), STR_6(CODE[4]), STR_3(CODE[4]), STR_2(CODE[4]), 
		 -> dbuf(BANK1[80]), 

    strcpy@s	PTR const unsigned char  size(2) Largest target is 80
		 -> STR_7(CODE[4]), STR_6(CODE[4]), STR_3(CODE[4]), STR_2(CODE[4]), 
		 -> dbuf(BANK1[80]), 

    fputs@s	PTR const unsigned char  size(2) Largest target is 80
		 -> dbuf(BANK1[80]), 

    fputs@fp	PTR struct _IO_FILE size(2) Largest target is 0
		 -> NULL(NULL[0]), 

    S1982_IO_FILE$buffer	PTR unsigned char  size(2) Largest target is 0

    fputc@fp.buffer	PTR unsigned char  size(2) Largest target is 0

    fputc@fp	PTR struct _IO_FILE size(2) Largest target is 0
		 -> NULL(NULL[0]), 

    vfprintf@ap	PTR PTR void  size(2) Largest target is 2
		 -> printf@ap(COMRAM[2]), 

    vfprintf@fp	PTR struct _IO_FILE size(2) Largest target is 0
		 -> NULL(NULL[0]), 

    vfprintf@fmt	PTR const unsigned char  size(2) Largest target is 21
		 -> STR_1(CODE[21]), 

    vfprintf@cfmt	PTR unsigned char  size(2) Largest target is 21
		 -> STR_1(CODE[21]), 

    vfpfcnvrt@fp	PTR struct _IO_FILE size(2) Largest target is 0
		 -> NULL(NULL[0]), 

    vfpfcnvrt@ap	PTR PTR void  size(2) Largest target is 2
		 -> printf@ap(COMRAM[2]), 

    vfpfcnvrt@fmt	PTR PTR unsigned char  size(2) Largest target is 2
		 -> vfprintf@cfmt(COMRAM[2]), 

    efgtoa@fp	PTR struct _IO_FILE size(2) Largest target is 0
		 -> NULL(NULL[0]), 

    sp__strcpy	PTR unsigned char  size(2) Largest target is 80
		 -> dbuf(BANK1[80]), 

    pad@fp	PTR struct _IO_FILE size(2) Largest target is 0
		 -> NULL(NULL[0]), 

    pad@buf	PTR unsigned char  size(2) Largest target is 80
		 -> dbuf(BANK1[80]), 

    printf@fmt	PTR const unsigned char  size(2) Largest target is 21
		 -> STR_1(CODE[21]), 

    printf@ap	PTR void [1] size(2) Largest target is 2
		 -> ?_printf(BANK1[2]), 

    EUSART_SetRxInterruptHandler@interruptHandler	PTR FTN()void  size(2) Largest target is 1
		 -> EUSART_Receive_ISR(), 

    EUSART_RxDefaultInterruptHandler	PTR FTN()void  size(2) Largest target is 1
		 -> EUSART_Receive_ISR(), Absolute function(), 

    EUSART_SetTxInterruptHandler@interruptHandler	PTR FTN()void  size(2) Largest target is 1
		 -> EUSART_Transmit_ISR(), 

    EUSART_TxDefaultInterruptHandler	PTR FTN()void  size(2) Largest target is 1
		 -> EUSART_Transmit_ISR(), Absolute function(), 

    EUSART_SetErrorHandler@interruptHandler	PTR FTN()void  size(2) Largest target is 1
		 -> EUSART_DefaultErrorHandler(), 

    EUSART_SetOverrunErrorHandler@interruptHandler	PTR FTN()void  size(2) Largest target is 1
		 -> EUSART_DefaultOverrunErrorHandler(), 

    EUSART_SetFramingErrorHandler@interruptHandler	PTR FTN()void  size(2) Largest target is 1
		 -> EUSART_DefaultFramingErrorHandler(), 

    EUSART_ErrorHandler	PTR FTN()void  size(2) Largest target is 1
		 -> EUSART_DefaultErrorHandler(), Absolute function(), 

    EUSART_OverrunErrorHandler	PTR FTN()void  size(2) Largest target is 1
		 -> EUSART_DefaultOverrunErrorHandler(), Absolute function(), 

    EUSART_FramingErrorHandler	PTR FTN()void  size(2) Largest target is 1
		 -> EUSART_DefaultFramingErrorHandler(), Absolute function(), 

    I2C_SetCallback@ptr	PTR void  size(2) Largest target is 5
		 -> I2C_ReadDataBlock@bufferBlock(COMRAM[4]), I2C_Write2ByteRegister@data(COMRAM[2]), I2C_Write1ByteRegister@data(COMRAM[1]), I2C_Read2ByteRegister@returnValue(COMRAM[2]), 
		 -> NULL(NULL[0]), I2C_Read1ByteRegister@returnValue(COMRAM[1]), 

    I2C_SetCallback@cb	PTR FTN(PTR void ,)enum E360 size(2) Largest target is 1
		 -> Absolute function(), rdBlkRegCompleteHandler(), wr2RegCompleteHandler(), wr1RegCompleteHandler(), 
		 -> rd2RegCompleteHandler(), rd1RegCompleteHandler(), 

    I2C_SetAddressNackCallback@ptr	PTR void  size(2) Largest target is 0
		 -> NULL(NULL[0]), 

    I2C_SetAddressNackCallback@cb	PTR FTN(PTR void ,)enum E360 size(2) Largest target is 1
		 -> Absolute function(), 

    I2C_SetDataCompleteCallback@ptr	PTR void  size(2) Largest target is 5
		 -> I2C_ReadDataBlock@bufferBlock(COMRAM[4]), I2C_Write2ByteRegister@data(COMRAM[2]), I2C_Write1ByteRegister@data(COMRAM[1]), I2C_Read2ByteRegister@returnValue(COMRAM[2]), 
		 -> NULL(NULL[0]), I2C_Read1ByteRegister@returnValue(COMRAM[1]), 

    I2C_SetDataCompleteCallback@cb	PTR FTN(PTR void ,)enum E360 size(2) Largest target is 1
		 -> Absolute function(), rdBlkRegCompleteHandler(), wr2RegCompleteHandler(), wr1RegCompleteHandler(), 
		 -> rd2RegCompleteHandler(), rd1RegCompleteHandler(), 

    I2C_SetBuffer@buffer	PTR void  size(2) Largest target is 5
		 -> I2C_ReadDataBlock@reg(COMRAM[1]), I2C_ReadDataBlock@bufferBlock(COMRAM[4]), I2C_Write2ByteRegister@reg(COMRAM[1]), I2C_Write2ByteRegister@data(COMRAM[2]), 
		 -> I2C_Write1ByteRegister@reg(COMRAM[1]), I2C_Write1ByteRegister@data(COMRAM[1]), I2C_Read2ByteRegister@reg(COMRAM[1]), I2C_Read2ByteRegister@returnValue(COMRAM[2]), 
		 -> NULL(NULL[0]), I2C_Read1ByteRegister@reg(COMRAM[1]), I2C_Read1ByteRegister@returnValue(COMRAM[1]), 

    S248$data_ptr	PTR unsigned char  size(2) Largest target is 5
		 -> I2C_ReadDataBlock@reg(COMRAM[1]), I2C_ReadDataBlock@bufferBlock(COMRAM[4]), I2C_Write2ByteRegister@reg(COMRAM[1]), I2C_Write2ByteRegister@data(COMRAM[2]), 
		 -> I2C_Write1ByteRegister@reg(COMRAM[1]), I2C_Write1ByteRegister@data(COMRAM[1]), I2C_Read2ByteRegister@reg(COMRAM[1]), I2C_Read2ByteRegister@returnValue(COMRAM[2]), 
		 -> NULL(NULL[0]), I2C_Read1ByteRegister@reg(COMRAM[1]), I2C_Read1ByteRegister@returnValue(COMRAM[1]), 

    I2C_Status.data_ptr	PTR unsigned char  size(2) Largest target is 5
		 -> I2C_ReadDataBlock@reg(COMRAM[1]), I2C_ReadDataBlock@bufferBlock(COMRAM[4]), I2C_Write2ByteRegister@reg(COMRAM[1]), I2C_Write2ByteRegister@data(COMRAM[2]), 
		 -> I2C_Write1ByteRegister@reg(COMRAM[1]), I2C_Write1ByteRegister@data(COMRAM[1]), I2C_Read2ByteRegister@reg(COMRAM[1]), I2C_Read2ByteRegister@returnValue(COMRAM[2]), 
		 -> NULL(NULL[0]), I2C_Read1ByteRegister@reg(COMRAM[1]), I2C_Read1ByteRegister@returnValue(COMRAM[1]), 

    S248$callbackPayload	PTR void [6] size(2) Largest target is 5
		 -> I2C_ReadDataBlock@bufferBlock(COMRAM[4]), I2C_Write2ByteRegister@data(COMRAM[2]), I2C_Write1ByteRegister@data(COMRAM[1]), I2C_Read2ByteRegister@returnValue(COMRAM[2]), 
		 -> NULL(NULL[0]), I2C_Read1ByteRegister@returnValue(COMRAM[1]), 

    I2C_Status.callbackPayload	PTR void [6] size(2) Largest target is 5
		 -> I2C_ReadDataBlock@bufferBlock(COMRAM[4]), I2C_Write2ByteRegister@data(COMRAM[2]), I2C_Write1ByteRegister@data(COMRAM[1]), I2C_Read2ByteRegister@returnValue(COMRAM[2]), 
		 -> NULL(NULL[0]), I2C_Read1ByteRegister@returnValue(COMRAM[1]), 

    S248$callbackTable	PTR FTN(PTR void ,)enum E360[6] size(2) Largest target is 1
		 -> I2C_CallbackReturnReset(), I2C_CallbackReturnStop(), Absolute function(), rdBlkRegCompleteHandler(), 
		 -> wr2RegCompleteHandler(), wr1RegCompleteHandler(), rd2RegCompleteHandler(), rd1RegCompleteHandler(), 

    I2C_Status.callbackTable	PTR FTN(PTR void ,)enum E360[6] size(2) Largest target is 1
		 -> I2C_CallbackReturnReset(), I2C_CallbackReturnStop(), Absolute function(), rdBlkRegCompleteHandler(), 
		 -> wr2RegCompleteHandler(), wr1RegCompleteHandler(), rd2RegCompleteHandler(), rd1RegCompleteHandler(), 

    fsmStateTable	const PTR FTN()enum E3103[16] size(2) Largest target is 1
		 -> I2C_DO_ADDRESS_NACK(), I2C_DO_RESET(), I2C_DO_RX_NACK_RESTART(), I2C_DO_RX_NACK_STOP(), 
		 -> I2C_DO_RX_ACK(), I2C_DO_SEND_STOP(), I2C_DO_SEND_RESTART(), I2C_DO_SEND_RESTART_WRITE(), 
		 -> I2C_DO_SEND_RESTART_READ(), I2C_DO_TX_EMPTY(), I2C_DO_RCEN(), I2C_DO_RX(), 
		 -> I2C_DO_TX(), I2C_DO_SEND_ADR_WRITE(), I2C_DO_SEND_ADR_READ(), I2C_DO_IDLE(), 

    rdBlkRegCompleteHandler@ptr.data	PTR unsigned char  size(2) Largest target is 0

    rdBlkRegCompleteHandler@ptr	PTR void  size(2) Largest target is 5
		 -> I2C_ReadDataBlock@bufferBlock(COMRAM[4]), I2C_Write2ByteRegister@data(COMRAM[2]), I2C_Write1ByteRegister@data(COMRAM[1]), I2C_Read2ByteRegister@returnValue(COMRAM[2]), 
		 -> NULL(NULL[0]), I2C_Read1ByteRegister@returnValue(COMRAM[1]), 

    wr2RegCompleteHandler@ptr	PTR void  size(2) Largest target is 5
		 -> I2C_ReadDataBlock@bufferBlock(COMRAM[4]), I2C_Write2ByteRegister@data(COMRAM[2]), I2C_Write1ByteRegister@data(COMRAM[1]), I2C_Read2ByteRegister@returnValue(COMRAM[2]), 
		 -> NULL(NULL[0]), I2C_Read1ByteRegister@returnValue(COMRAM[1]), 

    wr1RegCompleteHandler@ptr	PTR void  size(2) Largest target is 5
		 -> I2C_ReadDataBlock@bufferBlock(COMRAM[4]), I2C_Write2ByteRegister@data(COMRAM[2]), I2C_Write1ByteRegister@data(COMRAM[1]), I2C_Read2ByteRegister@returnValue(COMRAM[2]), 
		 -> NULL(NULL[0]), I2C_Read1ByteRegister@returnValue(COMRAM[1]), 

    rd2RegCompleteHandler@ptr	PTR void  size(2) Largest target is 5
		 -> I2C_ReadDataBlock@bufferBlock(COMRAM[4]), I2C_Write2ByteRegister@data(COMRAM[2]), I2C_Write1ByteRegister@data(COMRAM[1]), I2C_Read2ByteRegister@returnValue(COMRAM[2]), 
		 -> NULL(NULL[0]), I2C_Read1ByteRegister@returnValue(COMRAM[1]), 

    rd1RegCompleteHandler@ptr	PTR void  size(2) Largest target is 5
		 -> I2C_ReadDataBlock@bufferBlock(COMRAM[4]), I2C_Write2ByteRegister@data(COMRAM[2]), I2C_Write1ByteRegister@data(COMRAM[1]), I2C_Read2ByteRegister@returnValue(COMRAM[2]), 
		 -> NULL(NULL[0]), I2C_Read1ByteRegister@returnValue(COMRAM[1]), 

    S96$data	PTR unsigned char  size(2) Largest target is 0

    bufferBlock.data	PTR unsigned char  size(2) Largest target is 0


Critical Paths under _main in COMRAM

    _main->_printf
    _printf->_vfprintf
    _vfprintf->_vfpfcnvrt
    _vfpfcnvrt->_efgtoa
    _efgtoa->_floorf
    _tolower->_isupper
    _pad->_fputs
    _fputs->_fputc
    _fputc->_putch
    _putch->_EUSART_Write
    _floorf->___fldiv
    ___flsub->___flmul
    ___flge->___flmul
    _VEML6030_Init->_I2C_Read2ByteRegister
    _VEML6030_GetValue->_I2C_Read2ByteRegister
    _I2C_SetAddressNackCallback->_I2C_SetCallback
    _I2C_MasterWrite->_I2C_MasterOperation
    _I2C_Poller->_I2C_MasterFsm
    _I2C_MasterFsm->_I2C_DO_ADDRESS_NACK
    _I2C_MasterFsm->_I2C_DO_RX
    _I2C_MasterFsm->_I2C_DO_TX
    _I2C_MasterFsm->_I2C_DO_TX_EMPTY
    _I2C_DO_TX_EMPTY->_I2C_CallbackReturnReset
    _I2C_DO_TX_EMPTY->_I2C_CallbackReturnStop
    _I2C_DO_TX_EMPTY->_rd1RegCompleteHandler
    _I2C_DO_TX_EMPTY->_rd2RegCompleteHandler
    _I2C_DO_TX_EMPTY->_rdBlkRegCompleteHandler
    _I2C_DO_TX_EMPTY->_wr1RegCompleteHandler
    _I2C_DO_TX_EMPTY->_wr2RegCompleteHandler
    _I2C_DO_TX->_I2C_CallbackReturnReset
    _I2C_DO_TX->_I2C_CallbackReturnStop
    _I2C_DO_TX->_rd1RegCompleteHandler
    _I2C_DO_TX->_rd2RegCompleteHandler
    _I2C_DO_TX->_rdBlkRegCompleteHandler
    _I2C_DO_TX->_wr1RegCompleteHandler
    _I2C_DO_TX->_wr2RegCompleteHandler
    _I2C_DO_SEND_ADR_WRITE->_I2C_MasterSendTxData
    _I2C_DO_RX->_I2C_CallbackReturnReset
    _I2C_DO_RX->_I2C_CallbackReturnStop
    _I2C_DO_RX->_rd1RegCompleteHandler
    _I2C_DO_RX->_rd2RegCompleteHandler
    _I2C_DO_RX->_rdBlkRegCompleteHandler
    _I2C_DO_RX->_wr1RegCompleteHandler
    _I2C_DO_RX->_wr2RegCompleteHandler
    _I2C_DO_ADDRESS_NACK->_I2C_CallbackReturnReset
    _I2C_DO_ADDRESS_NACK->_I2C_CallbackReturnStop
    _I2C_DO_ADDRESS_NACK->_rd1RegCompleteHandler
    _I2C_DO_ADDRESS_NACK->_rd2RegCompleteHandler
    _I2C_DO_ADDRESS_NACK->_rdBlkRegCompleteHandler
    _I2C_DO_ADDRESS_NACK->_wr1RegCompleteHandler
    _I2C_DO_ADDRESS_NACK->_wr2RegCompleteHandler
    _wr2RegCompleteHandler->_I2C_SetDataCompleteCallback
    _wr1RegCompleteHandler->_I2C_SetDataCompleteCallback
    _rdBlkRegCompleteHandler->_I2C_SetDataCompleteCallback
    _rd2RegCompleteHandler->_I2C_SetDataCompleteCallback
    _rd1RegCompleteHandler->_I2C_SetDataCompleteCallback
    _I2C_SetDataCompleteCallback->_I2C_SetCallback
    _EUSART_Initialize->_EUSART_SetErrorHandler
    _EUSART_Initialize->_EUSART_SetFramingErrorHandler
    _EUSART_Initialize->_EUSART_SetOverrunErrorHandler
    _EUSART_Initialize->_EUSART_SetRxInterruptHandler
    _EUSART_Initialize->_EUSART_SetTxInterruptHandler

Critical Paths under _INTERRUPT_InterruptManager in COMRAM

    None.

Critical Paths under _main in BANK0

    _printf->_vfprintf
    _vfpfcnvrt->_efgtoa

Critical Paths under _INTERRUPT_InterruptManager in BANK0

    None.

Critical Paths under _main in BANK1

    _main->_printf

Critical Paths under _INTERRUPT_InterruptManager in BANK1

    None.

Critical Paths under _main in BANK2

    None.

Critical Paths under _INTERRUPT_InterruptManager in BANK2

    None.

Critical Paths under _main in BANK3

    None.

Critical Paths under _INTERRUPT_InterruptManager in BANK3

    None.

Critical Paths under _main in BANK4

    None.

Critical Paths under _INTERRUPT_InterruptManager in BANK4

    None.

Critical Paths under _main in BANK5

    None.

Critical Paths under _INTERRUPT_InterruptManager in BANK5

    None.

Critical Paths under _main in BANK6

    None.

Critical Paths under _INTERRUPT_InterruptManager in BANK6

    None.

Critical Paths under _main in BANK7

    None.

Critical Paths under _INTERRUPT_InterruptManager in BANK7

    None.

Critical Paths under _main in BANK8

    None.

Critical Paths under _INTERRUPT_InterruptManager in BANK8

    None.

Critical Paths under _main in BANK9

    None.

Critical Paths under _INTERRUPT_InterruptManager in BANK9

    None.

Critical Paths under _main in BANK10

    None.

Critical Paths under _INTERRUPT_InterruptManager in BANK10

    None.

Critical Paths under _main in BANK11

    None.

Critical Paths under _INTERRUPT_InterruptManager in BANK11

    None.

Critical Paths under _main in BANK12

    None.

Critical Paths under _INTERRUPT_InterruptManager in BANK12

    None.

Critical Paths under _main in BANK13

    None.

Critical Paths under _INTERRUPT_InterruptManager in BANK13

    None.

Critical Paths under _main in BANK14

    None.

Critical Paths under _INTERRUPT_InterruptManager in BANK14

    None.

Critical Paths under _main in BANK15

    None.

Critical Paths under _INTERRUPT_InterruptManager in BANK15

    None.

Call Graph Tables:

 ---------------------------------------------------------------------------------
 (Depth) Function   	        Calls       Base Space   Used Autos Params    Refs
 ---------------------------------------------------------------------------------
 (0) _main                                                 2     2      0  417098
                                             62 BANK0      2     2      0
                  _SYSTEM_Initialize
                  _VEML6030_GetValue
                      _VEML6030_Init
                             _printf
 ---------------------------------------------------------------------------------
 (1) _printf                                              10     4      6   34914
                                             83 COMRAM     2     2      0
                                              0 BANK1      6     0      6
                           _vfprintf
 ---------------------------------------------------------------------------------
 (2) _vfprintf                                             8     2      6   34731
                                             81 COMRAM     2     2      0
                                             56 BANK0      6     0      6
                          _vfpfcnvrt
 ---------------------------------------------------------------------------------
 (3) _vfpfcnvrt                                           46    40      6   34237
                                             61 COMRAM    20    14      6
                             _efgtoa
                              _fputc
                            _isupper
                            _strncmp
                            _tolower
 ---------------------------------------------------------------------------------
 (4) _strncmp                                             11     5      6     595
                                              4 COMRAM    11     5      6
 ---------------------------------------------------------------------------------
 (4) _efgtoa                                              68    61      7   29540
                                             49 COMRAM    12     5      7
                                              0 BANK0     56    56      0
                            ___awdiv
                            ___awmod
                            ___fladd
                            ___fldiv
                             ___fleq
                             ___flge
                            ___flmul
                            ___flneg
                            ___flsub
                            ___fltol
                      ___fpclassifyf
                             _floorf
                            _isupper
                                _pad
                             _strcpy
                            _tolower
 ---------------------------------------------------------------------------------
 (4) _tolower                                              8     6      2    1142
                                             10 COMRAM     8     6      2
                            _isupper
 ---------------------------------------------------------------------------------
 (5) _isupper                                              6     4      2     551
                                              4 COMRAM     6     4      2
 ---------------------------------------------------------------------------------
 (5) _strcpy                                              10     6      4    1037
                                              4 COMRAM    10     6      4
 ---------------------------------------------------------------------------------
 (5) _pad                                                 11     5      6    3957
                                             22 COMRAM    11     5      6
                              _fputc
                              _fputs
                             _strlen
 ---------------------------------------------------------------------------------
 (6) _strlen                                               4     2      2     220
                                              4 COMRAM     4     2      2
 ---------------------------------------------------------------------------------
 (6) _fputs                                                7     3      4    1537
                                             15 COMRAM     7     3      4
                              _fputc
 ---------------------------------------------------------------------------------
 (4) _fputc                                                9     5      4    1037
                                              6 COMRAM     9     5      4
                              _putch
 ---------------------------------------------------------------------------------
 (5) _putch                                                1     1      0      93
                                              5 COMRAM     1     1      0
                       _EUSART_Write
 ---------------------------------------------------------------------------------
 (6) _EUSART_Write                                         1     1      0      62
                                              4 COMRAM     1     1      0
 ---------------------------------------------------------------------------------
 (5) _floorf                                              20    16      4     669
                                             29 COMRAM    20    16      4
                            ___fldiv (ARG)
 ---------------------------------------------------------------------------------
 (5) ___fpclassifyf                                       14    10      4     375
                                              4 COMRAM    14    10      4
 ---------------------------------------------------------------------------------
 (5) ___fltol                                             10     6      4     517
                                              4 COMRAM    10     6      4
 ---------------------------------------------------------------------------------
 (5) ___flsub                                              8     0      8    4007
                                             29 COMRAM     8     0      8
                            ___fladd
                            ___flmul (ARG)
 ---------------------------------------------------------------------------------
 (6) ___fladd                                             16     8      8    3442
                                              4 COMRAM    16     8      8
 ---------------------------------------------------------------------------------
 (5) ___flneg                                              4     0      4     155
                                              4 COMRAM     4     0      4
 ---------------------------------------------------------------------------------
 (5) ___flmul                                             25    17      8    3593
                                              4 COMRAM    25    17      8
 ---------------------------------------------------------------------------------
 (5) ___flge                                              12     4      8     986
                                             29 COMRAM    12     4      8
                            ___flmul (ARG)
 ---------------------------------------------------------------------------------
 (5) ___fleq                                              12     4      8     770
                                              4 COMRAM    12     4      8
 ---------------------------------------------------------------------------------
 (5) ___fldiv                                             25    17      8    2723
                                              4 COMRAM    25    17      8
 ---------------------------------------------------------------------------------
 (5) ___awmod                                              6     2      4     613
                                              4 COMRAM     6     2      4
 ---------------------------------------------------------------------------------
 (5) ___awdiv                                              8     4      4     625
                                              4 COMRAM     8     4      4
 ---------------------------------------------------------------------------------
 (1) _VEML6030_Init                                        2     2      0  285921
                                             29 COMRAM     2     2      0
              _I2C_Read2ByteRegister
             _I2C_Write1ByteRegister
             _I2C_Write2ByteRegister
 ---------------------------------------------------------------------------------
 (2) _I2C_Write2ByteRegister                               4     1      3   95436
                                             21 COMRAM     4     1      3
                          _I2C_Close
                    _I2C_MasterWrite
                           _I2C_Open
         _I2C_SetAddressNackCallback
                      _I2C_SetBuffer
        _I2C_SetDataCompleteCallback
 ---------------------------------------------------------------------------------
 (2) _I2C_Write1ByteRegister                               3     1      2   95132
                                             21 COMRAM     3     1      2
                          _I2C_Close
                    _I2C_MasterWrite
                           _I2C_Open
         _I2C_SetAddressNackCallback
                      _I2C_SetBuffer
        _I2C_SetDataCompleteCallback
 ---------------------------------------------------------------------------------
 (1) _VEML6030_GetValue                                   10     6      4   95773
                                             29 COMRAM    10     6      4
              _I2C_Read2ByteRegister
                           ___xxtofl
 ---------------------------------------------------------------------------------
 (2) ___xxtofl                                            14    10      4     398
                                              4 COMRAM    14    10      4
 ---------------------------------------------------------------------------------
 (2) _I2C_Read2ByteRegister                                8     6      2   95329
                                             21 COMRAM     8     6      2
                          _I2C_Close
                    _I2C_MasterWrite
                           _I2C_Open
         _I2C_SetAddressNackCallback
                      _I2C_SetBuffer
        _I2C_SetDataCompleteCallback
 ---------------------------------------------------------------------------------
 (3) _I2C_SetAddressNackCallback                           4     0      4    1870
                                              9 COMRAM     4     0      4
                    _I2C_SetCallback
 ---------------------------------------------------------------------------------
 (3) _I2C_Open                                             2     2      0      46
                                              4 COMRAM     2     2      0
                 _I2C_MasterClearIrq
                     _I2C_MasterOpen
 ---------------------------------------------------------------------------------
 (4) _I2C_MasterOpen                                       0     0      0       0
 ---------------------------------------------------------------------------------
 (3) _I2C_MasterWrite                                      0     0      0   88620
                _I2C_MasterOperation
 ---------------------------------------------------------------------------------
 (4) _I2C_MasterOperation                                  2     2      0   88620
                                             19 COMRAM     2     2      0
                    _I2C_MasterStart
                         _I2C_Poller
 ---------------------------------------------------------------------------------
 (5) _I2C_Poller                                           0     0      0   88574
                      _I2C_MasterFsm
             _I2C_MasterWaitForEvent
 ---------------------------------------------------------------------------------
 (6) _I2C_MasterWaitForEvent                               0     0      0       0
 ---------------------------------------------------------------------------------
 (6) _I2C_MasterFsm                                        2     2      0   88574
                                             17 COMRAM     2     2      0
                _I2C_DO_ADDRESS_NACK *
                        _I2C_DO_IDLE *
                        _I2C_DO_RCEN *
                       _I2C_DO_RESET *
                          _I2C_DO_RX *
                      _I2C_DO_RX_ACK *
             _I2C_DO_RX_NACK_RESTART *
                _I2C_DO_RX_NACK_STOP *
               _I2C_DO_SEND_ADR_READ *
              _I2C_DO_SEND_ADR_WRITE *
                _I2C_DO_SEND_RESTART *
           _I2C_DO_SEND_RESTART_READ *
          _I2C_DO_SEND_RESTART_WRITE *
                   _I2C_DO_SEND_STOP *
                          _I2C_DO_TX *
                    _I2C_DO_TX_EMPTY *
                 _I2C_MasterClearIrq
                   _I2C_MasterIsNack
 ---------------------------------------------------------------------------------
 (7) _I2C_DO_TX_EMPTY                                      2     2      0   22127
                                             15 COMRAM     2     2      0
                   Absolute function *
            _I2C_CallbackReturnReset *
             _I2C_CallbackReturnStop *
                _I2C_DO_SEND_RESTART
                   _I2C_DO_SEND_STOP
                   _I2C_MasterSetIrq
              _rd1RegCompleteHandler *
              _rd2RegCompleteHandler *
            _rdBlkRegCompleteHandler *
              _wr1RegCompleteHandler *
              _wr2RegCompleteHandler *
 ---------------------------------------------------------------------------------
 (8) _I2C_MasterSetIrq                                     0     0      0       0
 ---------------------------------------------------------------------------------
 (7) _I2C_DO_TX                                            2     2      0   22149
                                             15 COMRAM     2     2      0
                   Absolute function *
            _I2C_CallbackReturnReset *
             _I2C_CallbackReturnStop *
           _I2C_DO_SEND_RESTART_READ
          _I2C_DO_SEND_RESTART_WRITE
                   _I2C_DO_SEND_STOP
                   _I2C_MasterIsNack
               _I2C_MasterSendTxData
              _rd1RegCompleteHandler *
              _rd2RegCompleteHandler *
            _rdBlkRegCompleteHandler *
              _wr1RegCompleteHandler *
              _wr2RegCompleteHandler *
 ---------------------------------------------------------------------------------
 (7) _I2C_MasterIsNack                                     0     0      0       0
 ---------------------------------------------------------------------------------
 (8) _I2C_DO_SEND_RESTART_WRITE                            0     0      0       0
            _I2C_MasterEnableRestart
 ---------------------------------------------------------------------------------
 (8) _I2C_DO_SEND_RESTART_READ                             0     0      0       0
            _I2C_MasterEnableRestart
 ---------------------------------------------------------------------------------
 (7) _I2C_DO_SEND_ADR_WRITE                                0     0      0      22
               _I2C_MasterSendTxData
 ---------------------------------------------------------------------------------
 (7) _I2C_DO_SEND_ADR_READ                                 0     0      0      22
               _I2C_MasterSendTxData
 ---------------------------------------------------------------------------------
 (8) _I2C_MasterSendTxData                                 1     1      0      22
                                              4 COMRAM     1     1      0
 ---------------------------------------------------------------------------------
 (7) _I2C_DO_RX_ACK                                        0     0      0       0
                  _I2C_MasterSendAck
 ---------------------------------------------------------------------------------
 (7) _I2C_DO_RX                                            2     2      0   22127
                                             15 COMRAM     2     2      0
                   Absolute function *
            _I2C_CallbackReturnReset *
             _I2C_CallbackReturnStop *
             _I2C_DO_RX_NACK_RESTART
                _I2C_DO_RX_NACK_STOP
                _I2C_MasterGetRxData
                  _I2C_MasterSendAck
              _rd1RegCompleteHandler *
              _rd2RegCompleteHandler *
            _rdBlkRegCompleteHandler *
              _wr1RegCompleteHandler *
              _wr2RegCompleteHandler *
 ---------------------------------------------------------------------------------
 (8) _I2C_MasterSendAck                                    0     0      0       0
 ---------------------------------------------------------------------------------
 (8) _I2C_MasterGetRxData                                  0     0      0       0
 ---------------------------------------------------------------------------------
 (7) _I2C_DO_RX_NACK_STOP                                  0     0      0       0
                 _I2C_MasterSendNack
 ---------------------------------------------------------------------------------
 (7) _I2C_DO_RX_NACK_RESTART                               0     0      0       0
                 _I2C_MasterSendNack
 ---------------------------------------------------------------------------------
 (8) _I2C_MasterSendNack                                   0     0      0       0
 ---------------------------------------------------------------------------------
 (7) _I2C_DO_RESET                                         0     0      0       0
 ---------------------------------------------------------------------------------
 (7) _I2C_DO_RCEN                                          0     0      0       0
                  _I2C_MasterStartRx
 ---------------------------------------------------------------------------------
 (8) _I2C_MasterStartRx                                    0     0      0       0
 ---------------------------------------------------------------------------------
 (7) _I2C_DO_IDLE                                          0     0      0       0
 ---------------------------------------------------------------------------------
 (7) _I2C_DO_ADDRESS_NACK                                  2     2      0   22127
                                             15 COMRAM     2     2      0
                   Absolute function *
            _I2C_CallbackReturnReset *
             _I2C_CallbackReturnStop *
                _I2C_DO_SEND_RESTART
                   _I2C_DO_SEND_STOP
              _rd1RegCompleteHandler *
              _rd2RegCompleteHandler *
            _rdBlkRegCompleteHandler *
              _wr1RegCompleteHandler *
              _wr2RegCompleteHandler *
 ---------------------------------------------------------------------------------
 (8) _wr2RegCompleteHandler                                2     0      2    4368
                                             13 COMRAM     2     0      2
                      _I2C_SetBuffer
        _I2C_SetDataCompleteCallback
 ---------------------------------------------------------------------------------
 (8) _wr1RegCompleteHandler                                2     0      2    4368
                                             13 COMRAM     2     0      2
                      _I2C_SetBuffer
        _I2C_SetDataCompleteCallback
 ---------------------------------------------------------------------------------
 (8) _rdBlkRegCompleteHandler                              2     0      2    4390
                                             13 COMRAM     2     0      2
                      _I2C_SetBuffer
        _I2C_SetDataCompleteCallback
 ---------------------------------------------------------------------------------
 (8) _rd2RegCompleteHandler                                2     0      2    4368
                                             13 COMRAM     2     0      2
                      _I2C_SetBuffer
        _I2C_SetDataCompleteCallback
 ---------------------------------------------------------------------------------
 (8) _rd1RegCompleteHandler                                2     0      2    4368
                                             13 COMRAM     2     0      2
                      _I2C_SetBuffer
        _I2C_SetDataCompleteCallback
 ---------------------------------------------------------------------------------
 (3) _I2C_SetDataCompleteCallback                          4     0      4    2478
                                              9 COMRAM     4     0      4
                    _I2C_SetCallback
 ---------------------------------------------------------------------------------
 (4) _I2C_SetCallback                                      5     1      4     914
                                              4 COMRAM     5     1      4
 ---------------------------------------------------------------------------------
 (3) _I2C_SetBuffer                                        4     0      4    1868
                                              4 COMRAM     4     0      4
 ---------------------------------------------------------------------------------
 (8) _I2C_DO_SEND_STOP                                     0     0      0       0
                     _I2C_MasterStop
 ---------------------------------------------------------------------------------
 (9) _I2C_MasterStop                                       0     0      0       0
 ---------------------------------------------------------------------------------
 (8) _I2C_DO_SEND_RESTART                                  0     0      0       0
            _I2C_MasterEnableRestart
 ---------------------------------------------------------------------------------
 (9) _I2C_MasterEnableRestart                              0     0      0       0
 ---------------------------------------------------------------------------------
 (8) _I2C_CallbackReturnStop                               2     0      2       0
                                             13 COMRAM     2     0      2
 ---------------------------------------------------------------------------------
 (8) _I2C_CallbackReturnReset                              2     0      2     265
                                             13 COMRAM     2     0      2
 ---------------------------------------------------------------------------------
 (13) Absolute function(Fake)                              2     0      2       0
 ---------------------------------------------------------------------------------
 (5) _I2C_MasterStart                                      0     0      0       0
 ---------------------------------------------------------------------------------
 (3) _I2C_Close                                            1     1      0      24
                                              4 COMRAM     1     1      0
                 _I2C_MasterClearIrq
                    _I2C_MasterClose
               _I2C_MasterDisableIrq
 ---------------------------------------------------------------------------------
 (4) _I2C_MasterDisableIrq                                 0     0      0       0
 ---------------------------------------------------------------------------------
 (4) _I2C_MasterClose                                      0     0      0       0
 ---------------------------------------------------------------------------------
 (4) _I2C_MasterClearIrq                                   0     0      0       0
 ---------------------------------------------------------------------------------
 (1) _SYSTEM_Initialize                                    0     0      0     490
                  _EUSART_Initialize
                     _I2C_Initialize
               _INTERRUPT_Initialize
              _OSCILLATOR_Initialize
             _PIN_MANAGER_Initialize
 ---------------------------------------------------------------------------------
 (2) _PIN_MANAGER_Initialize                               0     0      0       0
 ---------------------------------------------------------------------------------
 (2) _OSCILLATOR_Initialize                                0     0      0       0
 ---------------------------------------------------------------------------------
 (2) _INTERRUPT_Initialize                                 0     0      0       0
 ---------------------------------------------------------------------------------
 (2) _I2C_Initialize                                       0     0      0       0
 ---------------------------------------------------------------------------------
 (2) _EUSART_Initialize                                    0     0      0     490
             _EUSART_SetErrorHandler
      _EUSART_SetFramingErrorHandler
      _EUSART_SetOverrunErrorHandler
       _EUSART_SetRxInterruptHandler
       _EUSART_SetTxInterruptHandler
 ---------------------------------------------------------------------------------
 (3) _EUSART_SetTxInterruptHandler                         2     0      2      98
                                              4 COMRAM     2     0      2
 ---------------------------------------------------------------------------------
 (3) _EUSART_SetRxInterruptHandler                         2     0      2      98
                                              4 COMRAM     2     0      2
 ---------------------------------------------------------------------------------
 (3) _EUSART_SetOverrunErrorHandler                        2     0      2      98
                                              4 COMRAM     2     0      2
 ---------------------------------------------------------------------------------
 (3) _EUSART_SetFramingErrorHandler                        2     0      2      98
                                              4 COMRAM     2     0      2
 ---------------------------------------------------------------------------------
 (3) _EUSART_SetErrorHandler                               2     0      2      98
                                              4 COMRAM     2     0      2
 ---------------------------------------------------------------------------------
 Estimated maximum stack depth 13
 ---------------------------------------------------------------------------------
 (Depth) Function   	        Calls       Base Space   Used Autos Params    Refs
 ---------------------------------------------------------------------------------
 (11) _INTERRUPT_InterruptManager                          4     4      0       0
                                              0 COMRAM     4     4      0
                   Absolute function *
                 _EUSART_Receive_ISR *
                _EUSART_Transmit_ISR *
 ---------------------------------------------------------------------------------
 (12) _EUSART_Transmit_ISR                                 0     0      0       0
 ---------------------------------------------------------------------------------
 (12) _EUSART_Receive_ISR                                  0     0      0       0
                   Absolute function *
         _EUSART_DefaultErrorHandler *
  _EUSART_DefaultFramingErrorHandler *
  _EUSART_DefaultOverrunErrorHandler *
               _EUSART_RxDataHandler
 ---------------------------------------------------------------------------------
 (13) _EUSART_DefaultOverrunErrorHandler                   0     0      0       0
 ---------------------------------------------------------------------------------
 (13) _EUSART_DefaultFramingErrorHandler                   0     0      0       0
 ---------------------------------------------------------------------------------
 (13) _EUSART_DefaultErrorHandler                          0     0      0       0
               _EUSART_RxDataHandler
 ---------------------------------------------------------------------------------
 (13) _EUSART_RxDataHandler                                0     0      0       0
 ---------------------------------------------------------------------------------
 (13) Absolute function(Fake)                              2     0      2       0
 ---------------------------------------------------------------------------------
 Estimated maximum stack depth 13
 ---------------------------------------------------------------------------------

 Call Graph Graphs:

 _main (ROOT)
   _SYSTEM_Initialize
     _EUSART_Initialize
       _EUSART_SetErrorHandler
       _EUSART_SetFramingErrorHandler
       _EUSART_SetOverrunErrorHandler
       _EUSART_SetRxInterruptHandler
       _EUSART_SetTxInterruptHandler
     _I2C_Initialize
     _INTERRUPT_Initialize
     _OSCILLATOR_Initialize
     _PIN_MANAGER_Initialize
   _VEML6030_GetValue
     _I2C_Read2ByteRegister
       _I2C_Close
         _I2C_MasterClearIrq
         _I2C_MasterClose
         _I2C_MasterDisableIrq
       _I2C_MasterWrite
         _I2C_MasterOperation
           _I2C_MasterStart
           _I2C_Poller
             _I2C_MasterFsm
               _I2C_DO_ADDRESS_NACK *
                 Absolute function(Fake) *
                 _I2C_CallbackReturnReset *
                 _I2C_CallbackReturnStop *
                 _I2C_DO_SEND_RESTART *
                   _I2C_MasterEnableRestart
                 _I2C_DO_SEND_STOP *
                   _I2C_MasterStop
                 _rd1RegCompleteHandler *
                   _I2C_SetBuffer
                   _I2C_SetDataCompleteCallback
                     _I2C_SetCallback
                 _rd2RegCompleteHandler *
                   _I2C_SetBuffer
                   _I2C_SetDataCompleteCallback
                 _rdBlkRegCompleteHandler *
                   _I2C_SetBuffer
                   _I2C_SetDataCompleteCallback
                 _wr1RegCompleteHandler *
                   _I2C_SetBuffer
                   _I2C_SetDataCompleteCallback
                 _wr2RegCompleteHandler *
                   _I2C_SetBuffer
                   _I2C_SetDataCompleteCallback
               _I2C_DO_IDLE *
               _I2C_DO_RCEN *
                 _I2C_MasterStartRx
               _I2C_DO_RESET *
               _I2C_DO_RX *
                 Absolute function(Fake) *
                 _I2C_CallbackReturnReset *
                 _I2C_CallbackReturnStop *
                 _I2C_DO_RX_NACK_RESTART *
                   _I2C_MasterSendNack
                 _I2C_DO_RX_NACK_STOP *
                   _I2C_MasterSendNack
                 _I2C_MasterGetRxData *
                 _I2C_MasterSendAck *
                 _rd1RegCompleteHandler *
                 _rd2RegCompleteHandler *
                 _rdBlkRegCompleteHandler *
                 _wr1RegCompleteHandler *
                 _wr2RegCompleteHandler *
               _I2C_DO_RX_ACK *
                 _I2C_MasterSendAck
               _I2C_DO_RX_NACK_RESTART *
               _I2C_DO_RX_NACK_STOP *
               _I2C_DO_SEND_ADR_READ *
                 _I2C_MasterSendTxData
               _I2C_DO_SEND_ADR_WRITE *
                 _I2C_MasterSendTxData
               _I2C_DO_SEND_RESTART *
               _I2C_DO_SEND_RESTART_READ *
                 _I2C_MasterEnableRestart
               _I2C_DO_SEND_RESTART_WRITE *
                 _I2C_MasterEnableRestart
               _I2C_DO_SEND_STOP *
               _I2C_DO_TX *
                 Absolute function(Fake) *
                 _I2C_CallbackReturnReset *
                 _I2C_CallbackReturnStop *
                 _I2C_DO_SEND_RESTART_READ *
                 _I2C_DO_SEND_RESTART_WRITE *
                 _I2C_DO_SEND_STOP *
                 _I2C_MasterIsNack *
                 _I2C_MasterSendTxData *
                 _rd1RegCompleteHandler *
                 _rd2RegCompleteHandler *
                 _rdBlkRegCompleteHandler *
                 _wr1RegCompleteHandler *
                 _wr2RegCompleteHandler *
               _I2C_DO_TX_EMPTY *
                 Absolute function(Fake) *
                 _I2C_CallbackReturnReset *
                 _I2C_CallbackReturnStop *
                 _I2C_DO_SEND_RESTART *
                 _I2C_DO_SEND_STOP *
                 _I2C_MasterSetIrq *
                 _rd1RegCompleteHandler *
                 _rd2RegCompleteHandler *
                 _rdBlkRegCompleteHandler *
                 _wr1RegCompleteHandler *
                 _wr2RegCompleteHandler *
               _I2C_MasterClearIrq *
               _I2C_MasterIsNack *
             _I2C_MasterWaitForEvent
       _I2C_Open
         _I2C_MasterClearIrq
         _I2C_MasterOpen
       _I2C_SetAddressNackCallback
         _I2C_SetCallback
       _I2C_SetBuffer
       _I2C_SetDataCompleteCallback
     ___xxtofl
   _VEML6030_Init
     _I2C_Read2ByteRegister
     _I2C_Write1ByteRegister
       _I2C_Close
       _I2C_MasterWrite
       _I2C_Open
       _I2C_SetAddressNackCallback
       _I2C_SetBuffer
       _I2C_SetDataCompleteCallback
     _I2C_Write2ByteRegister
       _I2C_Close
       _I2C_MasterWrite
       _I2C_Open
       _I2C_SetAddressNackCallback
       _I2C_SetBuffer
       _I2C_SetDataCompleteCallback
   _printf
     _vfprintf
       _vfpfcnvrt
         _efgtoa
           ___awdiv
           ___awmod
           ___fladd
           ___fldiv
           ___fleq
           ___flge
             ___flmul (ARG)
           ___flmul
           ___flneg
           ___flsub
             ___fladd
             ___flmul (ARG)
           ___fltol
           ___fpclassifyf
           _floorf
             ___fldiv (ARG)
           _isupper
           _pad
             _fputc
               _putch
                 _EUSART_Write
             _fputs
               _fputc
             _strlen
           _strcpy
           _tolower
             _isupper
         _fputc
         _isupper
         _strncmp
         _tolower

 _INTERRUPT_InterruptManager (ROOT)
   Absolute function(Fake) *
   _EUSART_Receive_ISR *
     Absolute function(Fake) *
     _EUSART_DefaultErrorHandler *
       _EUSART_RxDataHandler
     _EUSART_DefaultFramingErrorHandler *
     _EUSART_DefaultOverrunErrorHandler *
     _EUSART_RxDataHandler *
   _EUSART_Transmit_ISR *

 Address spaces:
Name               Size   Autos  Total    Cost      Usage
BIGRAM             F5F      0       0      37        0.0%
EEDATA             400      0       0       0        0.0%
BITBANK14          100      0       0      33        0.0%
BANK14             100      0       0      34        0.0%
BITBANK13          100      0       0      30        0.0%
BANK13             100      0       0      31        0.0%
BITBANK12          100      0       0      28        0.0%
BANK12             100      0       0      29        0.0%
BITBANK11          100      0       0      26        0.0%
BANK11             100      0       0      27        0.0%
BITBANK10          100      0       0      24        0.0%
BANK10             100      0       0      25        0.0%
BITBANK9           100      0       0      22        0.0%
BANK9              100      0       0      23        0.0%
BITBANK8           100      0       0      20        0.0%
BANK8              100      0       0      21        0.0%
BITBANK7           100      0       0      18        0.0%
BANK7              100      0       0      19        0.0%
BITBANK6           100      0       0      16        0.0%
BANK6              100      0       0      17        0.0%
BITBANK5           100      0       0      14        0.0%
BANK5              100      0       0      15        0.0%
BITBANK4           100      0       0      12        0.0%
BANK4              100      0       0      13        0.0%
BITBANK3           100      0       0      10        0.0%
BANK3              100      0       0      11        0.0%
BITBANK2           100      0       0       8        0.0%
BANK2              100      0       0       9        0.0%
BITBANK1           100      0       0       6        0.0%
BANK1              100      6      5A       7       35.2%
BITBANK0            A0      0       0       4        0.0%
BANK0               A0     40      9D       5       98.1%
BITBANK15           60      0       0      35        0.0%
BANK15              60      0       0      36        0.0%
BITCOMRAM           5E      0       0       0        0.0%
COMRAM              5E     55      5A       1       95.7%
BITSFR               0      0       0     200        0.0%
SFR                  0      0       0     200        0.0%
STACK                0      0       0       2        0.0%
NULL                 0      0       0       0        0.0%
ABS                  0      0     151      32        0.0%
DATA                 0      0     151       3        0.0%
CODE                 0      0       0       0        0.0%


Microchip Technology PIC18 Macro Assembler V2.32 build 20210201212658 
Symbol Table                                                                                   Wed Sep 15 13:53:14 2021

                ?_EUSART_SetRxInterruptHandler 0005                         ??_I2C_DO_SEND_ADR_READ 0005  
                  __size_of_I2C_MasterSendNack 0006                             __size_of_I2C_Close 002C  
                                 ___fldiv@aexp 001D                                   ___fldiv@bexp 001C  
              __size_of_I2C_Write2ByteRegister 006E                                   ___fldiv@sign 0015  
                      ??_I2C_DO_SEND_ADR_WRITE 0006                                    _SSPSTATbits 000FC7  
                                           l42 3B4E                                             l51 3E06  
                                           l60 3D98                                             l90 439A  
                                           l93 436E                                             l96 4342  
                                           l99 43C6                                   ___awdiv@sign 000A  
                          __size_of_I2C_Poller 001E                          ??_I2C_DO_SEND_RESTART 0005  
                 __size_of_I2C_MasterOperation 0044                                            l102 41DE  
                                          l213 3AC8                                            l223 415C  
                                          l312 3BCA                                            l209 4516  
                                          l217 43F2                  __size_of_I2C_MasterSendTxData 0008  
                                          l402 4628                                            l306 455E  
                                          l330 45F0                                            l411 4604  
                                          l236 4468                                            l405 4502  
                                          l333 45E8                                            l229 45B8  
                                          l245 44C0                                            l342 45D0  
                                          l262 44A8                                            l239 44D8  
                                          l351 4552                                            l256 3C44  
                                          l408 45FE                                            l432 4614  
                                          l272 4546                                            l336 45E0  
                                          l281 36E6                                            l345 45C8  
                                          l426 4634                                            l266 3D2A  
                                          l275 4536                                            l339 45D8  
                                          l435 4518                                            l348 45C0  
                                          l604 4574                                            l429 463C  
                                          l381 4638                                            l365 4624  
                                          l269 456A                                            l357 3E6C  
                                          l390 462C                                            l278 36AE  
                                          l294 3936                                            l295 39A4  
                                          l439 4526                                            l456 44EE  
                                          l368 4620                                            l384 4618  
                                          l633 45A6                                            l642 4588  
                                          l570 3CBA                                            l378 448A  
                                          l706 42BA                                            l459 457E  
                                          l387 45F8                                            l636 459C  
                                          l660 4640                                            l492 42EA  
                                          l396 461C                                            l645 4592  
                                          l709 40D4                                            l639 45B0  
                                          l399 4630                                            l594 4006  
                                          l595 401C                                            l598 4048  
                                          l962 3854                                            l949 3622  
                                          l983 3278                                            l992 424E  
                                          l977 38FE                                            l988 32BE  
                       ??_EUSART_RxDataHandler 0001                                            _pad 349A  
                       fp__I2C_DO_RX_NACK_STOP 0000                         _I2C_MasterWaitForEvent 4518  
               ?_EUSART_SetFramingErrorHandler 0005                                   ___awmod@sign 000A  
                                          prod 000FF3                                            tosl 000FFD  
                                          wreg 000FE8                                   ___flmul@aexp 0012  
                                 ___flmul@bexp 0017                     I2C_Write2ByteRegister@data 0017  
                 ??_I2C_SetAddressNackCallback 000E                                   ___flmul@sign 0011  
                                 ___flmul@temp 001C                                   ___flmul@prod 0018  
                       _I2C_Write1ByteRegister 3D9A                       ??_I2C_CallbackReturnStop 0010  
                                 _I2C_DO_RESET 4548                                   ___fltol@exp1 000E  
                                         l1015 31BA                                           l1300 2972  
                      ??_rd2RegCompleteHandler 0010                                           l1302 27D2  
                                         l1311 2818                                           l1313 2890  
                                         l1305 2796                                           l1314 287E  
                                         l1332 2274                                           l1341 24E2  
                                         l1342 24D0                                           l1246 1EDE  
                                         l1502 18A4                                           l1263 1FF8  
                                         l1255 21AE                                           l1247 1ECC  
                                         l1336 25D8                                           l1272 20C8  
                                         l1248 1E92                                           l1273 20B6  
                                         l1433 34E0                                           l4002 4548  
                                         l4010 3E08                                           l1602 4118  
                                         l1339 246A                                           l4004 454C  
                                         l4012 3E0C                                           l1380 2FF0  
                                         l1436 3522                                           l1373 2F58  
                                         l1349 259A                                           l4006 4550  
                                         l4014 3E14                                           l1614 4284  
                                         l1438 355E                                           l1551 3EC8  
                                         l4024 3E24                                           l1376 30B4  
                                         l1288 408E                                           l1608 3FF0  
                                         l1456 1CEE                                           l1552 3ED0  
                                         l1633 3F92                                           l1545 2C0C  
                                         l4018 3E1C                                           l4050 3CD0  
                                         l1562 33BC                                           l1474 1464  
                                         l1618 3498                                           l1538 2CEE  
                                         l1387 304C                                           l4052 3CE4  
                                         l1572 2E44                                           l1628 3F8A  
                                         l1396 4444                                           l4054 3CEA  
                                         l4046 3CBC                                           l4048 3CC0  
                                         l5200 3A6A                                           l6000 2098  
                                         l1569 2F00                                           l5210 3A92  
                                         l5202 3A72                                           l6010 20F2  
                                         l6002 20AE                                           l1594 3A3A  
                                         l1579 4216                                           l5220 3ABA  
                                         l5212 3A9A                                           l5204 3A7A  
                                         l6100 26BC                                           l6020 216E  
                                         l6012 212C                                           l5222 3ABE  
                                         l5214 3AA2                                           l5206 3A82  
                                         l5230 44AA                                           l6102 26CC  
                                         l6110 26EC                                           l6030 218E  
                                         l6022 2172                                           l6006 20D8  
                                         l6014 212E                                           l5400 42DE  
                                         l5240 43DC                                           l4280 462E  
                                         l3800 43C4                                           l5232 45B2  
                                         l5224 3AC2                                           l5216 3AAA  
                                         l5208 3A8A                                           l6120 272A  
                                         l6112 26FC                                           l6104 26D4  
                                         l6200 21BC                                           l6032 219C  
                                         l6024 2180                                           l6016 213E  
                                         l6008 20E4                                           l6040 40E2  
                                         l5250 458A                                           l5410 3C54  
                                         l5402 42E8                                           l5242 43E0  
                                         l4282 448C                                           l5218 3AB2  
                                         l5226 3AC6                                           l6130 2772  
                                         l6122 273A                                           l6114 26FC  
                                         l6106 26D8                                           l6210 21FC  
                                         l6202 21CA                                           l6034 219E  
                                         l6026 2186                                           l6018 214E  
                                         l6042 40F4                                           l6050 4260  
                                         l7010 3EDE                                           l7002 3ED2  
                                         l5252 4580                                           l5420 3C72  
                                         l5412 3C62                                           l5404 4576  
                                         l5244 43EC                                           l5236 43C8  
                                         l3740 4446                                           l3732 3BCE  
                                         l3804 41A0                                           l3812 44F0  
                                         l7100 3688                                           l3900 3624  
                                         l3820 45EE                                           l4284 4490  
                                         l5340 3ACC                                           l6140 27C0  
                                         l6132 2786                                           l6124 274A  
                                         l6060 25DA                                           l6300 24FE  
                                         l6220 222C                                           l6212 2202  
                                         l6204 21CC                                           l6028 2188  
                                         l6044 40F8                                           l6052 4278  
                                         l7012 3EF2                                           l7004 3ED6  
                                         l5254 459E                                           l5422 3C76  
                                         l5414 3C66                                           l5406 3C46  
                                         l5246 43F0                                           l5238 43CC  
                                         l3750 4626                                           l3742 4456  
                                         l3734 3BE0                                           l3806 41C8  
                                         l7102 3BA4                                           l3830 45D2  
                                         l4286 4494                                           l5190 3A58  
                                         l5182 3A3E                                           l5350 3B26  
                                         l5342 3AD4                                           l6150 2808  
                                         l6142 27D0                                           l6134 2794  
                                         l6126 275A                                           l6118 2710  
                                         l6070 2616                                           l6062 25E6  
                                         l6310 2568                                           l6302 250C  
                                         l6230 2264                                           l6222 222E  
                                         l6214 2212                                           l6206 21DC  
                                         l6038 40D6                                           l6046 4250  
                                         l7014 3F10                                           l7006 3EDA  
                                         ?_pad 0017                                           l5256 4594  
                                         l5424 3C82                                           l5416 3C6A  
                                         l5408 3C48                                           l3744 445E  
                                         l3736 3C14                                           l3808 41DC  
                                         l3752 4600                                           l3840 45FA  
                                         l3816 45F4                                           l3920 36B2  
                                         l3912 364C                                           l3904 363C  
                                         l3824 45E2                                           l3832 45D6  
                                         l4288 4498                                           l5192 3A5A  
                                         l5184 3A42                                           l5352 3B2A  
                                         l5344 3AEA                                           l5440 2F68  
                                         l5360 3D9C                                           l6400 3820  
                                         l6160 2848                                           l6152 2816  
                                         l6144 27E2                                           l6136 27A0  
                                         l6128 2762                                           l6080 2646  
                                         l6072 2626                                           l6064 25F4  
                                         l6320 25BE                                           l6312 2582  
                                         l6304 2536                                           l6240 22B4  
                                         l6232 2284                                           l6224 223E  
                                         l6216 2218                                           l6208 21EC  
                                         l6048 425C                                           l6056 41E0  
                                         l7008 3EDC                                           l5258 45A8  
                                         l5426 3C8E                                           l5418 3C6E  
                                         l3746 4466                                           l3738 44C2  
                                         l3922 36C4                                           l3818 45EA  
                                         l3826 45E6                                           l3850 45C6  
                                         l3842 45BA                                           l5194 3A5C  
                                         l5186 3A52                                           l5354 3B3E  
                                         l5346 3AFE                                           l5450 2FA6  
                                         l5442 2F7E                                           l5434 2F04  
                                         l5370 3DF2                                           l5362 3DB2  
                                         l6410 384C                                           l6402 3828  
                                         l6170 28BA                                           l6162 2876  
                                         l6146 27F8                                           l6154 2828  
                                         l6138 27BE                                           l6090 267C  
                                         l6082 264C                                           l6074 2628  
                                         l6066 25F6                                           l6314 259E  
                                         l6322 25C4                                           l6306 253A  
                                         l6250 2304                                           l6242 22BE  
                                         l6234 2294                                           l6226 224E  
                                         l6218 221E                                           l6330 405A  
                                         l5428 3CB8                                           l3748 462A  
                                         l3772 4370                                           l3780 4344  
                                         l3836 4616                                           l3924 36DE  
                                         l3908 3644                                           l3940 392C  
                                         l3844 45BE                                           l4820 446A  
                                         l5196 3A60                                           l5188 3A56  
                                         l5348 3B12                                           l5460 302E  
                                         l5452 2FD8                                           l5436 2F14  
                                         l5364 3DC6                                           l5380 3D6C  
                                         l5372 3D2E                                           l6340 357A  
                                         l6404 382E                                           l6180 2932  
                                         l6172 28E4                                           l6156 2836  
                                         l6148 27FE                                           l6092 268C  
                                         l6084 265A                                           l6068 2606  
                                         l6076 2630                                           l6420 38C2  
                                         l6324 25C8                                           l6316 25AE  
                                         l6308 2554                                           l6260 2346  
                                         l6252 2310                                           l6244 22D4  
                                         l6228 225E                                           l6500 31AA  
                                         l5390 463E                                           l4830 4636  
                                         l3774 4384                                           l3782 4358  
                                         l3790 432C                                           l3854 461A  
                                         l3862 4612                                           l3926 36E4  
                                         l3918 3654                                           l3942 3930  
                                         l3934 3900                                           l4822 4478  
                                         l5198 3A68                                           l5470 3084  
                                         l5462 303C                                           l5454 2FDA  
                                         l5446 2F92                                           l5438 2F22  
                                         l5366 3DDA                                           l5358 3D9C  
                                         l5382 3D80                                           l5374 3D2E  
                                         l6350 35A0                                           l6342 357E  
                                         l6334 3560                                           l6406 3834  
                                         l6190 2968                                           l6182 294E  
                                         l6166 28A0                                           l6174 28E8  
                                         l6158 283A                                           l6094 268E  
                                         l6086 265C                                           l6078 2640  
                                         l6422 38D2                                           l6414 3856  
                                         l6430 31BC                                           l6318 25BC  
                                         l6270 23A8                                           l6262 2356  
                                         l6254 231E                                           l6246 22E0  
                                         l6238 22A8                                           l6510 34CC  
                                         l5392 42BC                                           l3776 4398  
                                         l3784 436C                                           l3792 4340  
                                         l3864 4622                                           l3880 4568  
                                         l3952 3944                                           l3936 390E  
                                         l3856 45DA                                           l3848 45C2  
                                         l4840 4136                                           l4832 411C  
                                         l4824 4488                                           l5472 3094  
                                         l5464 305A                                           l5456 2FE6  
                                         l5448 2F9A                                           l5560 40A2  
                                         l5368 3DEE                                           l5384 3D84  
                                         l5376 3D44                                           l5552 4286  
                                         l6360 35D6                                           l6352 35B2  
                                         l6344 358C                                           l6336 3564  
                                         l6408 3844                                           l6184 2952  
                                         l6176 2902                                           l6168 28AC  
                                         l6088 266C                                           l6096 2696  
                                         l6424 38F6                                           l6416 3884  
                                         l6440 3246                                           l6432 31EA  
                                         l6280 2450                                           l6272 23C4  
                                         l6264 2370                                           l6256 232A  
                                         l6248 22F8                                           l6328 404A  
                                         l6520 3532                                           l6512 34D8  
                                         l6504 349A                                           l6600 109E  
                                         l5386 4504                                           l5394 42D4  
                                         l5490 44DE                                           l3874 463A  
                                         l3938 3914                                           l3858 45DE  
                                         l4842 4146                                           l4850 415A  
                                         l4834 4120                                           l5474 30A2  
                                         l5466 305C                                           l5458 3022  
                                         l5562 40C4                                           l5378 3D58  
                                         l5554 42A6                                           l6362 35EC  
                                         l6354 35BA                                           l6370 3602  
                                         l6346 3594                                           l6338 3572  
                                         l6186 2960                                           l6178 2918  
                                         l6098 26A6                                           l6426 38FC  
                                         l6418 3894                                           l6442 3258  
                                         l6434 31FA                                           l6290 248C  
                                         l6282 245A                                           l6274 23EE  
                                         l6266 2380                                           l6258 233A  
                                         l6530 331E                                           l5810 402E  
                                         l5802 3FF4                                           l6522 3546  
                                         l6514 34EC                                           l6506 34AA  
                                         l6610 10E2                                           l6602 10A8  
                                         l5388 4514                                           l5396 42D6  
                                         l5492 44E2                                           l4828 4632  
                                         l3796 439C                                           l3788 4318  
                                         l3868 461E                                           l3980 3B64  
                                         l3972 3B50                                           l3876 4560  
                                         l3884 4538                                           l3892 4528  
                                         l3948 393C                                           l3964 4554  
                                         l4844 414E                                           l4836 4130  
                                         l5476 30A4                                           l5468 3060  
                                         l5556 42A8                                           l6372 3612  
                                         l6364 35F4                                           l6356 35C2  
                                         l6348 3598                                           l6380 37AA  
                                         l6188 2966                                           l6444 3266  
                                         l6436 3228                                           l6292 249A  
                                         l6284 2468                                           l6276 2424  
                                         l6268 239C                                           l6452 4218  
                                         l5900 1E14                                           l6460 30B6  
                                         l6540 3370                                           l6532 3346  
                                         l5812 4030                                           l5804 3FF4  
                                         l5820 456E                                           l6516 3500  
                                         l6508 34BE                                           l6700 14E6  
                                         l6612 10EE                                           l6620 1104  
                                         l6604 10B0                                           l5398 42DC  
                                         l5494 44E6                                           l3798 43B0  
                                         l3974 3B58                                           l3990 3B72  
                                         l3878 4564                                           l3886 453C  
                                         l3894 452C                                           l3958 394C  
                                         l3966 4558                                           l4846 4152  
                                         l4838 4132                                           l5558 4090  
                                         l6374 361A                                           l6366 35F6  
                                         l6358 35D0                                           l6390 37DA  
                                         l6382 37B8                                           l6446 32B6  
                                         l6438 3238                                           l6294 24C8  
                                         l6286 247A                                           l6278 2432  
                                         l6198 21B0                                           l6454 422E  
                                         l5910 1E28                                           l5902 1E18  
                                         l6470 310C                                           l6462 30CC  
                                         l6534 3352                                           l6526 32C0  
                                         l5814 4040                                           l5806 4014  
                                         l5830 39F2                                           l5822 39A6  
                                         l6518 3504                                           l6550 3FA4  
                                         l6710 151E                                           l6702 14EE  
                                         l6630 118E                                           l6622 112A  
                                         l6614 10F6                                           l6606 10C2  
                                         l5496 44EA                                           l5488 44DA  
                                         l3984 3B6A                                           l3888 4544  
                                         l3896 4534                                           l3968 455C  
                                         l7096 3E56                                           l4848 4156  
                                         l6368 35FC                                           l6392 37EC  
                                         l6384 37C0                                           l6448 32BC  
                                         l6288 2488                                           l6456 423E  
                                         l5920 1E7A                                           l5912 1E2C  
                                         l5904 1E1C                                           l5840 1D0A  
                                         l6472 311C                                           l6544 33B4  
                                         l6528 32E0                                           l5816 4044  
                                         l5808 401E                                           l5832 3A28  
                                         l5824 39B8                                           l6552 3F34  
                                         l6800 19C8                                           l6720 1568  
                                         l6712 152C                                           l6704 14F2  
                                         l6640 11FE                                           l6632 11A6  
                                         l6616 10FA                                           l6608 10D0  
                                         l3978 3B60                                           l7098 397E  
                                         l6394 37F4                                           l6386 37C4  
                                         l6378 37A6                                           l6298 24F2  
                                         l5930 1EBE                                           l5922 1E8A  
                                         l5906 1E20                                           l5914 1E30  
                                         l5850 1D3E                                           l5842 1D0C  
                                         l6482 3146                                           l6474 3120  
                                         l6466 30E0                                           l6538 335E  
                                         l6570 2D88                                           l6562 2CF0  
                                         l5818 4046                                           l5826 39CA  
                                         l6810 19FC                                           l6802 19CE  
                                         l6730 15AE                                           l6722 157A  
                                         l6714 1530                                           l6706 14FA  
                                         l6650 127A                                           l6634 11B0  
                                         l6626 1160                                           l6618 10FE  
                                         l3996 45CA                                           l6396 37FC  
                                         l6388 37D2                                           l5932 1EC0  
                                         l5924 1EA0                                           l5916 1E34  
                                         l5908 1E24                                           l5860 1D70  
                                         l5844 1D1C                                           l5852 1D46  
                                         l5836 1CF0                                           l6492 316E  
                                         l6484 3150                                           l6476 312E  
                                         l6468 310A                                           l6580 2EA4  
                                         l6564 2D10                                           l5828 39D4  
                                         l6548 3F94                                           l6556 3F6A  
                                         l6804 19D4                                           l6812 1A02  
                                         l6820 1A9A                                           l6740 16C2  
                                         l6732 1612                                           l6716 1542  
                                         l6724 1582                                           l6708 150C  
                                         l6652 1284                                           l6644 1234  
                                         l6628 1172                                           l6900 33E8  
                                         l3998 45CE                                           l6398 380A  
                                         l5950 1F48                                           l5942 1F10  
                                         l5934 1ECA                                           l5926 1EAC  
                                         l5918 1E5E                                           l5870 1DA6  
                                         l5862 1D76                                           l5854 1D56  
                                         l5846 1D2C                                           l5838 1CFC  
                                         l6494 317A                                           l6486 315A  
                                         l6582 2EB8                                           l6574 2DF8  
                                         l6566 2D66                                           l6558 3F7C  
                                         l6830 1B04                                           l6822 1AB8  
                                         l6814 1A5A                                           l6806 19E6  
                                         l6750 1780                                           l6742 16F6  
                                         l6734 166A                                           l6726 158A  
                                         l6718 1550                                           l6670 13C4  
                                         l6662 12FC                                           l6646 1246  
                                         l6638 11D8                                           l6590 104A  
                                         l6910 3438                                           l5952 1F4C  
                                         l5944 1F20                                           l5936 1EEC  
                                         l5960 1F6C                                           l5928 1EB0  
                                         l5880 1DE2                                           l5872 1DB6  
                                         l5864 1D84                                           l5856 1D5C  
                                         l5848 1D3C                                           l6496 318A  
                                         l6584 2EE0                                           l6576 2E34  
                                         l6568 2D7A                                           l6840 1B42  
                                         l6832 1B08                                           l6824 1AD4  
                                         l6816 1A8E                                           l6808 19F8  
                                         l6760 1854                                           l6752 1790  
                                         l6744 1728                                           l6736 169E  
                                         l6728 159A                                           l6680 1424  
                                         l6672 13CC                                           l6664 1330  
                                         l6648 1262                                           l6656 12AC  
                                         l6592 1054                                           l6912 344A  
                                         l6904 33F4                                           l6920 299A  
                                         l5962 1F92                                           l5970 1FE8  
                                         l5954 1F5A                                           l5946 1F2E  
                                         l5938 1EFC                                           l5890 1E00  
                                         l5882 1DF0                                           l5874 1DB8  
                                         l5866 1D86                                           l5858 1D6E  
                                         l6498 319A                                           l6586 2EF0  
                                         l6578 2E68                                           l6850 1B74  
                                         l6842 1B4A                                           l6834 1B18  
                                         l6826 1AE6                                           l6818 1A96  
                                         l6770 189C                                           l6762 1868  
                                         l6754 17C4                                           l6746 173E  
                                         l6738 16A4                                           l6682 1436  
                                         l6666 1336                                           l6674 13FE  
                                         l6658 12C6                                           l6594 1064  
                                         l6914 3474                                           l6906 3402  
                                         l6930 29F0                                           l6922 29A8  
                                         l5980 203C                                           l5972 200E  
                                         l5964 1FC6                                           l5956 1F5C  
                                         l5948 1F3C                                           l5892 1E04  
                                         l5884 1DF4                                           l5868 1D96  
                                         l5876 1DC0                                           l6852 1B7A  
                                         l6860 1BCA                                           l6844 1B58  
                                         l6836 1B2A                                           l6828 1AF4  
                                         l6780 1958                                           l6772 18C0  
                                         l6756 181A                                           l6764 186C  
                                         l6748 1770                                           l6684 143E  
                                         l6676 140E                                           l6668 1390  
                                         l6596 1072                                           l6908 341A  
                                         l6940 2A8E                                           l6932 2A22  
                                         l6924 29BA                                           l5990 2066  
                                         l5982 204A                                           l5974 201E  
                                         l5966 1FC8                                           l5958 1F66  
                                         l5894 1E08                                           l5886 1DF8  
                                         l5878 1DD0                                           l6870 1C1A  
                                         l6862 1BDC                                           l6854 1BA0  
                                         l6846 1B60                                           l6838 1B32  
                                         l6790 199E                                           l6782 1966  
                                         l6774 1924                                           l6766 187C  
                                         l6758 1820                                           l6694 1482  
                                         l6686 1458                                           l6678 1412  
                                         l6598 107A                                           l6950 2B26  
                                         l6942 2A9C                                           l6934 2A32  
                                         l6926 29BE                                           l6918 2974  
                                         l5992 2076                                           l5984 204C  
                                         l5968 1FD8                                           l5896 1E0C  
                                         l5888 1DFC                                           l6872 1C22  
                                         l6864 1BF6                                           l6856 1BBC  
                                         l6848 1B68                                           l6792 19A2  
                                         l6776 1934                                           l6784 196E  
                                         l6768 1890                                           l6696 1494  
                                         l6688 1470                                           l6960 2C1C  
                                         l6944 2ACC                                           l6936 2A64  
                                         l6928 29E0                                           l5986 205A  
                                         l5978 2032                                           l5994 2078  
                                         l5898 1E10                                           l6890 1CA8  
                                         l6882 1C72                                           l6874 1C32  
                                         l6866 1BFC                                           l6858 1BC4  
                                         l6794 19A8                                           l6786 1980  
                                         l6778 1946                                           l6698 14B0  
                                         l6970 2C90                                           l6954 2B96  
                                         l6938 2A76                                           l5988 2062  
                                         l5996 2086                                           l6892 1CAE  
                                         l6884 1C84                                           l6876 1C38  
                                         l6868 1C0E                                           l6796 19B4  
                                         l6788 198E                                           l6956 2BA8  
                                         l6964 2C48                                           l6948 2AF8  
                                         l6980 2CB6                                           l5998 208A  
                                         l6886 1C90                                           l6878 1C3E  
                                         l6894 1CCA                                           l6798 19C4  
                                         l6982 2CDC                                           l6966 2C6E  
                                         l6974 2C9C                                           l6958 2BDC  
                                         l6990 3E76                                           l6888 1C98  
                                         l6976 2CAA                                           l6968 2C7C  
                                         l6992 3E84                                           l6898 33BE  
                                         l6994 3EAA                                           l6988 3E6E  
                                         l6996 441E                                           l6998 4426  
                                         STR_1 1021                                           STR_2 1036  
                                         STR_3 103E                                           STR_6 103A  
                                         STR_7 1042                     __size_of_VEML6030_GetValue 0046  
                                         _LATA 000F89                                           _LATB 000F8A  
                                         _LATC 000F8B                                           u3008 3D14  
                                         _LATD 000F8C                                           u3009 3D26  
                                         _LATE 000F8D                                           u5030 3A52  
                                         u5031 3A4E                                           u5040 43DC  
                                         u2800 3BE0                                           u3440 44A8  
                                         u5200 3D98                                           u6000 213E  
                                         u5041 43D8                                           u2801 3BDC  
                                         u3441 44A4                                           u5201 3D94  
                                         u6001 213A                                           u2810 4456  
                                         u4410 4478                                           u5210 2F14  
                                         u6010 214E                                           u2811 4452  
                                         u4411 4474                                           u5211 2F10  
                                         u6011 214A                                           u4420 4130  
                                         u5300 30A2                                           u5220 2F22  
                                         u6100 2606                                           u6020 216E  
                                         u4421 412C                                           u5301 309E  
                                         u5221 2F1E                                           u6101 2602  
                                         u6021 216A                                           u4430 4146  
                                         u5150 3AEA                                           u5230 2F7E  
                                         u6110 2616                                           u6030 2180  
                                         u4431 4142                                           u5151 3AE6  
                                         u5231 2F7A                                           u6111 2612  
                                         u6031 217C                                           u5160 3B3E  
                                         u5240 2FD4                                           u6200 27E2  
                                         u6120 265A                                           u6040 219C  
                                         u7000 2E18                                           u5161 3B3A  
                                         u5241 2FD0                                           u6201 27DE  
                                         u6121 2656                                           u6041 2198  
                                         u2850 4500                                           u5250 301E  
                                         u5170 3DB2                                           u6210 27F8  
                                         u6130 266C                                           u7010 2E34  
                                         u6050 4118                                           u2851 44FA  
                                         u5251 301A                                           u5171 3DAE  
                                         u6211 27F4                                           u6131 2668  
                                         u7011 2E30                                           u6051 4114  
                                         u2860 3638                                           u2908 395A  
                                         u5260 303C                                           u5180 3E06  
                                         u6300 2932                                           u6220 2816  
                                         u6140 267C                                           u7020 2E88  
                                         u6060 4278                                           u7100 1158  
                                         u2861 3634                                           u2909 396C  
                                         u5261 3038                                           u5181 3E02  
                                         u6301 292E                                           u6221 2812  
                                         u6141 2678                                           u7005 2E0E  
                                         u6061 4274                                           u7101 1152  
                                         u2918 3B80                                           u5270 304C  
                                         u5190 3D44                                           u6310 2960  
                                         u6230 2836                                           u6150 26BC  
                                         u7030 2EA4                                           u6070 4210  
                                         u7110 115A                                           u2919 3B92  
                                         u5271 3048                                           u5191 3D40  
                                         u6311 295C                                           u6231 2832  
                                         u6151 26B8                                           u7031 2EA0  
                                         u6071 420A                                           u2856 4502  
                                         u2880 36DE                                           u2928 3E32  
                                         u5280 305A                                           u6240 2848  
                                         u6160 26FC                                           u6400 240E  
                                         u6320 21CA                                           u7040 2EE0  
                                         u5600 4014                                           u6080 4212  
                                         u7200 1424                                           u7120 1172  
                                         u2881 36DA                                           u2929 3E44  
                                         u5281 3056                                           u6241 2844  
                                         u6161 26F8                                           u6321 21C6  
                                         u7041 2EDC                                           u7025 2E7E  
                                         u5601 4010                                           u7201 1420  
                                         u7121 116E                                           u2890 392C  
                                         u2970 4526                                           u5290 3094  
                                         u6250 2876                                           u6170 2772  
                                         u6090 25F4                                           u6410 2468  
                                         u6330 21DC                                           u5610 4040  
                                         u7210 1436                                           u7130 11FE  
                                         u7050 1072                                           u2891 3928  
                                         u2971 4522                                           u5291 3090  
                                         u6251 2872                                           u6171 276E  
                                         u6091 25F0                                           u6411 2464  
                                         u6331 21D8                                           u5611 403C  
                                         u7211 1432                                           u7131 11FA  
                                         u7051 106E                                           u2980 3CD0  
                                         u6260 288C                                           u6180 2794  
                                         u6500 25BC                                           u6420 2488  
                                         u6340 21EC                                           u5700 1D84  
                                         u5620 39B8                                           u7300 1542  
                                         u7220 1458                                           u7140 122C  
                                         u7060 10C2                                           u2981 3CCC  
                                         u6261 2888                                           u6181 2790  
                                         u6501 25B8                                           u6421 2484  
                                         u6405 2404                                           u6341 21E8  
                                         u5701 1D80                                           u5621 39B4  
                                         u7301 153E                                           u7221 1454  
                                         u7141 1226                                           u7061 10BE  
                                         u2878 3662                                           u2990 3CE4  
                                         u6510 3572                                           u6270 28A0  
                                         u6190 27BE                                           u6430 249A  
                                         u6350 222C                                           u5710 1D96  
                                         u5630 39CA                                           u7310 1550  
                                         u7230 147E                                           u7150 122E  
                                         u7070 10D0                                           u2879 3676  
                                         u2991 3CE0                                           u6511 356E  
                                         u6271 289C                                           u6191 27BA  
                                         u6431 2496                                           u6351 2228  
                                         u5711 1D92                                           u5631 39C6  
                                         u7311 154C                                           u7231 147A  
                                         u7071 10CC                                           u6520 358C  
                                         u6600 380A                                           u6280 28BA  
                                         u6440 24C8                                           u6360 223E  
                                         u5800 1EDE                                           u5720 1DA6  
                                         u5640 39F2                                           u7400 1934  
                                         u7320 157A                                           u7240 1494  
                                         u7160 1246                                           u7080 10E2  
                                         u6521 3588                                           u6601 3806  
                                         u6281 28B6                                           u6441 24C4  
                                         u6361 223A                                           u5801 1EDA  
                                         u5721 1DA2                                           u5641 39EE  
                                         u7401 1930                                           u7321 1576  
                                         u7241 1490                                           u7161 1242  
                                         u7081 10DE                                           u6530 35B2  
                                         u6610 3820                                           u6290 2902  
                                         u6450 24DE                                           u6370 224E  
                                         u5810 1EEC                                           u5730 1DE2  
                                         u5650 3A28                                           u7410 1946  
                                         u7330 16C2                                           u7250 14B0  
                                         u7170 12F8                                           u7090 112A  
                                         u6531 35AE                                           u6611 381C  
                                         u6291 28FE                                           u6451 24DA  
                                         u6371 224A                                           u5811 1EE8  
                                         u5731 1DDE                                           u5651 3A24  
                                         u7411 1942                                           u7331 16BE  
                                         u7251 14AC                                           u7171 12F4  
                                         u7091 1126                                           u6540 35D0  
                                         u6620 3844                                           u6700 32B6  
                                         u6460 24F2                                           u6380 2284  
                                         u5900 204A                                           u5820 1EFC  
                                         u5740 1DF0                                           u5660 1D0A  
                                         u7500 1AF4                                           u7420 1958  
                                         u7340 1728                                           u7260 14E6  
                                         u7180 138C                                           u6541 35CC  
                                         u6621 3840                                           u6701 32B2  
                                         u6461 24EE                                           u6381 2280  
                                         u5901 2046                                           u5821 1EF8  
                                         u5741 1DEC                                           u5661 1D06  
                                         u7501 1AF0                                           u7421 1954  
                                         u7341 1724                                           u7261 14E2  
                                         u7181 1388                                           u6550 35EC  
                                         u6630 3884                                           u6470 250C  
                                         u6390 2294                                           u6710 422E  
                                         u5910 205A                                           u5830 1F2E  
                                         u5750 1E5E                                           u5670 1D1C  
                                         u5590 4006                                           u7510 1B2A  
                                         u7430 1966                                           u7350 1770  
                                         u7270 150C                                           u7190 13FE  
                                         u6551 35E8                                           u6631 3880  
                                         u6471 2508                                           u6391 2290  
                                         u6711 422A                                           u5911 2056  
                                         u5831 1F2A                                           u5751 1E5A  
                                         u5671 1D18                                           u5591 4002  
                                         u7511 1B26                                           u7431 1962  
                                         u7351 176C                                           u7271 1508  
                                         u7191 13FA                                           u6560 3612  
                                         u6640 38C2                                           u6480 2554  
                                         u5920 2076                                           u5840 1F3C  
                                         u5760 1E76                                           u5680 1D2C  
                                         u6720 30CC                                           u6800 34CC  
                                         u7520 1B58                                           u7440 1980  
                                         u7360 1780                                           u7280 151E  
                                         u7600 341A                                           u6561 360E  
                                         u6641 38BE                                           u6481 2550  
                                         u5921 2072                                           u5841 1F38  
                                         u5761 1E70                                           u5681 1D28  
                                         u6721 30C8                                           u6801 34C8  
                                         u7521 1B54                                           u7441 197C  
                                         u7361 177C                                           u7281 151A  
                                         u7601 3416                                           u6570 37B8  
                                         u6650 38F6                                           u6490 2582  
                                         u5930 2086                                           u5850 1F5A  
                                         u5770 1E78                                           u5690 1D6E  
                                         u6730 3100                                           u6810 3522  
                                         u7530 1BDC                                           u7450 198E  
                                         u7370 181A                                           u7290 152C  
                                         u7610 3438                                           u6571 37B4  
                                         u6651 38F2                                           u6491 257E  
                                         u5931 2082                                           u5851 1F56  
                                         u5691 1D6A                                           u6811 351E  
                                         u7531 1BD8                                           u7451 198A  
                                         u7371 1816                                           u7291 1528  
                                         u7611 3434                                           u6580 37D2  
                                         u6660 31EA                                           u5940 2098  
                                         u5860 1F92                                           u5780 1EA0  
                                         u6740 312E                                           u6820 3532  
                                         u6900 3FDE                                           u7540 1BF6  
                                         u7460 19E6                                           u7380 1868  
                                         u7620 344A                                           u7700 2B92  
                                         u6581 37CE                                           u6661 31E6  
                                         u5941 2094                                           u5861 1F8E  
                                         u5781 1E9C                                           u6741 312A  
                                         u6821 352E                                           u7541 1BF2  
                                         u7461 19E2                                           u7381 1864  
                                         u7621 3446                                           u6590 37EC  
                                         u6670 3228                                           u5950 20AE  
                                         u5870 1FD8                                           u5790 1EBE  
                                         u6750 3142                                           u6830 3300  
                                         u6910 3FF0                                           u7550 1C0E  
                                         u7470 1AB8                                           u7390 1890  
                                         u7630 3474                                           u7710 2BA8  
                                         u6591 37E8                                           u6671 3224  
                                         u5951 20AA                                           u5871 1FD4  
                                         u5791 1EBA                                           u6751 313E  
                                         u6735 30F6                                           u6911 3FEC  
                                         u7551 1C0A                                           u7471 1AB4  
                                         u7391 188C                                           u7631 3470  
                                         u7711 2BA4                                           u6680 3246  
                                         u5960 20C4                                           u5880 200E  
                                         u6760 316A                                           u6840 331E  
                                         u6920 3F64                                           u7560 1C6C  
                                         u7480 1AD4                                           u7720 2C6E  
                                         u7640 299A                                           u6681 3242  
                                         u5961 20C0                                           u5881 200A  
                                         u6761 3166                                           u6841 331A  
                                         u6921 3F5E                                           u7561 1C66  
                                         u7481 1AD0                                           u7721 2C6A  
                                         u7641 2996                                           u6690 3266  
                                         u5970 20D8                                           u5890 201E  
                                         u6770 318A                                           u6850 3346  
                                         u6930 3F66                                           u7570 1C6E  
                                         u7490 1AE6                                           u7650 29F0  
                                         u7730 3EC8                                           u6691 3262  
                                         u5971 20D4                                           u5891 201A  
                                         u6771 3186                                           u6851 3342  
                                         u6835 32F6                                           u6907 3FD4  
                                         u7491 1AE2                                           u7651 29EC  
                                         u7731 3EC4                                           u5980 20F2  
                                         u6780 319A                                           u6860 3370  
                                         u6940 3F7C                                           u7580 1C84  
                                         u7660 2A32                                           u5981 20EE  
                                         u6781 3196                                           u6861 336C  
                                         u6941 3F78                                           u7581 1C80  
                                         u7661 2A2E                                           u5990 212C  
                                         u6950 2D38                                           u6790 34AA  
                                         u7590 33E8                                           u7670 2A76  
                                         u5991 2128                                           u6791 34A6  
                                         u7591 33E4                                           u7671 2A72  
                                         u6880 33AA                                           u6960 2D66  
                                         u7680 2B26                                           u6881 33A4  
                                         u6961 2D62                                           u7681 2B22  
                                         u6890 33AC                                           u6970 2D88  
                                         u7690 2B90                                           u6875 3382  
                                         u6971 2D84                                           u6955 2D2E  
                                         u7691 2B8A                                           u7747 3F1C  
                                         u6990 2DF4                                           u6991 2DF0  
                                         u6985 2D9C                                           u6986 2DA6  
                                         u6987 2DB6                                           _WPUB 000F7C  
                      ??_wr2RegCompleteHandler 0010                                           _dbuf 0100  
                                         _main 3ED2                       ?_I2C_CallbackReturnReset 000E  
                                         _prec 00AF                                           _nout 00AB  
                                         pad@i 001E                                           pad@p 001B  
                                         fsr0h 000FEA                                           fsr1h 000FE2  
                                         indf0 000FEF                                           fsr2h 000FDA  
                                         fsr0l 000FE9                                           indf2 000FDF  
                                         fsr1l 000FE1                                           pad@w 0020  
                                         fsr2l 000FD9                               __end_of_I2C_Open 3ACA  
                                         btemp 005B                                  ___fpclassifyf 32C0  
                                         prodh 000FF4                                           prodl 000FF3  
                                         start 00B0                                ___fldiv@new_exp 0016  
                 fp__I2C_DO_SEND_RESTART_WRITE 0000                                   _tolower$2207 0011  
                                 ___param_bank 000000               __size_of_rdBlkRegCompleteHandler 0040  
                                        ??_pad 001D                               ?_I2C_MasterClose 0001  
                                ?_EUSART_Write 0001            __size_of_I2C_SetAddressNackCallback 0018  
               __size_of_OSCILLATOR_Initialize 000A                               ?_I2C_MasterStart 0001  
                                _I2C_DO_RX_ACK 45CA                               ?_I2C_MasterWrite 0001  
                __end_of_OSCILLATOR_Initialize 4580                                    _writeBuffer 00A8  
                                ___fltol@sign1 000D                                __end_of___fladd 21B0  
                                        ?_main 0001                                __end_of___fldiv 2974  
                              __end_of___awdiv 3624                                __end_of___flneg 4250  
                                        STR_10 1046                                          STR_12 1046  
                              __end_of___awmod 3856                                __end_of___flmul 25DA  
                              __end_of___flsub 4090                                __end_of___fltol 31BC  
                                        _ANSEL 000F7E                                ___awdiv@divisor 0007  
                                        i2l610 419E                                          i2l621 441C  
                                        i2l630 4610                                          i2l607 419C  
                                        i2l624 4642                                          i2l617 37A4  
                                        i2l627 460A                                          i2l671 009C  
                                        i2l666 0062                                          i2l667 009C  
                              ___awdiv@counter 0009                                          _RCREG 000FAE  
                 __size_of_I2C_DO_RX_NACK_STOP 0008                                          _RCSTA 000FAB  
                                 vfpfcnvrt@fmt 0040                                          _SPBRG 000FAF  
                            ??_I2C_DO_TX_EMPTY 0010                                          _TRISA 000F92  
                                        _TRISB 000F93                                          _TRISC 000F94  
                                        _TRISD 000F95                                          _TRISE 000F96  
                                        _TXREG 000FAD                                          _TXSTA 000FAC  
                            __end_of_I2C_DO_RX 39A6                              __end_of_I2C_DO_TX 36E8  
                                        _flags 00B1                         _I2C_Write2ByteRegister 3D2C  
                                        _light 00A4                                          _fputc 39A6  
                            __end_of_I2C_Close 43F4                                          _fputs 40D6  
                       __size_of_I2C_MasterFsm 0070                 I2C_MasterOperation@returnValue 0015  
                                        pad@fp 0017                                          _width 00AD  
                                        _putch 456C                        _I2C_MasterEnableRestart 462A  
                              __end_of_isupper 4218                                          pclath 000FFA  
                                        tablat 000FF5                               ?_I2C_SetCallback 0005  
                 I2C_SetAddressNackCallback@cb 000A                                          ttemp5 005C  
                                        ttemp6 005F                                          ttemp7 0063  
                                        status 000FD8                                          wtemp8 005C  
                               ?___fpclassifyf 0005                                __end_of_tolower 3F94  
                            ?_I2C_DO_SEND_STOP 0001                         __size_of_I2C_SetBuffer 0024  
                              __end_of_strncmp 349A                             ??_I2C_DO_SEND_STOP 0005  
                                _fsmStateTable 1001                       fp__rd1RegCompleteHandler 0000  
                              __initialization 42EC                                   __end_of_main 3F34  
                     fp__wr1RegCompleteHandler 0000              __size_of_I2C_DO_SEND_RESTART_READ 0008  
                    ?_I2C_DO_SEND_RESTART_READ 0001                                 ??_EUSART_Write 0005  
                               ?_I2C_DO_RX_ACK 0001                    ?_INTERRUPT_InterruptManager 0001  
               ??_EUSART_SetRxInterruptHandler 0007                                         ??_main 00F4  
                            ?_I2C_MasterIsNack 0001                                  __activetblptr 000003  
                        _I2C_Read2ByteRegister 3ACA                              ?_I2C_MasterSetIrq 0001  
             I2C_Read2ByteRegister@returnValue 001C                             ??_I2C_MasterIsNack 0005  
                           ??_I2C_MasterSetIrq 0005           fp__EUSART_DefaultFramingErrorHandler 0000  
    __end_of_EUSART_DefaultFramingErrorHandler 4644     __size_of_EUSART_DefaultFramingErrorHandler 0002  
          ??_EUSART_DefaultFramingErrorHandler 0001             ?_EUSART_DefaultFramingErrorHandler 0001  
            _EUSART_DefaultFramingErrorHandler 4642                     _EUSART_OverrunErrorHandler 0158  
              __end_of_I2C_CallbackReturnReset 4622                                         ?_fputc 0007  
                                       ?_fputs 0010                __size_of_I2C_CallbackReturnStop 0004  
                             ___awdiv@dividend 0005                  I2C_SetDataCompleteCallback@cb 000A  
                                       ?_putch 0001                                         _ANSELH 000F7F  
                                 ??_I2C_Poller 0014                                         i2l5260 43F4  
                                       i2l5262 4404                                         i2l5430 4606  
                                       i2l5264 4406                                         i2l5432 460C  
                                       i2l5520 415E                                         i2l5266 4416  
                                       i2l5530 4196                                         i2l5522 4170  
                                       i2l5268 441A                                         i2l5540 372E  
                                       i2l5532 36E8                                         i2l5524 4180  
                                       i2l5550 37A0                                         i2l5542 373C  
                                       i2l5534 36F8                                         i2l5526 4182  
                                       i2l5544 374C                                         i2l5536 3706  
                                       i2l5528 4192                                         i2l5546 3766  
                                       i2l5538 3716                                         i2l5548 3782  
                                       i2l5680 0036                                         i2l5682 0044  
                                       i2l5684 0070                                         i2l5676 001A  
                                       i2l5686 007E                                         i2l5678 0028  
                                       _OSCCON 000FD3                                         _SPBRGH 000FB0  
                                       _SSPADD 000FC8                                         _SSPBUF 000FC9  
                             __end_of___xxtofl 30B6                            _I2C_MasterGetRxData 4616  
                          VEML6030_Init@config 001E                                   vfprintf@cfmt 0052  
                                       ___flge 31BC                                         ___fleq 3856  
                                    ??___fladd 000D                                      ??___fldiv 000D  
                                _I2C_MasterFsm 3CBC                                      ??___awdiv 0009  
                                    ??___flneg 0009                                      ??___awmod 0009  
                                    ??___flmul 000D                                      ??___flsub 0026  
                                    ??___fltol 0009                                         _efgtoa 104A  
                          _EUSART_Transmit_ISR 415E                                         _floorf 2CF0  
                                       clear_0 42F2                                         clear_1 42FE  
                            I2C_SetCallback@cb 0005                               ___awdiv@quotient 000B  
                      fp__I2C_DO_SEND_ADR_READ 0000                                ___awmod@divisor 0007  
                      __size_of_I2C_MasterOpen 0022                                         isa$std 000001  
                      __size_of_I2C_MasterStop 0004                                ___awmod@counter 0009  
                      __size_of_I2C_Initialize 0014                                         _printf 441E  
                                       pad@buf 0019                                  _I2C_SetBuffer 4446  
                           __end_of_I2C_Poller 44AA                                         _strcpy 3F94  
                                       _strlen 4250                   __end_of_I2C_MasterDisableIrq 4636  
                                       fputc@c 0007                                         fputs@c 0014  
                          _I2C_DO_ADDRESS_NACK 3E08                                         fputs@i 0015  
                                       fputs@s 0010                           ?_I2C_MasterGetRxData 0001  
                                    ?_I2C_Open 0001             __end_of_I2C_SetAddressNackCallback 44C2  
                   _I2C_SetAddressNackCallback 44AA                                ___fpclassifyf@e 000D  
                              ___fpclassifyf@u 000F                                ___fpclassifyf@x 0005  
                                 __mediumconst 0000                                         tblptrh 000FF7  
                                    ??_isupper 0007                                         tblptrl 000FF6  
                                       tblptru 000FF8                      ??_I2C_MasterEnableRestart 0005  
                             __end_of_vfprintf 3ED2                                      ??_tolower 000D  
                                    ??_strncmp 000B                           ?_EUSART_Transmit_ISR 0001  
                __size_of_INTERRUPT_Initialize 0004                                     ___flge@ff1 001E  
                                   ___flge@ff2 0022                                ??___fpclassifyf 0009  
                                 ___xxtofl@arg 000F                                   ___xxtofl@exp 000E  
                            _SYSTEM_Initialize 44DA                                   ___xxtofl@val 0005  
                                   ___fleq@ff1 0005                                     ___fleq@ff2 0009  
                                   __accesstop 0060                        __end_of__initialization 430E  
                                   ___flneg@f1 0005                            _I2C_MasterOperation 411A  
                           ?_SYSTEM_Initialize 0001                                  ___rparam_used 000001  
                         ?_I2C_DO_ADDRESS_NACK 0001                                     ___fltol@f1 0005  
         __end_of_EUSART_SetTxInterruptHandler 458A          __size_of_EUSART_SetTxInterruptHandler 000A  
                 _EUSART_SetTxInterruptHandler 4580                        _rdBlkRegCompleteHandler 41A0  
                   fp__rdBlkRegCompleteHandler 0000                                 __pcstackCOMRAM 0001  
                               ?_I2C_MasterFsm 0001                                ??_I2C_DO_RX_ACK 0005  
                       _I2C_CallbackReturnStop 4622                            ??_SYSTEM_Initialize 0007  
                                __end_of_fputc 3A3C                                  __end_of_fputs 411A  
                                __end_of_putch 4576                                 ?_I2C_SetBuffer 0005  
                      ?_I2C_MasterWaitForEvent 0001                 __size_of_I2C_DO_SEND_ADR_WRITE 0010  
           __size_of_I2C_DO_SEND_RESTART_WRITE 0008                         ?_I2C_Read2ByteRegister 0016  
                __end_of_I2C_DO_SEND_ADR_WRITE 4538                     ?_I2C_DO_SEND_RESTART_WRITE 0001  
                         ?_I2C_MasterOperation 0001                          ??_I2C_MasterGetRxData 0005  
                      ?_I2C_Write1ByteRegister 0016                                     ??_I2C_Open 0005  
                         _eusartRxStatusBuffer 0084                     __end_of_I2C_MasterClearIrq 463E  
              ??_EUSART_SetOverrunErrorHandler 0007                                        ??_fputc 000B  
                    __end_of_SYSTEM_Initialize 44F0                                        ??_fputs 0014  
                        ??_EUSART_Transmit_ISR 0001                                        ??_putch 0006  
                            _I2C_MasterSendAck 45FA                                     __pbssBANK0 0060  
                                   __pbssBANK1 0100                           __end_of_EUSART_Write 404A  
                                ??_I2C_DO_IDLE 0005                 __size_of_rd2RegCompleteHandler 002C  
                                ??_I2C_DO_RCEN 0005                  __end_of_rd2RegCompleteHandler 4370  
                 __end_of_I2C_MasterSendTxData 45FA                             ?_I2C_MasterSendAck 0001  
                            _I2C_MasterStartRx 461A                 __size_of_wr2RegCompleteHandler 002C  
                        ??_I2C_DO_ADDRESS_NACK 0010                  __end_of_wr2RegCompleteHandler 43C8  
                  __size_of_EUSART_Receive_ISR 00BE                            _I2C_DO_RX_NACK_STOP 45C2  
                        _rd1RegCompleteHandler 4370                             ?_I2C_MasterStartRx 0001  
                   __end_of_I2C_MasterSendNack 4606                         __size_of_VEML6030_Init 0036  
                        _wr1RegCompleteHandler 4318                            ??_I2C_MasterSendAck 0005  
                     rd1RegCompleteHandler@ptr 000E                                        ?___flge 001E  
                ?_EUSART_SetTxInterruptHandler 0005                                        ?___fleq 0005  
             _EUSART_TxDefaultInterruptHandler 00FA                    __end_of_I2C_DO_SEND_RESTART 45E2  
                              _I2C_DO_TX_EMPTY 3B50                            I2C_SetBuffer@buffer 0005  
                                      ?_efgtoa 0032                 __end_of_I2C_MasterWaitForEvent 4528  
                          ??_I2C_MasterStartRx 0005                  __size_of_I2C_DO_SEND_ADR_READ 0010  
                                      ?_floorf 001E                                        _BAUDCON 000FB8  
             __size_of_I2C_CallbackReturnReset 0004                   ??_EUSART_DefaultErrorHandler 0001  
                        ??_I2C_MasterOperation 0014                                        ?_printf 0150  
               I2C_SetDataCompleteCallback@ptr 000C                 __end_of_I2C_Write1ByteRegister 3E08  
                                      ?_strcpy 0005                                        ?_strlen 0005  
                     ??_I2C_DO_RX_NACK_RESTART 0005              __end_of_I2C_DO_SEND_RESTART_WRITE 45EA  
                         ?_I2C_DO_RX_NACK_STOP 0001                                  _eusartRxCount 0056  
                      ?_I2C_Write2ByteRegister 0016                                      ?___xxtofl 0005  
                           __size_of_vfpfcnvrt 037C                  __size_of_EUSART_RxDataHandler 002A  
                    __end_of_I2C_MasterSendAck 4600                                        _OSCTUNE 000F9B  
                     ??_EUSART_SetErrorHandler 0007                                        _SSPCON1 000FC6  
                                      _SSPCON2 000FC5                                        _SSPSTAT 000FC7  
                    __end_of_I2C_MasterStartRx 461E                           I2C_Close@returnValue 0005  
                 ?_I2C_SetDataCompleteCallback 000A                                      _I2C_DO_RX 3900  
                                    _I2C_DO_TX 3624               __end_of_I2C_DO_SEND_RESTART_READ 45F2  
                                    _I2C_Close 43C8                      ??_rdBlkRegCompleteHandler 0010  
                         _I2C_MasterDisableIrq 4632                                ??_I2C_MasterFsm 0012  
                                      __Hparam 0000            __size_of_EUSART_DefaultErrorHandler 0006  
                                      __Lparam 0000                            __end_of_I2C_DO_IDLE 456C  
                          __end_of_I2C_DO_RCEN 4560                                     _readBuffer 00B3  
                              __size_of___flge 0104                                __size_of___fleq 00AA  
                                      ___fladd 1CF0                                        ___fldiv 25DA  
                                      ___awdiv 3560                                        ___flneg 4218  
                                      ___awmod 37A6                                        ___flmul 21B0  
                                      ___flsub 404A                                        ___fltol 30B6  
                              ??_I2C_SetBuffer 0009                                      ?_vfprintf 00EE  
                      I2C_SetBuffer@bufferSize 0007                                   __psmallconst 1000  
                              __size_of_efgtoa 0CA6                                 _I2C_MasterOpen 446A  
                              __size_of_floorf 0212                                        __pcinit 42EC  
                               _I2C_MasterStop 4626                                 _I2C_Initialize 4504  
                                      __ramtop 1000                      __size_of_I2C_DO_SEND_STOP 0008  
                                      __ptext0 3ED2                                        __ptext1 441E  
                                      __ptext2 3E6E                                        __ptext3 2974  
                                      __ptext4 33BE                                        __ptext5 104A  
                                      __ptext6 3F34                                        __ptext7 41E0  
                                      __ptext8 3F94                                        __ptext9 349A  
               __end_of_I2C_Write2ByteRegister 3D9A                                __size_of_printf 0028  
                        ??_I2C_DO_RX_NACK_STOP 0005                                __size_of_strcpy 005E  
                              __size_of_strlen 0036                          _OSCILLATOR_Initialize 4576  
                        VEML6030_GetValue@data 0026                                   __size_of_pad 00C6  
                                   ??___xxtofl 0009                               ___awmod@dividend 0005  
                                _VEML6030_Init 4286                             I2C_SetCallback@idx 0009  
                     __size_of_I2C_MasterClose 0004                       ??_PIN_MANAGER_Initialize 0005  
                I2C_CallbackReturnReset@funPtr 000E                             I2C_SetCallback@ptr 0007  
                     wr1RegCompleteHandler@ptr 000E                                        _isupper 41E0  
                                      efgtoa@c 0038                                        efgtoa@d 00CE  
                                      efgtoa@e 00E6                                        efgtoa@f 0034  
                                      efgtoa@g 00E2                                        efgtoa@h 00D8  
                                      efgtoa@i 00E0                                        efgtoa@l 00DC  
                                      efgtoa@m 00C8                                        efgtoa@n 00E8  
                                      efgtoa@p 00D2                                        efgtoa@t 00C2  
                                      efgtoa@u 00EA                                        efgtoa@w 00D4  
                    I2C_Write1ByteRegister@reg 0016                       fp__I2C_DO_SEND_ADR_WRITE 0000  
                     __size_of_I2C_MasterStart 0004                       __size_of_I2C_MasterWrite 0008  
                   __size_of_SYSTEM_Initialize 0016                                        _tolower 3F34  
                                      _strncmp 33BE                           end_of_initialization 430E  
                                      floorf@e 002C                                        floorf@m 0028  
                                      floorf@u 002E                                        floorf@x 001E  
                                   ?_I2C_DO_RX 0001                                     ?_I2C_DO_TX 0001  
        __end_of_EUSART_SetOverrunErrorHandler 459E         __size_of_EUSART_SetOverrunErrorHandler 000A  
                _EUSART_SetOverrunErrorHandler 4594                      __size_of_I2C_MasterIsNack 0014  
                                      fputc@fp 0009                                     ?_I2C_Close 0001  
                                      fputs@fp 0012                         ?_rd1RegCompleteHandler 000E  
                      __end_of_I2C_DO_TX_EMPTY 3BCC                      __size_of_I2C_MasterSetIrq 0004  
                        ?_I2C_MasterDisableIrq 0001                              _EUSART_Initialize 3C46  
                       ?_wr1RegCompleteHandler 000E                       fp__rd2RegCompleteHandler 0000  
                           ?_EUSART_Initialize 0001                       __size_of_I2C_SetCallback 007A  
                            __end_of_vfpfcnvrt 2CF0                                     efgtoa@mode 00D7  
                                   efgtoa@sign 00D0                                      _RCSTAbits 000FAB  
                                      postdec2 000FDD                         __end_of_I2C_MasterOpen 448C  
                     fp__wr2RegCompleteHandler 0000                                        postinc0 000FEE  
                                      postinc1 000FE6                                        postinc2 000FDE  
                       __end_of_I2C_MasterStop 462A                         __end_of_I2C_Initialize 4518  
                                   ??_vfprintf 0052                      fp__I2C_CallbackReturnStop 0000  
                                      strcpy@d 000D                                        strlen@a 0007  
                                      strcpy@s 000B                                        strlen@s 0005  
                          ??_EUSART_Initialize 0007                 ??_EUSART_SetTxInterruptHandler 0007  
              __end_of_rdBlkRegCompleteHandler 41E0                           _I2C_MasterSendTxData 45F2  
                              fp__I2C_DO_RESET 0000                  VEML6030_GetValue@lightDataAnz 0022  
              __size_of_I2C_DO_RX_NACK_RESTART 0008                                 ?_VEML6030_Init 0001  
                                  ___fladd@grs 0014                                  ___xxtofl@sign 000D  
                  ?_I2C_SetAddressNackCallback 000A                          __size_of_EUSART_Write 0058  
                   __size_of_I2C_MasterSendAck 0006                                    ___fldiv@grs 0018  
                                  ___fldiv@rem 0011                              __size_of_I2C_Open 008E  
              __size_of_EUSART_SetErrorHandler 000A                     __size_of_I2C_MasterStartRx 0004  
                                  ___flmul@grs 0013                      __end_of_EUSART_Initialize 3CBC  
                    I2C_Write2ByteRegister@reg 0016                                    _I2C_DO_IDLE 4560  
                                  _I2C_DO_RCEN 4554                     rdBlkRegCompleteHandler@ptr 000E  
                I2C_Write1ByteRegister@address 0018                                      _TXSTAbits 000FAC  
                      ?_I2C_CallbackReturnStop 000E                       _I2C_DO_SEND_RESTART_READ 45EA  
                  fp__I2C_DO_SEND_RESTART_READ 0000                   I2C_CallbackReturnStop@funPtr 000E  
                      ??_I2C_Read2ByteRegister 0018                                ?_I2C_MasterOpen 0001  
                 __end_of_INTERRUPT_Initialize 4642                                ?_I2C_MasterStop 0001  
                              ?_I2C_Initialize 0001                        _I2C_CallbackReturnReset 461E  
                   fp__I2C_CallbackReturnReset 0000                                 __end_of___flge 32C0  
                               __end_of___fleq 3900             __end_of_EUSART_DefaultErrorHandler 4612  
                   _EUSART_DefaultErrorHandler 460C                                    vfpfcnvrt@ap 0042  
                                  vfpfcnvrt@ct 004E                                    vfpfcnvrt@fp 003E  
         __size_of_I2C_SetDataCompleteCallback 0018                                 __end_of_efgtoa 1CF0  
                                 _EUSART_Write 3FF2                                 __end_of_floorf 2F02  
                        ?_I2C_MasterSendTxData 0001                         ?_OSCILLATOR_Initialize 0001  
                                   floorf@F527 009C                    ??_I2C_DO_SEND_RESTART_WRITE 0005  
                               __end_of_printf 4446                                 __end_of_strcpy 3FF2  
                               __end_of_strlen 4286                            start_initialization 42EC  
              __size_of_PIN_MANAGER_Initialize 0030                                    __end_of_pad 3560  
                                ?_I2C_DO_RESET 0001   EUSART_SetRxInterruptHandler@interruptHandler 0005  
 EUSART_SetTxInterruptHandler@interruptHandler 0005                                    putch@txData 0006  
                                  ??_I2C_DO_RX 0010                                    ??_I2C_DO_TX 0010  
                            ??_I2C_MasterClose 0005                         ??_I2C_MasterDisableIrq 0005  
                                  ??_I2C_Close 0005                              ??_I2C_MasterStart 0005  
                        __end_of___fpclassifyf 33BE                              ??_I2C_MasterWrite 0016  
               __end_of_I2C_CallbackReturnStop 4626                         _I2C_DO_RX_NACK_RESTART 45BA  
                             ?_I2C_DO_TX_EMPTY 0001                             _I2C_MasterClearIrq 463A  
               ?_EUSART_SetOverrunErrorHandler 0005                                    vfprintf@fmt 00F0  
                   _EUSART_FramingErrorHandler 00F6                                       ??___flge 0026  
                                     ??___fleq 000D                         _EUSART_SetErrorHandler 45A8  
                          ?_I2C_MasterClearIrq 0001                                       ??_efgtoa 0039  
                  __end_of_I2C_MasterGetRxData 461A                                       ??_floorf 0022  
                        __end_of_I2C_DO_RX_ACK 45D2                               _I2C_DO_SEND_STOP 45D2  
                            ??_I2C_SetCallback 0009                                       ??_printf 0054  
                              ??_VEML6030_Init 001E                            I2C_Open@returnValue 0006  
                                     ??_strcpy 0009                             _I2C_MasterSendNack 4600  
                                     ??_strlen 0007                       ?_I2C_MasterEnableRestart 0001  
                                    ___fladd@a 0009                                      ___fladd@b 0005  
                       fp__I2C_DO_SEND_RESTART 0000                                      ___fldiv@a 0009  
                                    ___fldiv@b 0005                       I2C_Read2ByteRegister@reg 0016  
                  __end_of_EUSART_Transmit_ISR 41A0                          _I2C_DO_SEND_ADR_WRITE 4528  
                                    ___flmul@a 0009                                      ___flmul@b 0005  
                                  __pbssCOMRAM 0056                                      ___flsub@a 0022  
                                    ___flsub@b 001E                                  __pcstackBANK0 00B6  
                                __pcstackBANK1 0150                                 ??_I2C_DO_RESET 0005  
                          ?_I2C_MasterSendNack 0001                              __size_of___xxtofl 01B4  
                 __end_of_I2C_DO_SEND_ADR_READ 4548                           ??_I2C_MasterClearIrq 0005  
                  __end_of_I2C_DO_ADDRESS_NACK 3E6E                     __end_of_EUSART_Receive_ISR 37A6  
                             _I2C_MasterIsNack 44F0                     __size_of_EUSART_Initialize 0076  
                    _I2C_DO_SEND_RESTART_WRITE 45E2               _EUSART_RxDefaultInterruptHandler 00F8  
                             _I2C_MasterSetIrq 4612                                      __pnvBANK0 00F6  
                                    __pnvBANK1 0156                          _rd2RegCompleteHandler 4344  
                        __end_of_fsmStateTable 1021                                    _efgtoa$2093 00BA  
                                  _efgtoa$2087 00B6                                    _efgtoa$2088 00B8  
                                  _efgtoa$2097 00BC                                    _efgtoa$2098 00BE  
                                  _efgtoa$2099 00C0                   __end_of_EUSART_RxDataHandler 441E  
                       _PIN_MANAGER_Initialize 42BC                          _wr2RegCompleteHandler 439C  
                    ??_I2C_CallbackReturnReset 0010                    __end_of_I2C_MasterOperation 415E  
                         ??_I2C_MasterSendNack 0005                       rd2RegCompleteHandler@ptr 000E  
                                    __pintcode 0008                                       ?___fladd 0005  
                                     ?___fldiv 0005                                       ?___awdiv 0005  
                                     ?___flneg 0005                                       ?___awmod 0005  
                                     ?___flmul 0005                                       ?___flsub 001E  
                                     ?___fltol 0005                                   _eusartRxHead 0058  
                                 _eusartTxHead 005A                                   _eusartRxTail 0057  
                       ??_I2C_MasterSendTxData 0005                                   _eusartTxTail 0059  
                 ??_INTERRUPT_InterruptManager 0001                              __size_of_vfprintf 0064  
                                 fp__I2C_DO_RX 0000                                   fp__I2C_DO_TX 0000  
                      _eusartTxBufferRemaining 00FC                   __size_of_I2C_DO_SEND_RESTART 0008  
                                  __smallconst 1000                        I2C_MasterOperation@read 0014  
                                     _I2C_Open 3A3C                                       ?_isupper 0005  
                                     ?_tolower 000B                                 __size_of_fputc 0096  
                               __size_of_fputs 0044                        ??_rd1RegCompleteHandler 0010  
                                     ?_strncmp 0005                                 __size_of_putch 000A  
                         _INTERRUPT_Initialize 463E                                 _eusartRxBuffer 008C  
                      ??_wr1RegCompleteHandler 0010                   I2C_Read2ByteRegister@address 001B  
                               _eusartTxBuffer 0094         EUSART_SetErrorHandler@interruptHandler 0005  
                                     _PIE1bits 000F9D                              _eusartRxLastError 00B5  
          __size_of_INTERRUPT_InterruptManager 00A8                                       i2u505_40 4416  
                                     i2u505_41 4412                                       _PIR1bits 000F9E  
              ??_EUSART_SetFramingErrorHandler 0007                                       _PIR2bits 000FA1  
                                     i2u540_40 3782                                       i2u540_41 377E  
                                     i2u541_48 3788                                       i2u534_40 4170  
                                     i2u541_49 379C                                       i2u534_41 416C  
                                     i2u535_40 4192                                       i2u535_41 418E  
                                     i2u536_40 3706                                       i2u552_40 0028  
                                     i2u536_41 3702                                       i2u552_41 0024  
                                     i2u553_40 0036                                       i2u553_41 0032  
                                     i2u538_40 373C                                       i2u537_48 371C  
                                     i2u554_40 0044                                       i2u538_41 3738  
                                     i2u537_49 372E                                       i2u554_41 0040  
                                     i2u539_48 3752                                       i2u556_40 0070  
                                     i2u555_48 004A                                       i2u539_49 3766  
                                     i2u556_41 006C                                       i2u555_49 005E  
                                     i2u557_40 007E                                       i2u557_41 007A  
                                     i2u558_48 0084                                       i2u558_49 0098  
                        __end_of_I2C_MasterFsm 3D2C                                       _RCONbits 000FD0  
                  __end_of_I2C_DO_RX_NACK_STOP 45CA           fp__EUSART_DefaultOverrunErrorHandler 0000  
    __end_of_EUSART_DefaultOverrunErrorHandler 460C     __size_of_EUSART_DefaultOverrunErrorHandler 0006  
          ??_EUSART_DefaultOverrunErrorHandler 0001             ?_EUSART_DefaultOverrunErrorHandler 0001  
            _EUSART_DefaultOverrunErrorHandler 4606                __end_of_I2C_MasterEnableRestart 462E  
                               fp__I2C_DO_IDLE 0000                                 fp__I2C_DO_RCEN 0000  
                                    _vfpfcnvrt 2974                          __end_of_I2C_SetBuffer 446A  
                       ?_I2C_DO_SEND_ADR_WRITE 0001                       I2C_MasterSendTxData@data 0005  
                     wr2RegCompleteHandler@ptr 000E                                     vfpfcnvrt@c 0051  
                                   vfpfcnvrt@f 004A                                    _INTCON2bits 000FF1  
                   ??_I2C_DO_SEND_RESTART_READ 0005                          ?_INTERRUPT_Initialize 0001  
                     ?_rdBlkRegCompleteHandler 000E                                     _I2C_Poller 448C  
                                   _I2C_Status 0060                                   ?_I2C_DO_IDLE 0001  
                                 ?_I2C_DO_RCEN 0001                         ?_rd2RegCompleteHandler 000E  
                        fp__EUSART_Receive_ISR 0000                               ??_I2C_MasterOpen 0005  
                       ?_wr2RegCompleteHandler 000E                               ??_I2C_MasterStop 0005  
                     ??_I2C_MasterWaitForEvent 0005                               ??_I2C_Initialize 0005  
                    fp__I2C_DO_RX_NACK_RESTART 0000                                       __Hrparam 0000  
                                   vfprintf@ap 00F2                                       __Lrparam 0000  
                                   vfprintf@fp 00EE                           __end_of_I2C_DO_RESET 4554  
                     ??_I2C_Write1ByteRegister 0018                        ??_OSCILLATOR_Initialize 0005  
                          _EUSART_ErrorHandler 0156                               __size_of___fladd 04C0  
                             __size_of___fldiv 039A                               __size_of___awdiv 00C4  
                         _I2C_DO_SEND_ADR_READ 4538                               __size_of___flneg 0038  
                             __size_of___awmod 00B0                               __size_of___flmul 042A  
                             __size_of___flsub 0046                               __size_of___fltol 0106  
               __size_of_I2C_Read2ByteRegister 0086                    ?_EUSART_DefaultErrorHandler 0001  
                                   ?_vfpfcnvrt 003E                  __end_of_I2C_Read2ByteRegister 3B50  
                           ___fpclassifyf@F465 00A0                                _I2C_MasterClose 4636  
                I2C_SetAddressNackCallback@ptr 000C                                I2C_Open@address 0005  
                                     ___xxtofl 2F02                            fp__I2C_DO_SEND_STOP 0000  
                              _I2C_MasterStart 462E                                _I2C_MasterWrite 45B2  
                         _EUSART_RxDataHandler 43F4                                       __ptext10 4250  
                                     __ptext11 40D6                                       __ptext20 4218  
                                     __ptext12 39A6                                       __ptext21 21B0  
                                     __ptext13 456C                                       __ptext30 4090  
                                     __ptext22 31BC                                       __ptext14 3FF2  
                                     __ptext31 2F02                                       __ptext23 3856  
                                     __ptext15 2CF0                                       __ptext40 3CBC  
                                     __ptext32 3ACA                                       __ptext24 25DA  
                                     __ptext16 32C0                                       __ptext41 3E08  
                                     __ptext33 44AA                                       __ptext25 37A6  
                                     __ptext17 30B6                                       __ptext50 4554  
                                     __ptext42 4548                                       __ptext34 3A3C  
                                     __ptext26 3560                                       __ptext18 404A  
                                     __ptext51 3900                                       __ptext43 45BA  
                                     __ptext35 446A                                       __ptext27 4286  
                                     __ptext19 1CF0                                       __ptext60 45FA  
                                     __ptext52 3624                                       __ptext44 45C2  
                                     __ptext36 45B2                                       __ptext28 3D2C  
                                     __ptext61 4616                                       __ptext53 4528  
                                     __ptext45 45CA                                       __ptext37 411A  
                                     __ptext29 3D9A                                       __ptext70 439C  
                                     __ptext62 4600                                       __ptext54 4538  
                                     __ptext46 45D2                                       __ptext38 448C  
                                     __ptext71 44C2                                       __ptext63 461A  
                                     __ptext55 4560                                       __ptext47 45DA  
                                     __ptext39 4518                                       __ptext80 463A  
                                     __ptext72 3BCC                                       __ptext64 461E  
                                     __ptext56 3B50                                       __ptext48 45E2  
                                     __ptext81 44DA                                       __ptext73 4446  
                                     __ptext65 4622                                       __ptext57 4612  
                                     __ptext49 45EA                                       __ptext90 459E  
                                     __ptext82 42BC                                       __ptext74 4626  
                                     __ptext66 41A0                                       __ptext58 44F0  
                                     __ptext91 45A8                                       __ptext83 4576  
                                     __ptext75 462A                                       __ptext67 4318  
                                     __ptext59 45F2                                       __ptext84 463E  
                                     __ptext76 462E                                       __ptext68 4344  
                                     __ptext93 415E                                       __ptext85 4504  
                                     __ptext77 43C8                                       __ptext69 4370  
                                     __ptext94 36E8                                       __ptext86 3C46  
                                     __ptext78 4632                                       __ptext95 4606  
                                     __ptext87 4580                                       __ptext79 4636  
                                     __ptext96 4642                                       __ptext88 458A  
                                     __ptext97 460C                                       __ptext89 4594  
                                     __ptext98 43F4                                       __ptext99 0000  
                             __size_of_isupper 0038            __end_of_I2C_SetDataCompleteCallback 44DA  
                  _I2C_SetDataCompleteCallback 44C2                        ?_I2C_DO_RX_NACK_RESTART 0001  
                             __size_of_tolower 0060                                     strcpy@dest 0005  
                             __size_of_strncmp 00DC                       __end_of_I2C_DO_SEND_STOP 45DA  
                            _VEML6030_GetValue 4090                                  __size_of_main 0062  
                I2C_Write2ByteRegister@address 0019                             ?_VEML6030_GetValue 001E  
                      ?_EUSART_SetErrorHandler 0005                                _I2C_SetCallback 3BCC  
                ??_I2C_SetDataCompleteCallback 000E                     I2C_Write1ByteRegister@data 0017  
                                     efgtoa@fp 0032                                       efgtoa@ne 00C6  
                                     efgtoa@pp 00C4                                       efgtoa@ou 00CA  
EUSART_SetOverrunErrorHandler@interruptHandler 0005                                       isa$xinst 000000  
                     ??_I2C_Write2ByteRegister 0019                                       int$flags 005B  
                        ?_I2C_DO_SEND_ADR_READ 0001                            ??_VEML6030_GetValue 0022  
                                     _vfprintf 3E6E             __end_of_INTERRUPT_InterruptManager 00B0  
                   _INTERRUPT_InterruptManager 0008                                      printf@fmt 0150  
        __end_of_EUSART_SetFramingErrorHandler 45A8         __size_of_EUSART_SetFramingErrorHandler 000A  
                _EUSART_SetFramingErrorHandler 459E                       __end_of_I2C_MasterIsNack 4504  
                     __end_of_I2C_MasterSetIrq 4616                                 _vfpfcnvrt$2116 0048  
                                   _INTCONbits 000FF2                          ?_EUSART_RxDataHandler 0001  
                       ??_INTERRUPT_Initialize 0005                 __end_of_I2C_DO_RX_NACK_RESTART 45C2  
                    __end_of_VEML6030_GetValue 40D6                                       intlevel2 0000  
                                  ?_I2C_Poller 0001                         fp__EUSART_Transmit_ISR 0000  
             __size_of_I2C_MasterEnableRestart 0004                        ?_PIN_MANAGER_Initialize 0001  
               __end_of_EUSART_SetErrorHandler 45B2                            _I2C_DO_SEND_RESTART 45DA  
                                    strcpy@src 0007                  __size_of_I2C_MasterDisableIrq 0004  
                                     isupper@c 0005                         fp__I2C_DO_ADDRESS_NACK 0000  
                                    strncmp@_l 0005                                      strncmp@_r 0007  
         __end_of_EUSART_SetRxInterruptHandler 4594          __size_of_EUSART_SetRxInterruptHandler 000A  
                 _EUSART_SetRxInterruptHandler 458A                __size_of_I2C_MasterWaitForEvent 0010  
                                  efgtoa@nmode 00D6                                       printf@ap 0054  
              __size_of_I2C_Write1ByteRegister 006E                             _EUSART_Receive_ISR 36E8  
EUSART_SetFramingErrorHandler@interruptHandler 0005                        __end_of_I2C_MasterClose 463A  
                     __size_of_I2C_DO_TX_EMPTY 007C                             fp__I2C_DO_TX_EMPTY 0000  
                                  ??_vfpfcnvrt 0044                        __end_of_I2C_MasterStart 4632  
                      __end_of_I2C_MasterWrite 45BA                           ?_I2C_DO_SEND_RESTART 0001  
                                     tolower@c 000B                            ?_EUSART_Receive_ISR 0001  
                        __end_of_VEML6030_Init 42BC                         __size_of___fpclassifyf 00FE  
                fp__EUSART_DefaultErrorHandler 0000                   __size_of_I2C_MasterGetRxData 0004  
                                     strncmp@l 000C                                       strncmp@n 0009  
                                     strncmp@r 000E                                    _SSPCON1bits 000FC6  
                                  _SSPCON2bits 000FC5                                  ___fladd@signs 0011  
                  __size_of_I2C_MasterClearIrq 0004                             EUSART_Write@txData 0005  
                 __size_of_EUSART_Transmit_ISR 0042                        __end_of_I2C_SetCallback 3C46  
               __end_of_PIN_MANAGER_Initialize 42EC                 __size_of_rd1RegCompleteHandler 002C  
                __end_of_rd1RegCompleteHandler 439C                         __size_of_I2C_DO_RX_ACK 0008  
                             fp__I2C_DO_RX_ACK 0000                                   ___fladd@aexp 0012  
                                 ___fladd@bexp 0013                 __size_of_wr1RegCompleteHandler 002C  
                         ??_EUSART_Receive_ISR 0001                          __size_of_I2C_DO_RESET 000C  
                __end_of_wr1RegCompleteHandler 4344                   __size_of_I2C_DO_ADDRESS_NACK 0066  
                         __size_of_I2C_DO_IDLE 000C                           __size_of_I2C_DO_RCEN 000C  
                           __size_of_I2C_DO_RX 00A6                             __size_of_I2C_DO_TX 00C4  
